(lp0
S'a[1225]'
p1
aS'a[99]'
p2
aS'a[875]'
p3
aS'a[5581]'
p4
aS'a[67]'
p5
aS'a[1492]'
p6
aS'a[3192]'
p7
aS'a[1970]'
p8
aS'a[1212]'
p9
aS'a[897]'
p10
aS'a[274]'
p11
aS'a[0]'
p12
aS'a[2549]'
p13
aS'a[3918]'
p14
aS'a[8147]'
p15
aS'a[8475]'
p16
aS'a[491]'
p17
aS'a[4550]'
p18
aS'a[208]'
p19
aS'a[4289]'
p20
aS'a[7128]'
p21
aS'a[162]'
p22
aS'a[244]'
p23
aS'a[2519]'
p24
aS'a[7340]'
p25
aS'a[2476]'
p26
aS'a[202]'
p27
aS'a[714]'
p28
aS'a[194]'
p29
aS'a[6189]'
p30
aS'a[2374]'
p31
aS'a[806]'
p32
aS'a[714]'
p33
aS'a[445]'
p34
aS'a[6225]'
p35
aS'a[223]'
p36
aS'a[1889]'
p37
aS'a[8756]'
p38
aS'a[1756]'
p39
aS'a[860]'
p40
aS'a[194]'
p41
aS'a[880]'
p42
aS'a[208]'
p43
aS'a[714]'
p44
aS'a[6485]'
p45
aS'a[0]'
p46
aS'a[4559]'
p47
aS'a[7667]'
p48
aS'a[6680]'
p49
aS'a[1262]'
p50
aS'a[5703]'
p51
aS'a[194]'
p52
aS'a[1225]'
p53
aS'a[491]'
p54
aS'a[4279]'
p55
aS'a[5635]'
p56
aS'a[67]'
p57
aS'a[208]'
p58
aS'a[5370]'
p59
aS'a[3669]'
p60
aS'a[153]'
p61
aS'a[7250]'
p62
aS'a[8093]'
p63
aS'a[6203]'
p64
aS'a[2106]'
p65
aS'a[2725]'
p66
aS'a[96]'
p67
aS'a[3906]'
p68
aS'a[7978]'
p69
aS'a[809]'
p70
aS'a[8570]'
p71
aS'a[441]'
p72
aS'a[32]'
p73
aS'a[141]'
p74
aS'a[7335]'
p75
aS'a[620]'
p76
aS'a[5900]'
p77
aS'a[806]'
p78
aS'a[1449]'
p79
aS'a[3005]'
p80
aS'a[2317]'
p81
aS'a[506]'
p82
aS'a[842]'
p83
aS'a[5373]'
p84
aS'a[4244]'
p85
aS'a[961]'
p86
aS'a[8006]'
p87
aS'a[1441]'
p88
aS'a[1693]'
p89
aS'a[3449]'
p90
aS'a[8860]'
p91
aS'a[5373]'
p92
aS'a[538]'
p93
aS'a[244]'
p94
aS'a[566]'
p95
aS'a[5554]'
p96
aS'a[441]'
p97
aS'a[1676]'
p98
aS'a[2604]'
p99
aS'a[4416]'
p100
aS'a[4076]'
p101
aS'a[6995]'
p102
aS'a[851]'
p103
aS'a[817]'
p104
aS'a[162]'
p105
aS'a[2147]'
p106
aS'a[153]'
p107
aS'a[3319]'
p108
aS'a[223]'
p109
aS'a[8761]'
p110
aS'a[352]'
p111
aS'a[897]'
p112
aS'a[875]'
p113
aS'a[6146]'
p114
aS'a[8527]'
p115
aS'a[1693]'
p116
aS'a[8231]'
p117
aS'a[755]'
p118
aS'a[3868]'
p119
aS'a[67]'
p120
aS'a[162]'
p121
aS'a[206]'
p122
aS'a[1213]'
p123
aS'a[9134]'
p124
aS'a[6843]'
p125
aS'a[2963]'
p126
aS'a[5748]'
p127
aS'a[9116]'
p128
aS'a[6]'
p129
aS'a[1262]'
p130
aS'a[40]'
p131
aS'a[4710]'
p132
aS'a[2923]'
p133
aS'a[3005]'
p134
aS'a[5110]'
p135
aS'a[842]'
p136
aS'a[2006]'
p137
aS'a[2006]'
p138
aS'a[5205]'
p139
aS'a[817]'
p140
aS'a[1444]'
p141
aS'a[1586]'
p142
aS'a[5290]'
p143
aS'a[1653]'
p144
aS'a[806]'
p145
aS'a[0]'
p146
aS'a[3918]'
p147
aS'a[7655]'
p148
aS'a[506]'
p149
aS'a[4087]'
p150
aS'a[3192]'
p151
aS'a[1866]'
p152
aS'a[2793]'
p153
aS'a[102]'
p154
aS'a[536]'
p155
aS'a[913]'
p156
aS'a[6008]'
p157
aS'a[1441]'
p158
aS'a[194]'
p159
aS'a[897]'
p160
aS'a[532]'
p161
aS'a[382]'
p162
aS'a[3868]'
p163
aS'a[8958]'
p164
aS'a[2003]'
p165
aS'a[4056]'
p166
aS'a[842]'
p167
aS'a[842]'
p168
aS'a[121]'
p169
aS'a[1693]'
p170
aS'a[5503]'
p171
aS'a[897]'
p172
aS'a[6222]'
p173
aS'a[880]'
p174
aS'a[5664]'
p175
aS'a[1693]'
p176
aS'a[1889]'
p177
aS'a[851]'
p178
aS'a[565]'
p179
aS'a[1676]'
p180
aS'a[4747]'
p181
aS'a[5538]'
p182
aS'a[244]'
p183
aS'a[1750]'
p184
aS'a[3282]'
p185
aS'a[2063]'
p186
aS'a[5292]'
p187
aS'a[6182]'
p188
aS'a[1503]'
p189
aS'a[4568]'
p190
aS'a[5142]'
p191
aS'a[202]'
p192
aS'a[441]'
p193
aS'a[1633]'
p194
aS'a[1056]'
p195
aS'a[842]'
p196
aS'a[506]'
p197
aS'a[1613]'
p198
aS'a[1564]'
p199
aS'a[817]'
p200
aS'a[620]'
p201
aS'a[566]'
p202
aS'a[32]'
p203
aS'a[6434]'
p204
aS'a[842]'
p205
aS'a[194]'
p206
aS'a[2574]'
p207
aS'a[8004]'
p208
aS'a[2453]'
p209
aS'a[2410]'
p210
aS'a[1159]'
p211
aS'a[162]'
p212
aS'a[789]'
p213
aS'a[1735]'
p214
aS'a[4822]'
p215
aS'a[1494]'
p216
aS'a[0]'
p217
aS'a[162]'
p218
aS'a[7265]'
p219
aS'a[9212]'
p220
aS'a[3192]'
p221
aS'a[714]'
p222
aS'a[2205]'
p223
aS'a[0]'
p224
aS'a[3472]'
p225
aS'a[6637]'
p226
aS'a[5373]'
p227
aS'a[595]'
p228
aS'a[1159]'
p229
aS'a[7813]'
p230
aS'a[842]'
p231
aS'a[536]'
p232
aS'a[5101]'
p233
aS'a[5932]'
p234
aS'a[7998]'
p235
aS'a[538]'
p236
aS'a[1624]'
p237
aS'a[491]'
p238
aS'a[2332]'
p239
aS'a[223]'
p240
aS'a[208]'
p241
aS'a[6470]'
p242
aS'a[2599]'
p243
aS'a[714]'
p244
aS'a[8043]'
p245
aS'a[506]'
p246
aS'a[817]'
p247
aS'a[1262]'
p248
aS'a[580]'
p249
aS'a[9213]'
p250
aS'a[202]'
p251
aS'a[506]'
p252
aS'a[3273]'
p253
aS'a[399]'
p254
aS'a[1427]'
p255
aS'a[7475]'
p256
aS'a[880]'
p257
aS'a[6326]'
p258
aS'a[4289]'
p259
aS'a[2374]'
p260
aS'a[620]'
p261
aS'a[7592]'
p262
aS'a[5082]'
p263
aS'a[6220]'
p264
aS'a[817]'
p265
aS'a[7314]'
p266
aS'a[8106]'
p267
aS'a[880]'
p268
aS'a[141]'
p269
aS'a[7894]'
p270
aS'a[506]'
p271
aS'a[1524]'
p272
aS'a[3676]'
p273
aS'a[206]'
p274
aS'a[5373]'
p275
aS'a[3868]'
p276
aS'a[5384]'
p277
aS'a[7998]'
p278
aS'a[1756]'
p279
aS'a[105]'
p280
aS'a[441]'
p281
aS'a[4732]'
p282
aS'a[2233]'
p283
aS'a[7934]'
p284
aS'a[595]'
p285
aS'a[9123]'
p286
aS'a[170]'
p287
aS'a[2769]'
p288
aS'a[5264]'
p289
aS'a[6463]'
p290
aS'a[6087]'
p291
aS'a[8225]'
p292
aS'a[277]'
p293
aS'a[4985]'
p294
aS'a[194]'
p295
aS'a[202]'
p296
aS'a[7348]'
p297
aS'a[566]'
p298
aS'a[153]'
p299
aS'a[4151]'
p300
aS'a[6270]'
p301
aS'a[5413]'
p302
aS'a[817]'
p303
aS'a[194]'
p304
aS'a[153]'
p305
aS'a[3050]'
p306
aS'a[3704]'
p307
aS'a[7524]'
p308
aS'a[7722]'
p309
aS'a[6251]'
p310
aS'a[32]'
p311
aS'a[755]'
p312
aS'a[4056]'
p313
aS'a[5340]'
p314
aS'a[880]'
p315
aS'a[5601]'
p316
aS'a[32]'
p317
aS'a[1676]'
p318
aS'a[559]'
p319
aS'a[5748]'
p320
aS'a[4505]'
p321
aS'a[3868]'
p322
aS'a[9063]'
p323
aS'a[506]'
p324
aS'a[7264]'
p325
aS'a[206]'
p326
aS'a[566]'
p327
aS'a[8560]'
p328
aS'a[1048]'
p329
aS'a[162]'
p330
aS'a[2370]'
p331
aS'a[5101]'
p332
aS'a[4032]'
p333
aS'a[925]'
p334
aS'a[7885]'
p335
aS'a[2650]'
p336
aS'a[4151]'
p337
aS'a[743]'
p338
aS'a[743]'
p339
aS'a[7371]'
p340
aS'a[506]'
p341
aS'a[5635]'
p342
aS'a[6568]'
p343
aS'a[4778]'
p344
aS'a[4810]'
p345
aS'a[696]'
p346
aS'a[506]'
p347
aS'a[1360]'
p348
aS'a[595]'
p349
aS'a[897]'
p350
aS'a[202]'
p351
aS'a[382]'
p352
aS'a[714]'
p353
aS'a[1058]'
p354
aS'a[580]'
p355
aS'a[5511]'
p356
aS'a[5098]'
p357
aS'a[806]'
p358
aS'a[5290]'
p359
aS'a[2060]'
p360
aS'a[1612]'
p361
aS'a[4408]'
p362
aS'a[580]'
p363
aS'a[7884]'
p364
aS'a[1262]'
p365
aS'a[1441]'
p366
aS'a[7179]'
p367
aS'a[1225]'
p368
aS'a[2767]'
p369
aS'a[491]'
p370
aS'a[1791]'
p371
aS'a[1056]'
p372
aS'a[7877]'
p373
aS'a[8590]'
p374
aS'a[382]'
p375
aS'a[5101]'
p376
aS'a[1866]'
p377
aS'a[2549]'
p378
aS'a[670]'
p379
aS'a[2405]'
p380
aS'a[860]'
p381
aS'a[1693]'
p382
aS'a[2759]'
p383
aS'a[769]'
p384
aS'a[890]'
p385
aS'a[4111]'
p386
aS'a[538]'
p387
aS'a[3247]'
p388
aS'a[4056]'
p389
aS'a[8406]'
p390
aS'a[7162]'
p391
aS'a[1506]'
p392
aS'a[817]'
p393
aS'a[3648]'
p394
aS'a[6099]'
p395
aS'a[1676]'
p396
aS'a[1889]'
p397
aS'a[8531]'
p398
aS'a[714]'
p399
aS'a[506]'
p400
aS'a[3210]'
p401
aS'a[434]'
p402
aS'a[5292]'
p403
aS'a[714]'
p404
aS'a[842]'
p405
aS'a[4151]'
p406
aS'a[123]'
p407
aS'a[538]'
p408
aS'a[153]'
p409
aS'a[194]'
p410
aS'a[714]'
p411
aS'a[277]'
p412
aS'a[5101]'
p413
aS'a[3005]'
p414
aS'a[7661]'
p415
aS'a[860]'
p416
aS'a[2716]'
p417
aS'a[2562]'
p418
aS'a[2549]'
p419
aS'a[1693]'
p420
aS'a[1676]'
p421
aS'a[445]'
p422
aS'a[223]'
p423
aS'a[7905]'
p424
aS'a[5101]'
p425
aS'a[4087]'
p426
aS'a[169]'
p427
aS'a[441]'
p428
aS'a[2389]'
p429
aS'a[7158]'
p430
aS'a[3005]'
p431
aS'a[441]'
p432
aS'a[8019]'
p433
aS'a[8380]'
p434
aS'a[4205]'
p435
aS'a[5525]'
p436
aS'a[714]'
p437
aS'a[1506]'
p438
aS'a[1756]'
p439
aS'a[679]'
p440
aS'a[153]'
p441
aS'a[5266]'
p442
aS'a[860]'
p443
aS'a[202]'
p444
aS'a[1624]'
p445
aS'a[2113]'
p446
aS'a[5675]'
p447
aS'a[2595]'
p448
aS'a[8966]'
p449
aS'a[3050]'
p450
aS'a[7067]'
p451
aS'a[4384]'
p452
aS'a[2549]'
p453
aS'a[714]'
p454
aS'a[6016]'
p455
aS'a[755]'
p456
aS'a[5834]'
p457
aS'a[3273]'
p458
aS'a[3599]'
p459
aS'a[577]'
p460
aS'a[7649]'
p461
aS'a[8470]'
p462
aS'a[9096]'
p463
aS'a[538]'
p464
aS'a[875]'
p465
aS'a[2838]'
p466
aS'a[580]'
p467
aS'a[491]'
p468
aS'a[925]'
p469
aS'a[880]'
p470
aS'a[2709]'
p471
aS'a[5374]'
p472
aS'a[4666]'
p473
aS'a[191]'
p474
aS'a[4050]'
p475
aS'a[5373]'
p476
aS'a[8675]'
p477
aS'a[5492]'
p478
aS'a[52]'
p479
aS'a[1056]'
p480
aS'a[5373]'
p481
aS'a[6183]'
p482
aS'a[714]'
p483
aS'a[170]'
p484
aS'a[4402]'
p485
aS'a[4577]'
p486
aS'a[2374]'
p487
aS'a[851]'
p488
aS'a[5997]'
p489
aS'a[9173]'
p490
aS'a[5552]'
p491
aS'a[2410]'
p492
aS'a[170]'
p493
aS'a[600]'
p494
aS'a[9091]'
p495
aS'a[2812]'
p496
aS'a[2549]'
p497
aS'a[714]'
p498
aS'a[2205]'
p499
aS'a[806]'
p500
aS'a[206]'
p501
aS'a[1038]'
p502
aS'a[8719]'
p503
aS'a[2946]'
p504
aS'a[7049]'
p505
aS'a[506]'
p506
aS'a[382]'
p507
aS'a[491]'
p508
aS'a[743]'
p509
aS'a[1690]'
p510
aS'a[194]'
p511
aS'a[536]'
p512
aS'a[6718]'
p513
aS'a[450]'
p514
aS'a[1471]'
p515
aS'a[0]'
p516
aS'a[8417]'
p517
aS'a[1612]'
p518
aS'a[7978]'
p519
aS'a[382]'
p520
aS'a[1198]'
p521
aS'a[602]'
p522
aS'a[1056]'
p523
aS'a[9042]'
p524
aS'a[4256]'
p525
aS'a[506]'
p526
aS'a[4532]'
p527
aS'a[6459]'
p528
aS'a[5292]'
p529
aS'a[6161]'
p530
aS'a[714]'
p531
aS'a[842]'
p532
aS'a[3192]'
p533
aS'a[1702]'
p534
aS'a[2884]'
p535
aS'a[7264]'
p536
aS'a[3616]'
p537
aS'a[3192]'
p538
aS'a[0]'
p539
aS'a[206]'
p540
aS'a[3918]'
p541
aS'a[121]'
p542
aS'a[7696]'
p543
aS'a[3868]'
p544
aS'a[1024]'
p545
aS'a[842]'
p546
aS'a[4861]'
p547
aS'a[759]'
p548
aS'a[2949]'
p549
aS'a[1050]'
p550
aS'a[4617]'
p551
aS'a[875]'
p552
aS'a[3756]'
p553
aS'a[8585]'
p554
aS'a[536]'
p555
aS'a[1693]'
p556
aS'a[650]'
p557
aS'a[5008]'
p558
aS'a[743]'
p559
aS'a[3635]'
p560
aS'a[7959]'
p561
aS'a[2443]'
p562
aS'a[5847]'
p563
aS'a[714]'
p564
aS'a[755]'
p565
aS'a[1889]'
p566
aS'a[194]'
p567
aS'a[6668]'
p568
aS'a[842]'
p569
aS'a[5292]'
p570
aS'a[445]'
p571
aS'a[714]'
p572
aS'a[790]'
p573
aS'a[7628]'
p574
aS'a[1577]'
p575
aS'a[3034]'
p576
aS'a[842]'
p577
aS'a[6692]'
p578
aS'a[7978]'
p579
aS'a[121]'
p580
aS'a[8402]'
p581
aS'a[234]'
p582
aS'a[441]'
p583
aS'a[1866]'
p584
aS'a[1624]'
p585
aS'a[1423]'
p586
aS'a[96]'
p587
aS'a[105]'
p588
aS'a[897]'
p589
aS'a[3076]'
p590
aS'a[806]'
p591
aS'a[506]'
p592
aS'a[7264]'
p593
aS'a[696]'
p594
aS'a[1048]'
p595
aS'a[52]'
p596
aS'a[2549]'
p597
aS'a[6776]'
p598
aS'a[2014]'
p599
aS'a[5209]'
p600
aS'a[8239]'
p601
aS'a[753]'
p602
aS'a[5610]'
p603
aS'a[821]'
p604
aS'a[382]'
p605
aS'a[445]'
p606
aS'a[15]'
p607
aS'a[7865]'
p608
aS'a[399]'
p609
aS'a[162]'
p610
aS'a[1564]'
p611
aS'a[5373]'
p612
aS'a[2793]'
p613
aS'a[2793]'
p614
aS'a[755]'
p615
aS'a[538]'
p616
aS'a[817]'
p617
aS'a[3005]'
p618
aS'a[1676]'
p619
aS'a[3148]'
p620
aS'a[4859]'
p621
aS'a[7102]'
p622
aS'a[7880]'
p623
aS'a[6057]'
p624
aS'a[32]'
p625
aS'a[3101]'
p626
aS'a[7264]'
p627
aS'a[1693]'
p628
aS'a[865]'
p629
aS'a[1511]'
p630
aS'a[399]'
p631
aS'a[1011]'
p632
aS'a[1181]'
p633
aS'a[7154]'
p634
aS'a[714]'
p635
aS'a[156]'
p636
aS'a[1889]'
p637
aS'a[162]'
p638
aS'a[506]'
p639
aS'a[7978]'
p640
aS'a[326]'
p641
aS'a[242]'
p642
aS'a[2935]'
p643
aS'a[536]'
p644
aS'a[566]'
p645
aS'a[4666]'
p646
aS'a[9060]'
p647
aS'a[4560]'
p648
aS'a[3441]'
p649
aS'a[3957]'
p650
aS'a[9204]'
p651
aS'a[2438]'
p652
aS'a[5349]'
p653
aS'a[755]'
p654
aS'a[6125]'
p655
aS'a[277]'
p656
aS'a[3868]'
p657
aS'a[3234]'
p658
aS'a[5047]'
p659
aS'a[7587]'
p660
aS'a[8093]'
p661
aS'a[3509]'
p662
aS'a[5373]'
p663
aS'a[1756]'
p664
aS'a[1441]'
p665
aS'a[491]'
p666
aS'a[0]'
p667
aS'a[4247]'
p668
aS'a[1056]'
p669
aS'a[6080]'
p670
aS'a[1441]'
p671
aS'a[7264]'
p672
aS'a[860]'
p673
aS'a[105]'
p674
aS'a[890]'
p675
aS'a[277]'
p676
aS'a[6837]'
p677
aS'a[8]'
p678
aS'a[8]'
p679
aS'a[556]'
p680
aS'a[595]'
p681
aS'a[3823]'
p682
aS'a[538]'
p683
aS'a[1159]'
p684
aS'a[2674]'
p685
aS'a[4302]'
p686
aS'a[860]'
p687
aS'a[6949]'
p688
aS'a[206]'
p689
aS'a[7978]'
p690
aS'a[4125]'
p691
aS'a[860]'
p692
aS'a[7476]'
p693
aS'a[897]'
p694
aS'a[121]'
p695
aS'a[714]'
p696
aS'a[880]'
p697
aS'a[4692]'
p698
aS'a[4840]'
p699
aS'a[2374]'
p700
aS'a[7264]'
p701
aS'a[536]'
p702
aS'a[7025]'
p703
aS'a[714]'
p704
aS'a[2006]'
p705
aS'a[5373]'
p706
aS'a[7832]'
p707
aS'a[277]'
p708
aS'a[7412]'
p709
aS'a[1545]'
p710
aS'a[96]'
p711
aS'a[7539]'
p712
aS'a[141]'
p713
aS'a[3145]'
p714
aS'a[755]'
p715
aS'a[743]'
p716
aS'a[5864]'
p717
aS'a[123]'
p718
aS'a[6]'
p719
aS'a[441]'
p720
aS'a[6880]'
p721
aS'a[3868]'
p722
aS'a[121]'
p723
aS'a[8505]'
p724
aS'a[8779]'
p725
aS'a[3993]'
p726
aS'a[123]'
p727
aS'a[202]'
p728
aS'a[7301]'
p729
aS'a[4151]'
p730
aS'a[790]'
p731
aS'a[8201]'
p732
aS'a[1271]'
p733
aS'a[5885]'
p734
aS'a[3050]'
p735
aS'a[988]'
p736
aS'a[9182]'
p737
aS'a[153]'
p738
aS'a[1953]'
p739
aS'a[441]'
p740
aS'a[1908]'
p741
aS'a[880]'
p742
aS'a[3050]'
p743
aS'a[4289]'
p744
aS'a[3050]'
p745
aS'a[1693]'
p746
aS'a[595]'
p747
aS'a[536]'
p748
aS'a[6737]'
p749
aS'a[223]'
p750
aS'a[1225]'
p751
aS'a[162]'
p752
aS'a[5748]'
p753
aS'a[3918]'
p754
aS'a[2902]'
p755
aS'a[506]'
p756
aS'a[3259]'
p757
aS'a[536]'
p758
aS'a[5559]'
p759
aS'a[4704]'
p760
aS'a[806]'
p761
aS'a[96]'
p762
aS'a[445]'
p763
aS'a[2909]'
p764
aS'a[536]'
p765
aS'a[491]'
p766
aS'a[714]'
p767
aS'a[5036]'
p768
aS'a[9053]'
p769
aS'a[860]'
p770
aS'a[3338]'
p771
aS'a[7515]'
p772
aS'a[7837]'
p773
aS'a[1506]'
p774
aS'a[206]'
p775
aS'a[3868]'
p776
aS'a[536]'
p777
aS'a[96]'
p778
aS'a[441]'
p779
aS'a[5525]'
p780
aS'a[7264]'
p781
aS'a[842]'
p782
aS'a[9115]'
p783
aS'a[7039]'
p784
aS'a[4056]'
p785
aS'a[223]'
p786
aS'a[7264]'
p787
aS'a[208]'
p788
aS'a[9225]'
p789
aS'a[7998]'
p790
aS'a[1254]'
p791
aS'a[4156]'
p792
aS'a[817]'
p793
aS'a[566]'
p794
aS'a[5610]'
p795
aS'a[536]'
p796
aS'a[7660]'
p797
aS'a[1900]'
p798
aS'a[382]'
p799
aS'a[4087]'
p800
aS'a[5188]'
p801
aS'a[897]'
p802
aS'a[32]'
p803
aS'a[1963]'
p804
aS'a[2511]'
p805
aS'a[1048]'
p806
aS'a[3918]'
p807
aS'a[5610]'
p808
aS'a[842]'
p809
aS'a[2802]'
p810
aS'a[8917]'
p811
aS'a[7351]'
p812
aS'a[3005]'
p813
aS'a[206]'
p814
aS'a[860]'
p815
aS'a[842]'
p816
aS'a[244]'
p817
aS'a[536]'
p818
aS'a[620]'
p819
aS'a[2135]'
p820
aS'a[4195]'
p821
aS'a[864]'
p822
aS'a[4056]'
p823
aS'a[4056]'
p824
aS'a[3192]'
p825
aS'a[1756]'
p826
aS'a[2549]'
p827
aS'a[506]'
p828
aS'a[897]'
p829
aS'a[9219]'
p830
aS'a[842]'
p831
aS'a[566]'
p832
aS'a[1010]'
p833
aS'a[52]'
p834
aS'a[121]'
p835
aS'a[2892]'
p836
aS'a[4163]'
p837
aS'a[3436]'
p838
aS'a[7767]'
p839
aS'a[3153]'
p840
aS'a[1056]'
p841
aS'a[1032]'
p842
aS'a[1693]'
p843
aS'a[5443]'
p844
aS'a[6]'
p845
aS'a[755]'
p846
aS'a[942]'
p847
aS'a[96]'
p848
aS'a[1159]'
p849
aS'a[5610]'
p850
aS'a[9172]'
p851
aS'a[8445]'
p852
aS'a[6]'
p853
aS'a[1441]'
p854
aS'a[5298]'
p855
aS'a[223]'
p856
aS'a[8461]'
p857
aS'a[1866]'
p858
aS'a[3255]'
p859
aS'a[7274]'
p860
aS'a[4730]'
p861
aS'a[162]'
p862
aS'a[4440]'
p863
aS'a[3156]'
p864
aS'a[7980]'
p865
aS'a[162]'
p866
aS'a[714]'
p867
aS'a[8889]'
p868
aS'a[3832]'
p869
aS'a[851]'
p870
aS'a[208]'
p871
aS'a[3685]'
p872
aS'a[206]'
p873
aS'a[755]'
p874
aS'a[506]'
p875
aS'a[506]'
p876
aS'a[566]'
p877
aS'a[2568]'
p878
aS'a[5152]'
p879
aS'a[2612]'
p880
aS'a[817]'
p881
aS'a[399]'
p882
aS'a[1564]'
p883
aS'a[5543]'
p884
aS'a[6965]'
p885
aS'a[5089]'
p886
aS'a[4682]'
p887
aS'a[3868]'
p888
aS'a[320]'
p889
aS'a[1506]'
p890
aS'a[5292]'
p891
aS'a[0]'
p892
aS'a[583]'
p893
aS'a[0]'
p894
aS'a[7564]'
p895
aS'a[2726]'
p896
aS'a[1517]'
p897
aS'a[7561]'
p898
aS'a[445]'
p899
aS'a[4151]'
p900
aS'a[5610]'
p901
aS'a[8915]'
p902
aS'a[2006]'
p903
aS'a[3273]'
p904
aS'a[399]'
p905
aS'a[875]'
p906
aS'a[580]'
p907
aS'a[4822]'
p908
aS'a[4822]'
p909
aS'a[2355]'
p910
aS'a[2192]'
p911
aS'a[804]'
p912
aS'a[1333]'
p913
aS'a[2635]'
p914
aS'a[382]'
p915
aS'a[4289]'
p916
aS'a[696]'
p917
aS'a[1693]'
p918
aS'a[5290]'
p919
aS'a[4151]'
p920
aS'a[3533]'
p921
aS'a[1676]'
p922
aS'a[7387]'
p923
aS'a[7175]'
p924
aS'a[566]'
p925
aS'a[5610]'
p926
aS'a[491]'
p927
aS'a[170]'
p928
aS'a[4051]'
p929
aS'a[1326]'
p930
aS'a[1159]'
p931
aS'a[1506]'
p932
aS'a[32]'
p933
aS'a[5292]'
p934
aS'a[6947]'
p935
aS'a[5637]'
p936
aS'a[1612]'
p937
aS'a[1919]'
p938
aS'a[582]'
p939
aS'a[5238]'
p940
aS'a[4056]'
p941
aS'a[1676]'
p942
aS'a[2032]'
p943
aS'a[1756]'
p944
aS'a[3602]'
p945
aS'a[5089]'
p946
aS'a[105]'
p947
aS'a[1048]'
p948
aS'a[1506]'
p949
aS'a[4273]'
p950
aS'a[170]'
p951
aS'a[194]'
p952
aS'a[7808]'
p953
aS'a[9194]'
p954
aS'a[7614]'
p955
aS'a[8311]'
p956
aS'a[7104]'
p957
aS'a[123]'
p958
aS'a[5585]'
p959
aS'a[880]'
p960
aS'a[1966]'
p961
aS'a[3369]'
p962
aS'a[2152]'
p963
aS'a[538]'
p964
aS'a[2612]'
p965
aS'a[202]'
p966
aS'a[8440]'
p967
aS'a[4151]'
p968
aS'a[715]'
p969
aS'a[7254]'
p970
aS'a[382]'
p971
aS'a[1631]'
p972
aS'a[4471]'
p973
aS'a[5113]'
p974
aS'a[193]'
p975
aS'a[9134]'
p976
aS'a[7180]'
p977
aS'a[3925]'
p978
aS'a[1506]'
p979
aS'a[8356]'
p980
aS'a[4265]'
p981
aS'a[7264]'
p982
aS'a[6004]'
p983
aS'a[1808]'
p984
aS'a[3525]'
p985
aS'a[5290]'
p986
aS'a[5411]'
p987
aS'a[5371]'
p988
aS'a[2756]'
p989
aS'a[5750]'
p990
aS'a[7452]'
p991
aS'a[1580]'
p992
aS'a[5103]'
p993
aS'a[595]'
p994
aS'a[1506]'
p995
aS'a[2793]'
p996
aS'a[984]'
p997
aS'a[3020]'
p998
aS'a[4827]'
p999
aS'a[897]'
p1000
aS'a[3623]'
p1001
aS'a[875]'
p1002
aS'a[6189]'
p1003
aS'a[842]'
p1004
aS'a[880]'
p1005
aS'a[2793]'
p1006
aS'a[7242]'
p1007
aS'a[4718]'
p1008
aS'a[5290]'
p1009
aS'a[3869]'
p1010
aS'a[223]'
p1011
aS'a[2573]'
p1012
aS'a[790]'
p1013
aS'a[1612]'
p1014
aS'a[842]'
p1015
aS'a[2618]'
p1016
aS'a[5024]'
p1017
aS'a[121]'
p1018
aS'a[206]'
p1019
aS'a[8596]'
p1020
aS'a[6413]'
p1021
aS'a[7978]'
p1022
aS'a[0]'
p1023
aS'a[506]'
p1024
aS'a[8255]'
p1025
aS'a[7756]'
p1026
aS'a[5017]'
p1027
aS'a[3868]'
p1028
aS'a[755]'
p1029
aS'a[52]'
p1030
aS'a[3227]'
p1031
aS'a[206]'
p1032
aS'a[3289]'
p1033
aS'a[1564]'
p1034
aS'a[4134]'
p1035
aS'a[8731]'
p1036
aS'a[4877]'
p1037
aS'a[4048]'
p1038
aS'a[1171]'
p1039
aS'a[1506]'
p1040
aS'a[8515]'
p1041
aS'a[538]'
p1042
aS'a[3869]'
p1043
aS'a[8624]'
p1044
aS'a[3265]'
p1045
aS'a[7529]'
p1046
aS'a[5290]'
p1047
aS'a[441]'
p1048
aS'a[1676]'
p1049
aS'a[1904]'
p1050
aS'a[1427]'
p1051
aS'a[5709]'
p1052
aS'a[595]'
p1053
aS'a[244]'
p1054
aS'a[3005]'
p1055
aS'a[2372]'
p1056
aS'a[491]'
p1057
aS'a[2842]'
p1058
aS'a[1612]'
p1059
aS'a[194]'
p1060
aS'a[489]'
p1061
aS'a[595]'
p1062
aS'a[3918]'
p1063
aS'a[890]'
p1064
aS'a[121]'
p1065
aS'a[280]'
p1066
aS'a[6400]'
p1067
aS'a[8626]'
p1068
aS'a[7794]'
p1069
aS'a[206]'
p1070
aS'a[7726]'
p1071
aS'a[52]'
p1072
aS'a[538]'
p1073
aS'a[2006]'
p1074
aS'a[8790]'
p1075
aS'a[966]'
p1076
aS'a[5373]'
p1077
aS'a[206]'
p1078
aS'a[7430]'
p1079
aS'a[5267]'
p1080
aS'a[0]'
p1081
aS'a[399]'
p1082
aS'a[5759]'
p1083
aS'a[3754]'
p1084
aS'a[5864]'
p1085
aS'a[5817]'
p1086
aS'a[194]'
p1087
aS'a[8448]'
p1088
aS'a[141]'
p1089
aS'a[7245]'
p1090
aS'a[5846]'
p1091
aS'a[7071]'
p1092
aS'a[208]'
p1093
aS'a[2222]'
p1094
aS'a[5226]'
p1095
aS'a[925]'
p1096
aS'a[580]'
p1097
aS'a[121]'
p1098
aS'a[406]'
p1099
aS'a[0]'
p1100
aS'a[7434]'
p1101
aS'a[106]'
p1102
aS'a[2410]'
p1103
aS'a[728]'
p1104
aS'a[1628]'
p1105
aS'a[441]'
p1106
aS'a[441]'
p1107
aS'a[1866]'
p1108
aS'a[925]'
p1109
aS'a[7567]'
p1110
aS'a[566]'
p1111
aS'a[5813]'
p1112
aS'a[8174]'
p1113
aS'a[620]'
p1114
aS'a[277]'
p1115
aS'a[8896]'
p1116
aS'a[566]'
p1117
aS'a[7680]'
p1118
aS'a[1676]'
p1119
aS'a[7264]'
p1120
aS'a[790]'
p1121
aS'a[7003]'
p1122
aS'a[536]'
p1123
aS'a[1370]'
p1124
aS'a[7103]'
p1125
aS'a[206]'
p1126
aS'a[4056]'
p1127
aS'a[1841]'
p1128
aS'a[6455]'
p1129
aS'a[9101]'
p1130
aS'a[9085]'
p1131
aS'a[1056]'
p1132
aS'a[421]'
p1133
aS'a[2374]'
p1134
aS'a[5402]'
p1135
aS'a[4486]'
p1136
aS'a[6738]'
p1137
aS'a[1262]'
p1138
aS'a[4289]'
p1139
aS'a[196]'
p1140
aS'a[123]'
p1141
aS'a[2511]'
p1142
aS'a[105]'
p1143
aS'a[924]'
p1144
aS'a[1786]'
p1145
aS'a[8686]'
p1146
aS'a[5610]'
p1147
aS'a[0]'
p1148
aS'a[5876]'
p1149
aS'a[2793]'
p1150
aS'a[4593]'
p1151
aS'a[3300]'
p1152
aS'a[1048]'
p1153
aS'a[4415]'
p1154
aS'a[1056]'
p1155
aS'a[5569]'
p1156
aS'a[2793]'
p1157
aS'a[202]'
p1158
aS'a[680]'
p1159
aS'a[2410]'
p1160
aS'a[714]'
p1161
aS'a[7958]'
p1162
aS'a[2433]'
p1163
aS'a[3633]'
p1164
aS'a[141]'
p1165
aS'a[6]'
p1166
aS'a[5373]'
p1167
aS'a[7998]'
p1168
aS'a[875]'
p1169
aS'a[162]'
p1170
aS'a[1676]'
p1171
aS'a[8364]'
p1172
aS'a[1676]'
p1173
aS'a[2164]'
p1174
aS'a[5342]'
p1175
aS'a[714]'
p1176
aS'a[2374]'
p1177
aS'a[1889]'
p1178
aS'a[1014]'
p1179
aS'a[5755]'
p1180
aS'a[1063]'
p1181
aS'a[1056]'
p1182
aS'a[5419]'
p1183
aS'a[7044]'
p1184
aS'a[2006]'
p1185
aS'a[162]'
p1186
aS'a[4151]'
p1187
aS'a[1159]'
p1188
aS'a[8312]'
p1189
aS'a[5292]'
p1190
aS'a[52]'
p1191
aS'a[3170]'
p1192
aS'a[1056]'
p1193
aS'a[7051]'
p1194
aS'a[1490]'
p1195
aS'a[3005]'
p1196
aS'a[382]'
p1197
aS'a[6373]'
p1198
aS'a[4151]'
p1199
aS'a[5101]'
p1200
aS'a[4559]'
p1201
aS'a[5682]'
p1202
aS'a[1889]'
p1203
aS'a[1048]'
p1204
aS'a[3192]'
p1205
aS'a[842]'
p1206
aS'a[714]'
p1207
aS'a[2993]'
p1208
aS'a[3749]'
p1209
aS'a[5373]'
p1210
aS'a[2734]'
p1211
aS'a[2006]'
p1212
aS'a[2620]'
p1213
aS'a[0]'
p1214
aS'a[7978]'
p1215
aS'a[6]'
p1216
aS'a[194]'
p1217
aS'a[3289]'
p1218
aS'a[8502]'
p1219
aS'a[6]'
p1220
aS'a[7998]'
p1221
aS'a[790]'
p1222
aS'a[2549]'
p1223
aS'a[3222]'
p1224
aS'a[1866]'
p1225
aS'a[4666]'
p1226
aS'a[2469]'
p1227
aS'a[2374]'
p1228
aS'a[1612]'
p1229
aS'a[7757]'
p1230
aS'a[1621]'
p1231
aS'a[1653]'
p1232
aS'a[105]'
p1233
aS'a[3230]'
p1234
aS'a[214]'
p1235
aS'a[3430]'
p1236
aS'a[4266]'
p1237
aS'a[4289]'
p1238
aS'a[875]'
p1239
aS'a[5985]'
p1240
aS'a[1441]'
p1241
aS'a[817]'
p1242
aS'a[2612]'
p1243
aS'a[4291]'
p1244
aS'a[4861]'
p1245
aS'a[2790]'
p1246
aS'a[1048]'
p1247
aS'a[2384]'
p1248
aS'a[491]'
p1249
aS'a[244]'
p1250
aS'a[3540]'
p1251
aS'a[7998]'
p1252
aS'a[4508]'
p1253
aS'a[7904]'
p1254
aS'a[851]'
p1255
aS'a[2588]'
p1256
aS'a[1017]'
p1257
aS'a[1023]'
p1258
aS'a[1478]'
p1259
aS'a[0]'
p1260
aS'a[6463]'
p1261
aS'a[26]'
p1262
aS'a[8736]'
p1263
aS'a[5701]'
p1264
aS'a[7]'
p1265
aS'a[1866]'
p1266
aS'a[1676]'
p1267
aS'a[4880]'
p1268
aS'a[6]'
p1269
aS'a[806]'
p1270
aS'a[7931]'
p1271
aS'a[2517]'
p1272
aS'a[506]'
p1273
aS'a[6992]'
p1274
aS'a[461]'
p1275
aS'a[162]'
p1276
aS'a[445]'
p1277
aS'a[105]'
p1278
aS'a[3623]'
p1279
aS'a[1441]'
p1280
aS'a[790]'
p1281
aS'a[714]'
p1282
aS'a[2374]'
p1283
aS'a[851]'
p1284
aS'a[7435]'
p1285
aS'a[52]'
p1286
aS'a[3725]'
p1287
aS'a[4822]'
p1288
aS'a[202]'
p1289
aS'a[5024]'
p1290
aS'a[8296]'
p1291
aS'a[851]'
p1292
aS'a[198]'
p1293
aS'a[2710]'
p1294
aS'a[0]'
p1295
aS'a[5326]'
p1296
aS'a[4151]'
p1297
aS'a[2404]'
p1298
aS'a[208]'
p1299
aS'a[5101]'
p1300
aS'a[6853]'
p1301
aS'a[3488]'
p1302
aS'a[8525]'
p1303
aS'a[1427]'
p1304
aS'a[206]'
p1305
aS'a[8228]'
p1306
aS'a[99]'
p1307
aS'a[5290]'
p1308
aS'a[842]'
p1309
aS'a[897]'
p1310
aS'a[223]'
p1311
aS'a[442]'
p1312
aS'a[189]'
p1313
aS'a[1492]'
p1314
aS'a[6510]'
p1315
aS'a[121]'
p1316
aS'a[277]'
p1317
aS'a[592]'
p1318
aS'a[6912]'
p1319
aS'a[1048]'
p1320
aS'a[2991]'
p1321
aS'a[1564]'
p1322
aS'a[6454]'
p1323
aS'a[506]'
p1324
aS'a[3415]'
p1325
aS'a[5058]'
p1326
aS'a[2612]'
p1327
aS'a[4289]'
p1328
aS'a[6756]'
p1329
aS'a[743]'
p1330
aS'a[1568]'
p1331
aS'a[595]'
p1332
aS'a[5373]'
p1333
aS'a[121]'
p1334
aS'a[162]'
p1335
aS'a[244]'
p1336
aS'a[2793]'
p1337
aS'a[202]'
p1338
aS'a[105]'
p1339
aS'a[2006]'
p1340
aS'a[455]'
p1341
aS'a[1889]'
p1342
aS'a[3279]'
p1343
aS'a[5898]'
p1344
aS'a[185]'
p1345
aS'a[7087]'
p1346
aS'a[105]'
p1347
aS'a[984]'
p1348
aS'a[747]'
p1349
aS'a[6142]'
p1350
aS'a[1999]'
p1351
aS'a[7978]'
p1352
aS'a[67]'
p1353
aS'a[890]'
p1354
aS'a[170]'
p1355
aS'a[5584]'
p1356
aS'a[4182]'
p1357
aS'a[2492]'
p1358
aS'a[6450]'
p1359
aS'a[130]'
p1360
aS'a[6784]'
p1361
aS'a[595]'
p1362
aS'a[491]'
p1363
aS'a[7264]'
p1364
aS'a[2041]'
p1365
aS'a[5373]'
p1366
aS'a[3000]'
p1367
aS'a[1676]'
p1368
aS'a[2612]'
p1369
aS'a[714]'
p1370
aS'a[2889]'
p1371
aS'a[3398]'
p1372
aS'a[0]'
p1373
aS'a[3188]'
p1374
aS'a[897]'
p1375
aS'a[3593]'
p1376
aS'a[194]'
p1377
aS'a[5930]'
p1378
aS'a[1790]'
p1379
aS'a[1693]'
p1380
aS'a[645]'
p1381
aS'a[8602]'
p1382
aS'a[6869]'
p1383
aS'a[9141]'
p1384
aS'a[0]'
p1385
aS'a[8410]'
p1386
aS'a[2742]'
p1387
aS'a[3192]'
p1388
aS'a[4329]'
p1389
aS'a[714]'
p1390
aS'a[3641]'
p1391
aS'a[52]'
p1392
aS'a[316]'
p1393
aS'a[4074]'
p1394
aS'a[0]'
p1395
aS'a[8919]'
p1396
aS'a[3407]'
p1397
aS'a[5748]'
p1398
aS'a[3650]'
p1399
aS'a[1471]'
p1400
aS'a[1612]'
p1401
aS'a[6741]'
p1402
aS'a[7852]'
p1403
aS'a[8379]'
p1404
aS'a[620]'
p1405
aS'a[1056]'
p1406
aS'a[1005]'
p1407
aS'a[170]'
p1408
aS'a[0]'
p1409
aS'a[1434]'
p1410
aS'a[121]'
p1411
aS'a[5861]'
p1412
aS'a[1612]'
p1413
aS'a[2825]'
p1414
aS'a[121]'
p1415
aS'a[7092]'
p1416
aS'a[4624]'
p1417
aS'a[162]'
p1418
aS'a[714]'
p1419
aS'a[4818]'
p1420
aS'a[536]'
p1421
aS'a[4056]'
p1422
aS'a[5693]'
p1423
aS'a[491]'
p1424
aS'a[536]'
p1425
aS'a[1676]'
p1426
aS'a[2017]'
p1427
aS'a[4054]'
p1428
aS'a[223]'
p1429
aS'a[123]'
p1430
aS'a[1099]'
p1431
aS'a[5101]'
p1432
aS'a[3192]'
p1433
aS'a[491]'
p1434
aS'a[1564]'
p1435
aS'a[4289]'
p1436
aS'a[170]'
p1437
aS'a[890]'
p1438
aS'a[897]'
p1439
aS'a[897]'
p1440
aS'a[506]'
p1441
aS'a[6170]'
p1442
aS'a[7534]'
p1443
aS'a[1427]'
p1444
aS'a[170]'
p1445
aS'a[506]'
p1446
aS'a[890]'
p1447
aS'a[5416]'
p1448
aS'a[3168]'
p1449
aS'a[790]'
p1450
aS'a[463]'
p1451
aS'a[5373]'
p1452
aS'a[1693]'
p1453
aS'a[920]'
p1454
aS'a[3687]'
p1455
aS'a[491]'
p1456
aS'a[4678]'
p1457
aS'a[892]'
p1458
aS'a[714]'
p1459
aS'a[1676]'
p1460
aS'a[9185]'
p1461
aS'a[696]'
p1462
aS'a[842]'
p1463
aS'a[1885]'
p1464
aS'a[7897]'
p1465
aS'a[8901]'
p1466
aS'a[842]'
p1467
aS'a[8076]'
p1468
aS'a[194]'
p1469
aS'a[538]'
p1470
aS'a[1159]'
p1471
aS'a[5668]'
p1472
aS'a[626]'
p1473
aS'a[8421]'
p1474
aS'a[7572]'
p1475
aS'a[105]'
p1476
aS'a[4056]'
p1477
aS'a[3005]'
p1478
aS'a[1849]'
p1479
aS'a[3262]'
p1480
aS'a[8381]'
p1481
aS'a[4289]'
p1482
aS'a[1612]'
p1483
aS'a[3228]'
p1484
aS'a[5292]'
p1485
aS'a[5610]'
p1486
aS'a[842]'
p1487
aS'a[851]'
p1488
aS'a[162]'
p1489
aS'a[1421]'
p1490
aS'a[121]'
p1491
aS'a[162]'
p1492
aS'a[7496]'
p1493
aS'a[806]'
p1494
aS'a[244]'
p1495
aS'a[2111]'
p1496
aS'a[755]'
p1497
aS'a[7492]'
p1498
aS'a[1259]'
p1499
aS'a[264]'
p1500
aS'a[32]'
p1501
aS'a[4603]'
p1502
aS'a[4822]'
p1503
aS'a[560]'
p1504
aS'a[2247]'
p1505
aS'a[8667]'
p1506
aS'a[875]'
p1507
aS'a[5442]'
p1508
aS'a[4822]'
p1509
aS'a[2356]'
p1510
aS'a[223]'
p1511
aS'a[3338]'
p1512
aS'a[3897]'
p1513
aS'a[4087]'
p1514
aS'a[755]'
p1515
aS'a[7978]'
p1516
aS'a[4151]'
p1517
aS'a[3192]'
p1518
aS'a[0]'
p1519
aS'a[5373]'
p1520
aS'a[743]'
p1521
aS'a[445]'
p1522
aS'a[1624]'
p1523
aS'a[1048]'
p1524
aS'a[8245]'
p1525
aS'a[536]'
p1526
aS'a[5292]'
p1527
aS'a[1056]'
p1528
aS'a[1225]'
p1529
aS'a[5440]'
p1530
aS'a[5009]'
p1531
aS'a[1164]'
p1532
aS'a[1676]'
p1533
aS'a[3377]'
p1534
aS'a[890]'
p1535
aS'a[5101]'
p1536
aS'a[536]'
p1537
aS'a[7680]'
p1538
aS'a[5101]'
p1539
aS'a[842]'
p1540
aS'a[141]'
p1541
aS'a[8656]'
p1542
aS'a[580]'
p1543
aS'a[995]'
p1544
aS'a[7161]'
p1545
aS'a[714]'
p1546
aS'a[4427]'
p1547
aS'a[5120]'
p1548
aS'a[9090]'
p1549
aS'a[3425]'
p1550
aS'a[1194]'
p1551
aS'a[2644]'
p1552
aS'a[202]'
p1553
aS'a[2736]'
p1554
aS'a[1756]'
p1555
aS'a[2701]'
p1556
aS'a[1693]'
p1557
aS'a[714]'
p1558
aS'a[7728]'
p1559
aS'a[3595]'
p1560
aS'a[1693]'
p1561
aS'a[3918]'
p1562
aS'a[3922]'
p1563
aS'a[4087]'
p1564
aS'a[1612]'
p1565
aS'a[1453]'
p1566
aS'a[9069]'
p1567
aS'a[1427]'
p1568
aS'a[223]'
p1569
aS'a[277]'
p1570
aS'a[2612]'
p1571
aS'a[714]'
p1572
aS'a[580]'
p1573
aS'a[4162]'
p1574
aS'a[4854]'
p1575
aS'a[7264]'
p1576
aS'a[3010]'
p1577
aS'a[8338]'
p1578
aS'a[2875]'
p1579
aS'a[194]'
p1580
aS'a[6653]'
p1581
aS'a[755]'
p1582
aS'a[5816]'
p1583
aS'a[817]'
p1584
aS'a[8584]'
p1585
aS'a[538]'
p1586
aS'a[6399]'
p1587
aS'a[743]'
p1588
aS'a[2903]'
p1589
aS'a[1056]'
p1590
aS'a[6224]'
p1591
aS'a[2869]'
p1592
aS'a[2374]'
p1593
aS'a[5013]'
p1594
aS'a[4686]'
p1595
aS'a[2781]'
p1596
aS'a[162]'
p1597
aS'a[8941]'
p1598
aS'a[3162]'
p1599
aS'a[8348]'
p1600
aS'a[880]'
p1601
aS'a[5610]'
p1602
aS'a[2549]'
p1603
aS'a[223]'
p1604
aS'a[3751]'
p1605
aS'a[2374]'
p1606
aS'a[441]'
p1607
aS'a[1624]'
p1608
aS'a[194]'
p1609
aS'a[441]'
p1610
aS'a[5373]'
p1611
aS'a[5101]'
p1612
aS'a[6047]'
p1613
aS'a[714]'
p1614
aS'a[5035]'
p1615
aS'a[897]'
p1616
aS'a[52]'
p1617
aS'a[5763]'
p1618
aS'a[1612]'
p1619
aS'a[7264]'
p1620
aS'a[8820]'
p1621
aS'a[8522]'
p1622
aS'a[3005]'
p1623
aS'a[3476]'
p1624
aS'a[4639]'
p1625
aS'a[5278]'
p1626
aS'a[1641]'
p1627
aS'a[7923]'
p1628
aS'a[202]'
p1629
aS'a[53]'
p1630
aS'a[7316]'
p1631
aS'a[244]'
p1632
aS'a[5690]'
p1633
aS'a[445]'
p1634
aS'a[8898]'
p1635
aS'a[7736]'
p1636
aS'a[7190]'
p1637
aS'a[3009]'
p1638
aS'a[2374]'
p1639
aS'a[3005]'
p1640
aS'a[5622]'
p1641
aS'a[202]'
p1642
aS'a[2549]'
p1643
aS'a[2551]'
p1644
aS'a[5373]'
p1645
aS'a[7852]'
p1646
aS'a[714]'
p1647
aS'a[1577]'
p1648
aS'a[7911]'
p1649
aS'a[7998]'
p1650
aS'a[105]'
p1651
aS'a[4040]'
p1652
aS'a[1320]'
p1653
aS'a[8968]'
p1654
aS'a[206]'
p1655
aS'a[1225]'
p1656
aS'a[7493]'
p1657
aS'a[5651]'
p1658
aS'a[7827]'
p1659
aS'a[3852]'
p1660
aS'a[536]'
p1661
aS'a[4430]'
p1662
aS'a[538]'
p1663
aS'a[7294]'
p1664
aS'a[3480]'
p1665
aS'a[714]'
p1666
aS'a[2103]'
p1667
aS'a[6959]'
p1668
aS'a[8847]'
p1669
aS'a[7291]'
p1670
aS'a[4822]'
p1671
aS'a[2368]'
p1672
aS'a[4943]'
p1673
aS'a[5497]'
p1674
aS'a[6855]'
p1675
aS'a[52]'
p1676
aS'a[153]'
p1677
aS'a[5292]'
p1678
aS'a[5932]'
p1679
aS'a[1756]'
p1680
aS'a[8244]'
p1681
aS'a[8936]'
p1682
aS'a[3918]'
p1683
aS'a[1756]'
p1684
aS'a[536]'
p1685
aS'a[0]'
p1686
aS'a[714]'
p1687
aS'a[842]'
p1688
aS'a[1056]'
p1689
aS'a[3683]'
p1690
aS'a[5963]'
p1691
aS'a[206]'
p1692
aS'a[244]'
p1693
aS'a[714]'
p1694
aS'a[714]'
p1695
aS'a[1179]'
p1696
aS'a[3956]'
p1697
aS'a[817]'
p1698
aS'a[2053]'
p1699
aS'a[7660]'
p1700
aS'a[244]'
p1701
aS'a[5817]'
p1702
aS'a[890]'
p1703
aS'a[208]'
p1704
aS'a[2301]'
p1705
aS'a[842]'
p1706
aS'a[1300]'
p1707
aS'a[1441]'
p1708
aS'a[2549]'
p1709
aS'a[6247]'
p1710
aS'a[950]'
p1711
aS'a[6421]'
p1712
aS'a[6484]'
p1713
aS'a[1056]'
p1714
aS'a[714]'
p1715
aS'a[743]'
p1716
aS'a[121]'
p1717
aS'a[5374]'
p1718
aS'a[2242]'
p1719
aS'a[121]'
p1720
aS'a[1262]'
p1721
aS'a[194]'
p1722
aS'a[1]'
p1723
aS'a[3162]'
p1724
aS'a[1624]'
p1725
aS'a[5748]'
p1726
aS'a[141]'
p1727
aS'a[854]'
p1728
aS'a[1380]'
p1729
aS'a[4635]'
p1730
aS'a[4822]'
p1731
aS'a[1564]'
p1732
aS'a[2561]'
p1733
aS'a[5748]'
p1734
aS'a[445]'
p1735
aS'a[6846]'
p1736
aS'a[194]'
p1737
aS'a[506]'
p1738
aS'a[6605]'
p1739
aS'a[141]'
p1740
aS'a[536]'
p1741
aS'a[491]'
p1742
aS'a[6769]'
p1743
aS'a[5832]'
p1744
aS'a[0]'
p1745
aS'a[202]'
p1746
aS'a[4056]'
p1747
aS'a[1225]'
p1748
aS'a[7135]'
p1749
aS'a[3383]'
p1750
aS'a[3236]'
p1751
aS'a[858]'
p1752
aS'a[153]'
p1753
aS'a[714]'
p1754
aS'a[347]'
p1755
aS'a[2159]'
p1756
aS'a[5290]'
p1757
aS'a[8775]'
p1758
aS'a[536]'
p1759
aS'a[3005]'
p1760
aS'a[194]'
p1761
aS'a[4408]'
p1762
aS'a[153]'
p1763
aS'a[6232]'
p1764
aS'a[5132]'
p1765
aS'a[1159]'
p1766
aS'a[4964]'
p1767
aS'a[688]'
p1768
aS'a[7115]'
p1769
aS'a[2374]'
p1770
aS'a[206]'
p1771
aS'a[8722]'
p1772
aS'a[6]'
p1773
aS'a[2337]'
p1774
aS'a[4332]'
p1775
aS'a[2364]'
p1776
aS'a[1612]'
p1777
aS'a[536]'
p1778
aS'a[4471]'
p1779
aS'a[7527]'
p1780
aS'a[618]'
p1781
aS'a[2793]'
p1782
aS'a[3035]'
p1783
aS'a[3424]'
p1784
aS'a[96]'
p1785
aS'a[1262]'
p1786
aS'a[153]'
p1787
aS'a[7809]'
p1788
aS'a[1504]'
p1789
aS'a[5009]'
p1790
aS'a[202]'
p1791
aS'a[1048]'
p1792
aS'a[3053]'
p1793
aS'a[211]'
p1794
aS'a[3918]'
p1795
aS'a[317]'
p1796
aS'a[6264]'
p1797
aS'a[1050]'
p1798
aS'a[506]'
p1799
aS'a[52]'
p1800
aS'a[9029]'
p1801
aS'a[7252]'
p1802
aS'a[3570]'
p1803
aS'a[5305]'
p1804
aS'a[842]'
p1805
aS'a[3359]'
p1806
aS'a[977]'
p1807
aS'a[5373]'
p1808
aS'a[52]'
p1809
aS'a[7461]'
p1810
aS'a[6353]'
p1811
aS'a[2405]'
p1812
aS'a[897]'
p1813
aS'a[4557]'
p1814
aS'a[2395]'
p1815
aS'a[569]'
p1816
aS'a[208]'
p1817
aS'a[5130]'
p1818
aS'a[5859]'
p1819
aS'a[743]'
p1820
aS'a[3192]'
p1821
aS'a[1612]'
p1822
aS'a[8456]'
p1823
aS'a[2374]'
p1824
aS'a[3316]'
p1825
aS'a[1020]'
p1826
aS'a[743]'
p1827
aS'a[4268]'
p1828
aS'a[3050]'
p1829
aS'a[223]'
p1830
aS'a[7126]'
p1831
aS'a[4630]'
p1832
aS'a[223]'
p1833
aS'a[817]'
p1834
aS'a[7031]'
p1835
aS'a[1358]'
p1836
aS'a[1262]'
p1837
aS'a[2410]'
p1838
aS'a[3918]'
p1839
aS'a[170]'
p1840
aS'a[3192]'
p1841
aS'a[2793]'
p1842
aS'a[162]'
p1843
aS'a[0]'
p1844
aS'a[208]'
p1845
aS'a[96]'
p1846
aS'a[3162]'
p1847
aS'a[1676]'
p1848
aS'a[6080]'
p1849
aS'a[32]'
p1850
aS'a[1225]'
p1851
aS'a[9110]'
p1852
aS'a[445]'
p1853
aS'a[5373]'
p1854
aS'a[2788]'
p1855
aS'a[8611]'
p1856
aS'a[595]'
p1857
aS'a[8698]'
p1858
aS'a[141]'
p1859
aS'a[7296]'
p1860
aS'a[121]'
p1861
aS'a[3273]'
p1862
aS'a[5339]'
p1863
aS'a[202]'
p1864
aS'a[1693]'
p1865
aS'a[8161]'
p1866
aS'a[3445]'
p1867
aS'a[9067]'
p1868
aS'a[4845]'
p1869
aS'a[1056]'
p1870
aS'a[1474]'
p1871
aS'a[0]'
p1872
aS'a[8375]'
p1873
aS'a[123]'
p1874
aS'a[1866]'
p1875
aS'a[2549]'
p1876
aS'a[139]'
p1877
aS'a[1457]'
p1878
aS'a[6126]'
p1879
aS'a[67]'
p1880
aS'a[4039]'
p1881
aS'a[1624]'
p1882
aS'a[696]'
p1883
aS'a[2106]'
p1884
aS'a[687]'
p1885
aS'a[6939]'
p1886
aS'a[3875]'
p1887
aS'a[12]'
p1888
aS'a[123]'
p1889
aS'a[3170]'
p1890
aS'a[223]'
p1891
aS'a[1048]'
p1892
aS'a[3162]'
p1893
aS'a[1889]'
p1894
aS'a[4773]'
p1895
aS'a[32]'
p1896
aS'a[5056]'
p1897
aS'a[817]'
p1898
aS'a[595]'
p1899
aS'a[2171]'
p1900
aS'a[8963]'
p1901
aS'a[755]'
p1902
aS'a[4878]'
p1903
aS'a[595]'
p1904
aS'a[123]'
p1905
aS'a[4087]'
p1906
aS'a[536]'
p1907
aS'a[1056]'
p1908
aS'a[1441]'
p1909
aS'a[7264]'
p1910
aS'a[399]'
p1911
aS'a[6408]'
p1912
aS'a[441]'
p1913
aS'a[60]'
p1914
aS'a[3868]'
p1915
aS'a[1056]'
p1916
aS'a[1128]'
p1917
aS'a[696]'
p1918
aS'a[6016]'
p1919
aS'a[1612]'
p1920
aS'a[2094]'
p1921
aS'a[1572]'
p1922
aS'a[536]'
p1923
aS'a[1427]'
p1924
aS'a[4151]'
p1925
aS'a[566]'
p1926
aS'a[5290]'
p1927
aS'a[2766]'
p1928
aS'a[491]'
p1929
aS'a[851]'
p1930
aS'a[860]'
p1931
aS'a[6150]'
p1932
aS'a[1056]'
p1933
aS'a[6552]'
p1934
aS'a[6757]'
p1935
aS'a[4303]'
p1936
aS'a[890]'
p1937
aS'a[524]'
p1938
aS'a[2178]'
p1939
aS'a[4578]'
p1940
aS'a[3171]'
p1941
aS'a[370]'
p1942
aS'a[3162]'
p1943
aS'a[4173]'
p1944
aS'a[7590]'
p1945
aS'a[4485]'
p1946
aS'a[1612]'
p1947
aS'a[8123]'
p1948
aS'a[3555]'
p1949
aS'a[536]'
p1950
aS'a[4341]'
p1951
aS'a[9216]'
p1952
aS'a[7444]'
p1953
aS'a[9127]'
p1954
aS'a[141]'
p1955
aS'a[672]'
p1956
aS'a[714]'
p1957
aS'a[1866]'
p1958
aS'a[7677]'
p1959
aS'a[5290]'
p1960
aS'a[5640]'
p1961
aS'a[8388]'
p1962
aS'a[842]'
p1963
aS'a[4981]'
p1964
aS'a[8802]'
p1965
aS'a[2142]'
p1966
aS'a[7978]'
p1967
aS'a[755]'
p1968
aS'a[7924]'
p1969
aS'a[2410]'
p1970
aS'a[1649]'
p1971
aS'a[5101]'
p1972
aS'a[5090]'
p1973
aS'a[399]'
p1974
aS'a[121]'
p1975
aS'a[6995]'
p1976
aS'a[714]'
p1977
aS'a[1506]'
p1978
aS'a[2793]'
p1979
aS'a[3192]'
p1980
aS'a[7998]'
p1981
aS'a[689]'
p1982
aS'a[4567]'
p1983
aS'a[3592]'
p1984
aS'a[7701]'
p1985
aS'a[157]'
p1986
aS'a[743]'
p1987
aS'a[5432]'
p1988
aS'a[3677]'
p1989
aS'a[4822]'
p1990
aS'a[1233]'
p1991
aS'a[6734]'
p1992
aS'a[6429]'
p1993
aS'a[2793]'
p1994
aS'a[8921]'
p1995
aS'a[8096]'
p1996
aS'a[121]'
p1997
aS'a[8516]'
p1998
aS'a[2006]'
p1999
aS'a[162]'
p2000
aS'a[580]'
p2001
aS'a[5037]'
p2002
aS'a[7014]'
p2003
aS'a[880]'
p2004
aS'a[5367]'
p2005
aS'a[580]'
p2006
aS'a[7998]'
p2007
aS'a[496]'
p2008
aS'a[5578]'
p2009
aS'a[1612]'
p2010
aS'a[1756]'
p2011
aS'a[7189]'
p2012
aS'a[4087]'
p2013
aS'a[52]'
p2014
aS'a[3162]'
p2015
aS'a[8232]'
p2016
aS'a[7975]'
p2017
aS'a[3868]'
p2018
aS'a[1441]'
p2019
aS'a[1624]'
p2020
aS'a[4822]'
p2021
aS'a[4240]'
p2022
aS'a[1245]'
p2023
aS'a[8165]'
p2024
aS'a[3005]'
p2025
aS'a[206]'
p2026
aS'a[5748]'
p2027
aS'a[842]'
p2028
aS'a[842]'
p2029
aS'a[2370]'
p2030
aS'a[123]'
p2031
aS'a[8186]'
p2032
aS'a[8255]'
p2033
aS'a[122]'
p2034
aS'a[206]'
p2035
aS'a[681]'
p2036
aS'a[1756]'
p2037
aS'a[1335]'
p2038
aS'a[5674]'
p2039
aS'a[5748]'
p2040
aS'a[2234]'
p2041
aS'a[6386]'
p2042
aS'a[1225]'
p2043
aS'a[851]'
p2044
aS'a[3818]'
p2045
aS'a[6413]'
p2046
aS'a[5054]'
p2047
aS'a[4458]'
p2048
aS'a[6548]'
p2049
aS'a[714]'
p2050
aS'a[806]'
p2051
aS'a[1262]'
p2052
aS'a[2608]'
p2053
aS'a[170]'
p2054
aS'a[6626]'
p2055
aS'a[817]'
p2056
aS'a[196]'
p2057
aS'a[860]'
p2058
aS'a[7749]'
p2059
aS'a[5292]'
p2060
aS'a[8278]'
p2061
aS'a[9048]'
p2062
aS'a[3005]'
p2063
aS'a[1225]'
p2064
aS'a[1676]'
p2065
aS'a[2410]'
p2066
aS'a[8322]'
p2067
aS'a[1693]'
p2068
aS'a[2410]'
p2069
aS'a[7660]'
p2070
aS'a[2778]'
p2071
aS'a[5610]'
p2072
aS'a[2793]'
p2073
aS'a[2200]'
p2074
aS'a[7640]'
p2075
aS'a[5805]'
p2076
aS'a[897]'
p2077
aS'a[382]'
p2078
aS'a[8163]'
p2079
aS'a[67]'
p2080
aS'a[1676]'
p2081
aS'a[580]'
p2082
aS'a[3192]'
p2083
aS'a[52]'
p2084
aS'a[4289]'
p2085
aS'a[6957]'
p2086
aS'a[4070]'
p2087
aS'a[277]'
p2088
aS'a[208]'
p2089
aS'a[5290]'
p2090
aS'a[0]'
p2091
aS'a[6810]'
p2092
aS'a[4151]'
p2093
aS'a[1427]'
p2094
aS'a[5276]'
p2095
aS'a[8939]'
p2096
aS'a[67]'
p2097
aS'a[1612]'
p2098
aS'a[2611]'
p2099
aS'a[5799]'
p2100
aS'a[538]'
p2101
aS'a[7908]'
p2102
aS'a[6322]'
p2103
aS'a[8758]'
p2104
aS'a[2549]'
p2105
aS'a[5292]'
p2106
aS'a[790]'
p2107
aS'a[123]'
p2108
aS'a[8911]'
p2109
aS'a[8746]'
p2110
aS'a[3051]'
p2111
aS'a[538]'
p2112
aS'a[7842]'
p2113
aS'a[2298]'
p2114
aS'a[7327]'
p2115
aS'a[4289]'
p2116
aS'a[711]'
p2117
aS'a[3652]'
p2118
aS'a[714]'
p2119
aS'a[6395]'
p2120
aS'a[8307]'
p2121
aS'a[1693]'
p2122
aS'a[5663]'
p2123
aS'a[5530]'
p2124
aS'a[7384]'
p2125
aS'a[5282]'
p2126
aS'a[580]'
p2127
aS'a[450]'
p2128
aS'a[4083]'
p2129
aS'a[3868]'
p2130
aS'a[8796]'
p2131
aS'a[32]'
p2132
aS'a[52]'
p2133
aS'a[223]'
p2134
aS'a[5151]'
p2135
aS'a[1889]'
p2136
aS'a[681]'
p2137
aS'a[8627]'
p2138
aS'a[194]'
p2139
aS'a[0]'
p2140
aS'a[880]'
p2141
aS'a[8208]'
p2142
aS'a[2361]'
p2143
aS'a[3005]'
p2144
aS'a[6103]'
p2145
aS'a[4151]'
p2146
aS'a[890]'
p2147
aS'a[1139]'
p2148
aS'a[194]'
p2149
aS'a[743]'
p2150
aS'a[1159]'
p2151
aS'a[2327]'
p2152
aS'a[4289]'
p2153
aS'a[1676]'
p2154
aS'a[8746]'
p2155
aS'a[580]'
p2156
aS'a[6914]'
p2157
aS'a[445]'
p2158
aS'a[5748]'
p2159
aS'a[3709]'
p2160
aS'a[2542]'
p2161
aS'a[7906]'
p2162
aS'a[426]'
p2163
aS'a[842]'
p2164
aS'a[5694]'
p2165
aS'a[536]'
p2166
aS'a[491]'
p2167
aS'a[538]'
p2168
aS'a[194]'
p2169
aS'a[4670]'
p2170
aS'a[194]'
p2171
aS'a[194]'
p2172
aS'a[2006]'
p2173
aS'a[450]'
p2174
aS'a[4822]'
p2175
aS'a[842]'
p2176
aS'a[1427]'
p2177
aS'a[1899]'
p2178
aS'a[2084]'
p2179
aS'a[5154]'
p2180
aS'a[842]'
p2181
aS'a[1262]'
p2182
aS'a[1097]'
p2183
aS'a[714]'
p2184
aS'a[290]'
p2185
aS'a[2390]'
p2186
aS'a[4313]'
p2187
aS'a[4859]'
p2188
aS'a[6994]'
p2189
aS'a[7576]'
p2190
aS'a[536]'
p2191
aS'a[7979]'
p2192
aS'a[7392]'
p2193
aS'a[202]'
p2194
aS'a[4266]'
p2195
aS'a[1225]'
p2196
aS'a[8115]'
p2197
aS'a[1427]'
p2198
aS'a[2546]'
p2199
aS'a[5610]'
p2200
aS'a[6208]'
p2201
aS'a[1506]'
p2202
aS'a[3131]'
p2203
aS'a[4612]'
p2204
aS'a[7264]'
p2205
aS'a[1159]'
p2206
aS'a[2006]'
p2207
aS'a[7264]'
p2208
aS'a[5373]'
p2209
aS'a[806]'
p2210
aS'a[3918]'
p2211
aS'a[4048]'
p2212
aS'a[6216]'
p2213
aS'a[8448]'
p2214
aS'a[696]'
p2215
aS'a[3807]'
p2216
aS'a[1693]'
p2217
aS'a[875]'
p2218
aS'a[67]'
p2219
aS'a[6503]'
p2220
aS'a[851]'
p2221
aS'a[842]'
p2222
aS'a[7978]'
p2223
aS'a[1564]'
p2224
aS'a[141]'
p2225
aS'a[7903]'
p2226
aS'a[1048]'
p2227
aS'a[714]'
p2228
aS'a[441]'
p2229
aS'a[8772]'
p2230
aS'a[2090]'
p2231
aS'a[6424]'
p2232
aS'a[7978]'
p2233
aS'a[96]'
p2234
aS'a[624]'
p2235
aS'a[8807]'
p2236
aS'a[4302]'
p2237
aS'a[32]'
p2238
aS'a[7987]'
p2239
aS'a[1693]'
p2240
aS'a[3005]'
p2241
aS'a[8138]'
p2242
aS'a[5302]'
p2243
aS'a[4151]'
p2244
aS'a[2861]'
p2245
aS'a[6321]'
p2246
aS'a[1676]'
p2247
aS'a[277]'
p2248
aS'a[123]'
p2249
aS'a[3050]'
p2250
aS'a[206]'
p2251
aS'a[8542]'
p2252
aS'a[7998]'
p2253
aS'a[7978]'
p2254
aS'a[206]'
p2255
aS'a[714]'
p2256
aS'a[1441]'
p2257
aS'a[2644]'
p2258
aS'a[755]'
p2259
aS'a[506]'
p2260
aS'a[6605]'
p2261
aS'a[817]'
p2262
aS'a[5101]'
p2263
aS'a[1428]'
p2264
aS'a[5795]'
p2265
aS'a[3192]'
p2266
aS'a[2549]'
p2267
aS'a[8441]'
p2268
aS'a[1869]'
p2269
aS'a[3143]'
p2270
aS'a[170]'
p2271
aS'a[399]'
p2272
aS'a[766]'
p2273
aS'a[7998]'
p2274
aS'a[7012]'
p2275
aS'a[580]'
p2276
aS'a[806]'
p2277
aS'a[1693]'
p2278
aS'a[527]'
p2279
aS'a[3918]'
p2280
aS'a[67]'
p2281
aS'a[3868]'
p2282
aS'a[5924]'
p2283
aS'a[819]'
p2284
aS'a[1222]'
p2285
aS'a[8083]'
p2286
aS'a[8589]'
p2287
aS'a[842]'
p2288
aS'a[2789]'
p2289
aS'a[8063]'
p2290
aS'a[1159]'
p2291
aS'a[202]'
p2292
aS'a[1082]'
p2293
aS'a[2564]'
p2294
aS'a[1506]'
p2295
aS'a[223]'
p2296
aS'a[2374]'
p2297
aS'a[580]'
p2298
aS'a[620]'
p2299
aS'a[6509]'
p2300
aS'a[8772]'
p2301
aS'a[5610]'
p2302
aS'a[5290]'
p2303
aS'a[2955]'
p2304
aS'a[955]'
p2305
aS'a[743]'
p2306
aS'a[950]'
p2307
aS'a[121]'
p2308
aS'a[790]'
p2309
aS'a[141]'
p2310
aS'a[4056]'
p2311
aS'a[3192]'
p2312
aS'a[382]'
p2313
aS'a[1159]'
p2314
aS'a[7264]'
p2315
aS'a[1298]'
p2316
aS'a[967]'
p2317
aS'a[121]'
p2318
aS'a[277]'
p2319
aS'a[743]'
p2320
aS'a[32]'
p2321
aS'a[3498]'
p2322
aS'a[208]'
p2323
aS'a[3868]'
p2324
aS'a[9129]'
p2325
aS'a[2612]'
p2326
aS'a[0]'
p2327
aS'a[3192]'
p2328
aS'a[7126]'
p2329
aS'a[897]'
p2330
aS'a[5373]'
p2331
aS'a[743]'
p2332
aS'a[5183]'
p2333
aS'a[3868]'
p2334
aS'a[1676]'
p2335
aS'a[7761]'
p2336
aS'a[3422]'
p2337
aS'a[1506]'
p2338
aS'a[1056]'
p2339
aS'a[4271]'
p2340
aS'a[8032]'
p2341
aS'a[890]'
p2342
aS'a[714]'
p2343
aS'a[1427]'
p2344
aS'a[1534]'
p2345
aS'a[3868]'
p2346
aS'a[976]'
p2347
aS'a[7516]'
p2348
aS'a[7180]'
p2349
aS'a[2271]'
p2350
aS'a[5650]'
p2351
aS'a[536]'
p2352
aS'a[4029]'
p2353
aS'a[8797]'
p2354
aS'a[2643]'
p2355
aS'a[1225]'
p2356
aS'a[4016]'
p2357
aS'a[2374]'
p2358
aS'a[624]'
p2359
aS'a[1159]'
p2360
aS'a[4822]'
p2361
aS'a[8471]'
p2362
aS'a[1895]'
p2363
aS'a[3273]'
p2364
aS'a[3868]'
p2365
aS'a[147]'
p2366
aS'a[595]'
p2367
aS'a[4151]'
p2368
aS'a[6145]'
p2369
aS'a[1159]'
p2370
aS'a[8105]'
p2371
aS'a[3868]'
p2372
aS'a[536]'
p2373
aS'a[3868]'
p2374
aS'a[6810]'
p2375
aS'a[714]'
p2376
aS'a[3166]'
p2377
aS'a[4086]'
p2378
aS'a[3526]'
p2379
aS'a[153]'
p2380
aS'a[3344]'
p2381
aS'a[170]'
p2382
aS'a[897]'
p2383
aS'a[1624]'
p2384
aS'a[2006]'
p2385
aS'a[5172]'
p2386
aS'a[4289]'
p2387
aS'a[1232]'
p2388
aS'a[153]'
p2389
aS'a[4056]'
p2390
aS'a[208]'
p2391
aS'a[851]'
p2392
aS'a[7264]'
p2393
aS'a[1048]'
p2394
aS'a[3918]'
p2395
aS'a[7943]'
p2396
aS'a[2780]'
p2397
aS'a[1676]'
p2398
aS'a[2300]'
p2399
aS'a[5985]'
p2400
aS'a[1159]'
p2401
aS'a[5934]'
p2402
aS'a[1506]'
p2403
aS'a[790]'
p2404
aS'a[2732]'
p2405
aS'a[901]'
p2406
aS'a[244]'
p2407
aS'a[308]'
p2408
aS'a[790]'
p2409
aS'a[1515]'
p2410
aS'a[569]'
p2411
aS'a[194]'
p2412
aS'a[7790]'
p2413
aS'a[141]'
p2414
aS'a[206]'
p2415
aS'a[897]'
p2416
aS'a[897]'
p2417
aS'a[6]'
p2418
aS'a[1371]'
p2419
aS'a[9126]'
p2420
aS'a[3192]'
p2421
aS'a[5315]'
p2422
aS'a[880]'
p2423
aS'a[202]'
p2424
aS'a[8225]'
p2425
aS'a[9034]'
p2426
aS'a[897]'
p2427
aS'a[5610]'
p2428
aS'a[223]'
p2429
aS'a[4822]'
p2430
aS'a[223]'
p2431
aS'a[3050]'
p2432
aS'a[7077]'
p2433
aS'a[4883]'
p2434
aS'a[1461]'
p2435
aS'a[170]'
p2436
aS'a[202]'
p2437
aS'a[3407]'
p2438
aS'a[5674]'
p2439
aS'a[6063]'
p2440
aS'a[986]'
p2441
aS'a[32]'
p2442
aS'a[5784]'
p2443
aS'a[3285]'
p2444
aS'a[7172]'
p2445
aS'a[1889]'
p2446
aS'a[2549]'
p2447
aS'a[2800]'
p2448
aS'a[2072]'
p2449
aS'a[3964]'
p2450
aS'a[0]'
p2451
aS'a[7883]'
p2452
aS'a[2113]'
p2453
aS'a[32]'
p2454
aS'a[897]'
p2455
aS'a[6814]'
p2456
aS'a[1676]'
p2457
aS'a[223]'
p2458
aS'a[566]'
p2459
aS'a[851]'
p2460
aS'a[6045]'
p2461
aS'a[349]'
p2462
aS'a[4763]'
p2463
aS'a[2793]'
p2464
aS'a[7742]'
p2465
aS'a[890]'
p2466
aS'a[566]'
p2467
aS'a[3616]'
p2468
aS'a[445]'
p2469
aS'a[2374]'
p2470
aS'a[52]'
p2471
aS'a[206]'
p2472
aS'a[32]'
p2473
aS'a[890]'
p2474
aS'a[5358]'
p2475
aS'a[7873]'
p2476
aS'a[256]'
p2477
aS'a[1315]'
p2478
aS'a[652]'
p2479
aS'a[897]'
p2480
aS'a[6874]'
p2481
aS'a[860]'
p2482
aS'a[1506]'
p2483
aS'a[5182]'
p2484
aS'a[2006]'
p2485
aS'a[860]'
p2486
aS'a[3479]'
p2487
aS'a[2612]'
p2488
aS'a[8433]'
p2489
aS'a[714]'
p2490
aS'a[3050]'
p2491
aS'a[536]'
p2492
aS'a[3192]'
p2493
aS'a[842]'
p2494
aS'a[7018]'
p2495
aS'a[6391]'
p2496
aS'a[96]'
p2497
aS'a[625]'
p2498
aS'a[1427]'
p2499
aS'a[8426]'
p2500
aS'a[5748]'
p2501
aS'a[3069]'
p2502
aS'a[1225]'
p2503
aS'a[1676]'
p2504
aS'a[4866]'
p2505
aS'a[96]'
p2506
aS'a[7674]'
p2507
aS'a[3525]'
p2508
aS'a[8842]'
p2509
aS'a[244]'
p2510
aS'a[645]'
p2511
aS'a[105]'
p2512
aS'a[2197]'
p2513
aS'a[620]'
p2514
aS'a[6269]'
p2515
aS'a[1889]'
p2516
aS'a[6583]'
p2517
aS'a[52]'
p2518
aS'a[4149]'
p2519
aS'a[1990]'
p2520
aS'a[0]'
p2521
aS'a[1848]'
p2522
aS'a[1364]'
p2523
aS'a[5745]'
p2524
aS'a[890]'
p2525
aS'a[1612]'
p2526
aS'a[4685]'
p2527
aS'a[538]'
p2528
aS'a[2682]'
p2529
aS'a[277]'
p2530
aS'a[1756]'
p2531
aS'a[7980]'
p2532
aS'a[3620]'
p2533
aS'a[9240]'
p2534
aS'a[8571]'
p2535
aS'a[3868]'
p2536
aS'a[7345]'
p2537
aS'a[3676]'
p2538
aS'a[138]'
p2539
aS'a[3192]'
p2540
aS'a[4087]'
p2541
aS'a[2410]'
p2542
aS'a[206]'
p2543
aS'a[714]'
p2544
aS'a[8233]'
p2545
aS'a[4327]'
p2546
aS'a[851]'
p2547
aS'a[7382]'
p2548
aS'a[8371]'
p2549
aS'a[105]'
p2550
aS'a[4289]'
p2551
aS'a[8026]'
p2552
aS'a[1159]'
p2553
aS'a[6073]'
p2554
aS'a[8889]'
p2555
aS'a[8826]'
p2556
aS'a[8385]'
p2557
aS'a[2497]'
p2558
aS'a[4289]'
p2559
aS'a[6350]'
p2560
aS'a[5783]'
p2561
aS'a[2344]'
p2562
aS'a[925]'
p2563
aS'a[3724]'
p2564
aS'a[806]'
p2565
aS'a[1225]'
p2566
aS'a[4191]'
p2567
aS'a[8416]'
p2568
aS'a[441]'
p2569
aS'a[1278]'
p2570
aS'a[300]'
p2571
aS'a[1889]'
p2572
aS'a[510]'
p2573
aS'a[491]'
p2574
aS'a[1866]'
p2575
aS'a[4056]'
p2576
aS'a[1676]'
p2577
aS'a[153]'
p2578
aS'a[2539]'
p2579
aS'a[8669]'
p2580
aS'a[5622]'
p2581
aS'a[345]'
p2582
aS'a[121]'
p2583
aS'a[4326]'
p2584
aS'a[2612]'
p2585
aS'a[1693]'
p2586
aS'a[3750]'
p2587
aS'a[7810]'
p2588
aS'a[4056]'
p2589
aS'a[123]'
p2590
aS'a[6528]'
p2591
aS'a[1866]'
p2592
aS'a[506]'
p2593
aS'a[7792]'
p2594
aS'a[4710]'
p2595
aS'a[123]'
p2596
aS'a[9172]'
p2597
aS'a[194]'
p2598
aS'a[944]'
p2599
aS'a[472]'
p2600
aS'a[7099]'
p2601
aS'a[208]'
p2602
aS'a[792]'
p2603
aS'a[7217]'
p2604
aS'a[538]'
p2605
aS'a[538]'
p2606
aS'a[5044]'
p2607
aS'a[1159]'
p2608
aS'a[8278]'
p2609
aS'a[5479]'
p2610
aS'a[9241]'
p2611
aS'a[5101]'
p2612
aS'a[1756]'
p2613
aS'a[8645]'
p2614
aS'a[346]'
p2615
aS'a[4699]'
p2616
aS'a[2237]'
p2617
aS'a[851]'
p2618
aS'a[7579]'
p2619
aS'a[2277]'
p2620
aS'a[1866]'
p2621
aS'a[4251]'
p2622
aS'a[6570]'
p2623
aS'a[5251]'
p2624
aS'a[696]'
p2625
aS'a[4130]'
p2626
aS'a[3868]'
p2627
aS'a[5101]'
p2628
aS'a[3782]'
p2629
aS'a[743]'
p2630
aS'a[2693]'
p2631
aS'a[3192]'
p2632
aS'a[4292]'
p2633
aS'a[9175]'
p2634
aS'a[5748]'
p2635
aS'a[3162]'
p2636
aS'a[445]'
p2637
aS'a[2555]'
p2638
aS'a[9220]'
p2639
aS'a[3371]'
p2640
aS'a[2762]'
p2641
aS'a[1048]'
p2642
aS'a[1088]'
p2643
aS'a[842]'
p2644
aS'a[696]'
p2645
aS'a[4151]'
p2646
aS'a[105]'
p2647
aS'a[7564]'
p2648
aS'a[880]'
p2649
aS'a[1305]'
p2650
aS'a[2623]'
p2651
aS'a[170]'
p2652
aS'a[1732]'
p2653
aS'a[5797]'
p2654
aS'a[1048]'
p2655
aS'a[506]'
p2656
aS'a[1441]'
p2657
aS'a[5610]'
p2658
aS'a[890]'
p2659
aS'a[208]'
p2660
aS'a[2793]'
p2661
aS'a[4151]'
p2662
aS'a[4492]'
p2663
aS'a[3075]'
p2664
aS'a[4822]'
p2665
aS'a[7264]'
p2666
aS'a[5982]'
p2667
aS'a[897]'
p2668
aS'a[1612]'
p2669
aS'a[2571]'
p2670
aS'a[536]'
p2671
aS'a[7003]'
p2672
aS'a[6249]'
p2673
aS'a[5373]'
p2674
aS'a[6933]'
p2675
aS'a[3633]'
p2676
aS'a[6]'
p2677
aS'a[1506]'
p2678
aS'a[817]'
p2679
aS'a[67]'
p2680
aS'a[506]'
p2681
aS'a[5519]'
p2682
aS'a[1450]'
p2683
aS'a[6416]'
p2684
aS'a[2374]'
p2685
aS'a[491]'
p2686
aS'a[4747]'
p2687
aS'a[1267]'
p2688
aS'a[1506]'
p2689
aS'a[2349]'
p2690
aS'a[3192]'
p2691
aS'a[4151]'
p2692
aS'a[5610]'
p2693
aS'a[7188]'
p2694
aS'a[204]'
p2695
aS'a[1676]'
p2696
aS'a[7998]'
p2697
aS'a[223]'
p2698
aS'a[2612]'
p2699
aS'a[3737]'
p2700
aS'a[2797]'
p2701
aS'a[2666]'
p2702
aS'a[1612]'
p2703
aS'a[399]'
p2704
aS'a[4822]'
p2705
aS'a[490]'
p2706
aS'a[1866]'
p2707
aS'a[1624]'
p2708
aS'a[714]'
p2709
aS'a[919]'
p2710
aS'a[6204]'
p2711
aS'a[1756]'
p2712
aS'a[5610]'
p2713
aS'a[9011]'
p2714
aS'a[399]'
p2715
aS'a[1506]'
p2716
aS'a[4027]'
p2717
aS'a[2892]'
p2718
aS'a[277]'
p2719
aS'a[1441]'
p2720
aS'a[851]'
p2721
aS'a[6194]'
p2722
aS'a[227]'
p2723
aS'a[7054]'
p2724
aS'a[277]'
p2725
aS'a[6379]'
p2726
aS'a[693]'
p2727
aS'a[1441]'
p2728
aS'a[6588]'
p2729
aS'a[121]'
p2730
aS'a[6457]'
p2731
aS'a[194]'
p2732
aS'a[8800]'
p2733
aS'a[7822]'
p2734
aS'a[445]'
p2735
aS'a[943]'
p2736
aS'a[7981]'
p2737
aS'a[2410]'
p2738
aS'a[223]'
p2739
aS'a[1923]'
p2740
aS'a[4431]'
p2741
aS'a[6109]'
p2742
aS'a[2724]'
p2743
aS'a[6]'
p2744
aS'a[620]'
p2745
aS'a[206]'
p2746
aS'a[2399]'
p2747
aS'a[5229]'
p2748
aS'a[4822]'
p2749
aS'a[45]'
p2750
aS'a[506]'
p2751
aS'a[1676]'
p2752
aS'a[880]'
p2753
aS'a[3591]'
p2754
aS'a[1693]'
p2755
aS'a[7883]'
p2756
aS'a[4858]'
p2757
aS'a[4901]'
p2758
aS'a[1676]'
p2759
aS'a[170]'
p2760
aS'a[7978]'
p2761
aS'a[5459]'
p2762
aS'a[7064]'
p2763
aS'a[202]'
p2764
aS'a[6795]'
p2765
aS'a[7437]'
p2766
aS'a[3650]'
p2767
aS'a[206]'
p2768
aS'a[1427]'
p2769
aS'a[8809]'
p2770
aS'a[4056]'
p2771
aS'a[4952]'
p2772
aS'a[2144]'
p2773
aS'a[620]'
p2774
aS'a[3784]'
p2775
aS'a[580]'
p2776
aS'a[7978]'
p2777
aS'a[1149]'
p2778
aS'a[52]'
p2779
aS'a[8196]'
p2780
aS'a[2548]'
p2781
aS'a[3050]'
p2782
aS'a[897]'
p2783
aS'a[5084]'
p2784
aS'a[3943]'
p2785
aS'a[6688]'
p2786
aS'a[1676]'
p2787
aS'a[6437]'
p2788
aS'a[1427]'
p2789
aS'a[3093]'
p2790
aS'a[4151]'
p2791
aS'a[4289]'
p2792
aS'a[3982]'
p2793
aS'a[897]'
p2794
aS'a[5101]'
p2795
aS'a[445]'
p2796
aS'a[860]'
p2797
aS'a[8243]'
p2798
aS'a[223]'
p2799
aS'a[1756]'
p2800
aS'a[195]'
p2801
aS'a[1484]'
p2802
aS'a[4830]'
p2803
aS'a[3563]'
p2804
aS'a[6090]'
p2805
aS'a[7998]'
p2806
aS'a[1427]'
p2807
aS'a[6263]'
p2808
aS'a[969]'
p2809
aS'a[4151]'
p2810
aS'a[337]'
p2811
aS'a[7961]'
p2812
aS'a[4160]'
p2813
aS'a[860]'
p2814
aS'a[897]'
p2815
aS'a[457]'
p2816
aS'a[714]'
p2817
aS'a[5748]'
p2818
aS'a[1624]'
p2819
aS'a[1262]'
p2820
aS'a[9196]'
p2821
aS'a[1787]'
p2822
aS'a[743]'
p2823
aS'a[593]'
p2824
aS'a[1889]'
p2825
aS'a[121]'
p2826
aS'a[1195]'
p2827
aS'a[2006]'
p2828
aS'a[842]'
p2829
aS'a[897]'
p2830
aS'a[860]'
p2831
aS'a[4822]'
p2832
aS'a[806]'
p2833
aS'a[4206]'
p2834
aS'a[2317]'
p2835
aS'a[32]'
p2836
aS'a[441]'
p2837
aS'a[7847]'
p2838
aS'a[4777]'
p2839
aS'a[5292]'
p2840
aS'a[382]'
p2841
aS'a[127]'
p2842
aS'a[7044]'
p2843
aS'a[4632]'
p2844
aS'a[3868]'
p2845
aS'a[3902]'
p2846
aS'a[1288]'
p2847
aS'a[755]'
p2848
aS'a[2243]'
p2849
aS'a[2179]'
p2850
aS'a[33]'
p2851
aS'a[52]'
p2852
aS'a[936]'
p2853
aS'a[3273]'
p2854
aS'a[1866]'
p2855
aS'a[5610]'
p2856
aS'a[5119]'
p2857
aS'a[506]'
p2858
aS'a[1159]'
p2859
aS'a[9174]'
p2860
aS'a[141]'
p2861
aS'a[273]'
p2862
aS'a[2267]'
p2863
aS'a[6]'
p2864
aS'a[1225]'
p2865
aS'a[206]'
p2866
aS'a[3676]'
p2867
aS'a[842]'
p2868
aS'a[1159]'
p2869
aS'a[6375]'
p2870
aS'a[1920]'
p2871
aS'a[1098]'
p2872
aS'a[3050]'
p2873
aS'a[897]'
p2874
aS'a[1333]'
p2875
aS'a[441]'
p2876
aS'a[223]'
p2877
aS'a[3273]'
p2878
aS'a[3371]'
p2879
aS'a[121]'
p2880
aS'a[170]'
p2881
aS'a[1612]'
p2882
aS'a[506]'
p2883
aS'a[2662]'
p2884
aS'a[4289]'
p2885
aS'a[8059]'
p2886
aS'a[860]'
p2887
aS'a[258]'
p2888
aS'a[153]'
p2889
aS'a[5610]'
p2890
aS'a[5505]'
p2891
aS'a[67]'
p2892
aS'a[1677]'
p2893
aS'a[1866]'
p2894
aS'a[620]'
p2895
aS'a[153]'
p2896
aS'a[2602]'
p2897
aS'a[1774]'
p2898
aS'a[1564]'
p2899
aS'a[5487]'
p2900
aS'a[2417]'
p2901
aS'a[3641]'
p2902
aS'a[1441]'
p2903
aS'a[1676]'
p2904
aS'a[1048]'
p2905
aS'a[4289]'
p2906
aS'a[1159]'
p2907
aS'a[1242]'
p2908
aS'a[4679]'
p2909
aS'a[595]'
p2910
aS'a[3474]'
p2911
aS'a[5626]'
p2912
aS'a[3162]'
p2913
aS'a[0]'
p2914
aS'a[4068]'
p2915
aS'a[7635]'
p2916
aS'a[6342]'
p2917
aS'a[7978]'
p2918
aS'a[121]'
p2919
aS'a[6454]'
p2920
aS'a[517]'
p2921
aS'a[538]'
p2922
aS'a[4401]'
p2923
aS'a[916]'
p2924
aS'a[1612]'
p2925
aS'a[6340]'
p2926
aS'a[3272]'
p2927
aS'a[8998]'
p2928
aS'a[105]'
p2929
aS'a[7829]'
p2930
aS'a[5314]'
p2931
aS'a[3633]'
p2932
aS'a[595]'
p2933
aS'a[1676]'
p2934
aS'a[7439]'
p2935
aS'a[1676]'
p2936
aS'a[1159]'
p2937
aS'a[7057]'
p2938
aS'a[206]'
p2939
aS'a[8980]'
p2940
aS'a[5292]'
p2941
aS'a[1889]'
p2942
aS'a[6825]'
p2943
aS'a[5292]'
p2944
aS'a[506]'
p2945
aS'a[165]'
p2946
aS'a[4330]'
p2947
aS'a[1519]'
p2948
aS'a[0]'
p2949
aS'a[3768]'
p2950
aS'a[1056]'
p2951
aS'a[789]'
p2952
aS'a[52]'
p2953
aS'a[206]'
p2954
aS'a[5054]'
p2955
aS'a[7311]'
p2956
aS'a[1889]'
p2957
aS'a[4056]'
p2958
aS'a[8204]'
p2959
aS'a[1866]'
p2960
aS'a[1262]'
p2961
aS'a[194]'
p2962
aS'a[732]'
p2963
aS'a[7591]'
p2964
aS'a[121]'
p2965
aS'a[3914]'
p2966
aS'a[875]'
p2967
aS'a[842]'
p2968
aS'a[244]'
p2969
aS'a[2612]'
p2970
aS'a[4524]'
p2971
aS'a[7659]'
p2972
aS'a[3050]'
p2973
aS'a[9107]'
p2974
aS'a[925]'
p2975
aS'a[1505]'
p2976
aS'a[7592]'
p2977
aS'a[441]'
p2978
aS'a[441]'
p2979
aS'a[860]'
p2980
aS'a[1889]'
p2981
aS'a[743]'
p2982
aS'a[1693]'
p2983
aS'a[536]'
p2984
aS'a[8461]'
p2985
aS'a[1612]'
p2986
aS'a[1612]'
p2987
aS'a[7998]'
p2988
aS'a[5010]'
p2989
aS'a[194]'
p2990
aS'a[2612]'
p2991
aS'a[4151]'
p2992
aS'a[3979]'
p2993
aS'a[580]'
p2994
aS'a[890]'
p2995
aS'a[5681]'
p2996
aS'a[141]'
p2997
aS'a[202]'
p2998
aS'a[1468]'
p2999
aS'a[1756]'
p3000
aS'a[5769]'
p3001
aS'a[194]'
p3002
aS'a[382]'
p3003
aS'a[790]'
p3004
aS'a[3468]'
p3005
aS'a[8245]'
p3006
aS'a[817]'
p3007
aS'a[6625]'
p3008
aS'a[1190]'
p3009
aS'a[8066]'
p3010
aS'a[8837]'
p3011
aS'a[7978]'
p3012
aS'a[4066]'
p3013
aS'a[3050]'
p3014
aS'a[880]'
p3015
aS'a[696]'
p3016
aS'a[5475]'
p3017
aS'a[714]'
p3018
aS'a[5831]'
p3019
aS'a[7199]'
p3020
aS'a[7906]'
p3021
aS'a[714]'
p3022
aS'a[445]'
p3023
aS'a[743]'
p3024
aS'a[842]'
p3025
aS'a[1225]'
p3026
aS'a[2006]'
p3027
aS'a[506]'
p3028
aS'a[1048]'
p3029
aS'a[4704]'
p3030
aS'a[3918]'
p3031
aS'a[842]'
p3032
aS'a[4826]'
p3033
aS'a[445]'
p3034
aS'a[817]'
p3035
aS'a[2978]'
p3036
aS'a[8178]'
p3037
aS'a[506]'
p3038
aS'a[1683]'
p3039
aS'a[2790]'
p3040
aS'a[6995]'
p3041
aS'a[5032]'
p3042
aS'a[3420]'
p3043
aS'a[3273]'
p3044
aS'a[7998]'
p3045
aS'a[5248]'
p3046
aS'a[536]'
p3047
aS'a[4402]'
p3048
aS'a[1612]'
p3049
aS'a[536]'
p3050
aS'a[2006]'
p3051
aS'a[4211]'
p3052
aS'a[536]'
p3053
aS'a[595]'
p3054
aS'a[5034]'
p3055
aS'a[8530]'
p3056
aS'a[714]'
p3057
aS'a[3050]'
p3058
aS'a[5847]'
p3059
aS'a[243]'
p3060
aS'a[1055]'
p3061
aS'a[6350]'
p3062
aS'a[102]'
p3063
aS'a[8512]'
p3064
aS'a[506]'
p3065
aS'a[595]'
p3066
aS'a[890]'
p3067
aS'a[141]'
p3068
aS'a[8118]'
p3069
aS'a[2803]'
p3070
aS'a[743]'
p3071
aS'a[7555]'
p3072
aS'a[1262]'
p3073
aS'a[277]'
p3074
aS'a[506]'
p3075
aS'a[5101]'
p3076
aS'a[880]'
p3077
aS'a[4258]'
p3078
aS'a[5290]'
p3079
aS'a[206]'
p3080
aS'a[7956]'
p3081
aS'a[4260]'
p3082
aS'a[5337]'
p3083
aS'a[1056]'
p3084
aS'a[841]'
p3085
aS'a[8650]'
p3086
aS'a[206]'
p3087
aS'a[3273]'
p3088
aS'a[4037]'
p3089
aS'a[6]'
p3090
aS'a[566]'
p3091
aS'a[506]'
p3092
aS'a[790]'
p3093
aS'a[714]'
p3094
aS'a[1564]'
p3095
aS'a[9176]'
p3096
aS'a[4696]'
p3097
aS'a[4422]'
p3098
aS'a[5790]'
p3099
aS'a[4151]'
p3100
aS'a[7149]'
p3101
aS'a[67]'
p3102
aS'a[4910]'
p3103
aS'a[1056]'
p3104
aS'a[2881]'
p3105
aS'a[3192]'
p3106
aS'a[3332]'
p3107
aS'a[202]'
p3108
aS'a[3107]'
p3109
aS'a[1866]'
p3110
aS'a[355]'
p3111
aS'a[696]'
p3112
aS'a[202]'
p3113
aS'a[6907]'
p3114
aS'a[506]'
p3115
aS'a[7370]'
p3116
aS'a[244]'
p3117
aS'a[711]'
p3118
aS'a[538]'
p3119
aS'a[3273]'
p3120
aS'a[3342]'
p3121
aS'a[5101]'
p3122
aS'a[1756]'
p3123
aS'a[5310]'
p3124
aS'a[714]'
p3125
aS'a[2006]'
p3126
aS'a[5544]'
p3127
aS'a[6580]'
p3128
aS'a[395]'
p3129
aS'a[1865]'
p3130
aS'a[538]'
p3131
aS'a[6384]'
p3132
aS'a[860]'
p3133
aS'a[2006]'
p3134
aS'a[7961]'
p3135
aS'a[1230]'
p3136
aS'a[998]'
p3137
aS'a[819]'
p3138
aS'a[7215]'
p3139
aS'a[5836]'
p3140
aS'a[5200]'
p3141
aS'a[3120]'
p3142
aS'a[5292]'
p3143
aS'a[8641]'
p3144
aS'a[491]'
p3145
aS'a[223]'
p3146
aS'a[1606]'
p3147
aS'a[185]'
p3148
aS'a[4151]'
p3149
aS'a[1866]'
p3150
aS'a[2943]'
p3151
aS'a[1427]'
p3152
aS'a[9086]'
p3153
aS'a[842]'
p3154
aS'a[8922]'
p3155
aS'a[6888]'
p3156
aS'a[162]'
p3157
aS'a[2006]'
p3158
aS'a[7704]'
p3159
aS'a[3192]'
p3160
aS'a[6291]'
p3161
aS'a[3005]'
p3162
aS'a[3192]'
p3163
aS'a[5908]'
p3164
aS'a[7564]'
p3165
aS'a[223]'
p3166
aS'a[1267]'
p3167
aS'a[6854]'
p3168
aS'a[399]'
p3169
aS'a[7196]'
p3170
aS'a[3192]'
p3171
aS'a[696]'
p3172
aS'a[5748]'
p3173
aS'a[1055]'
p3174
aS'a[273]'
p3175
aS'a[3273]'
p3176
aS'a[5678]'
p3177
aS'a[5610]'
p3178
aS'a[743]'
p3179
aS'a[880]'
p3180
aS'a[2006]'
p3181
aS'a[875]'
p3182
aS'a[6]'
p3183
aS'a[1056]'
p3184
aS'a[67]'
p3185
aS'a[925]'
p3186
aS'a[1564]'
p3187
aS'a[194]'
p3188
aS'a[2793]'
p3189
aS'a[7205]'
p3190
aS'a[1612]'
p3191
aS'a[5365]'
p3192
aS'a[755]'
p3193
aS'a[2896]'
p3194
aS'a[2029]'
p3195
aS'a[3549]'
p3196
aS'a[7998]'
p3197
aS'a[7150]'
p3198
aS'a[7706]'
p3199
aS'a[6981]'
p3200
aS'a[6520]'
p3201
aS'a[141]'
p3202
aS'a[1676]'
p3203
aS'a[202]'
p3204
aS'a[2508]'
p3205
aS'a[123]'
p3206
aS'a[755]'
p3207
aS'a[1564]'
p3208
aS'a[206]'
p3209
aS'a[1056]'
p3210
aS'a[7923]'
p3211
aS'a[206]'
p3212
aS'a[1676]'
p3213
aS'a[4352]'
p3214
aS'a[9050]'
p3215
aS'a[2376]'
p3216
aS'a[6185]'
p3217
aS'a[1624]'
p3218
aS'a[3723]'
p3219
aS'a[3162]'
p3220
aS'a[2549]'
p3221
aS'a[806]'
p3222
aS'a[1612]'
p3223
aS'a[5999]'
p3224
aS'a[2393]'
p3225
aS'a[3556]'
p3226
aS'a[880]'
p3227
aS'a[1500]'
p3228
aS'a[1314]'
p3229
aS'a[875]'
p3230
aS'a[6714]'
p3231
aS'a[3741]'
p3232
aS'a[4056]'
p3233
aS'a[2321]'
p3234
aS'a[7220]'
p3235
aS'a[5627]'
p3236
aS'a[7553]'
p3237
aS'a[8121]'
p3238
aS'a[4080]'
p3239
aS'a[875]'
p3240
aS'a[3918]'
p3241
aS'a[3552]'
p3242
aS'a[880]'
p3243
aS'a[8855]'
p3244
aS'a[6559]'
p3245
aS'a[445]'
p3246
aS'a[9111]'
p3247
aS'a[573]'
p3248
aS'a[202]'
p3249
aS'a[5745]'
p3250
aS'a[8805]'
p3251
aS'a[8113]'
p3252
aS'a[5589]'
p3253
aS'a[1676]'
p3254
aS'a[6791]'
p3255
aS'a[5058]'
p3256
aS'a[105]'
p3257
aS'a[2410]'
p3258
aS'a[3162]'
p3259
aS'a[1693]'
p3260
aS'a[4698]'
p3261
aS'a[1349]'
p3262
aS'a[2058]'
p3263
aS'a[1612]'
p3264
aS'a[652]'
p3265
aS'a[105]'
p3266
aS'a[875]'
p3267
aS'a[890]'
p3268
aS'a[208]'
p3269
aS'a[1756]'
p3270
aS'a[714]'
p3271
aS'a[4151]'
p3272
aS'a[6947]'
p3273
aS'a[2975]'
p3274
aS'a[4441]'
p3275
aS'a[1225]'
p3276
aS'a[3521]'
p3277
aS'a[6086]'
p3278
aS'a[132]'
p3279
aS'a[7160]'
p3280
aS'a[194]'
p3281
aS'a[755]'
p3282
aS'a[5373]'
p3283
aS'a[5083]'
p3284
aS'a[269]'
p3285
aS'a[5054]'
p3286
aS'a[3162]'
p3287
aS'a[4087]'
p3288
aS'a[9115]'
p3289
aS'a[6134]'
p3290
aS'a[3362]'
p3291
aS'a[897]'
p3292
aS'a[399]'
p3293
aS'a[223]'
p3294
aS'a[7453]'
p3295
aS'a[4786]'
p3296
aS'a[1866]'
p3297
aS'a[2188]'
p3298
aS'a[1624]'
p3299
aS'a[4775]'
p3300
aS'a[8492]'
p3301
aS'a[8167]'
p3302
aS'a[1506]'
p3303
aS'a[2613]'
p3304
aS'a[8633]'
p3305
aS'a[5803]'
p3306
aS'a[8573]'
p3307
aS'a[6547]'
p3308
aS'a[1624]'
p3309
aS'a[4776]'
p3310
aS'a[1612]'
p3311
aS'a[0]'
p3312
aS'a[3415]'
p3313
aS'a[9141]'
p3314
aS'a[538]'
p3315
aS'a[3868]'
p3316
aS'a[1866]'
p3317
aS'a[2410]'
p3318
aS'a[3273]'
p3319
aS'a[1681]'
p3320
aS'a[5610]'
p3321
aS'a[5681]'
p3322
aS'a[7502]'
p3323
aS'a[4305]'
p3324
aS'a[880]'
p3325
aS'a[7802]'
p3326
aS'a[4905]'
p3327
aS'a[536]'
p3328
aS'a[8600]'
p3329
aS'a[7216]'
p3330
aS'a[1372]'
p3331
aS'a[793]'
p3332
aS'a[5826]'
p3333
aS'a[536]'
p3334
aS'a[8112]'
p3335
aS'a[3005]'
p3336
aS'a[4087]'
p3337
aS'a[206]'
p3338
aS'a[5078]'
p3339
aS'a[806]'
p3340
aS'a[2488]'
p3341
aS'a[3192]'
p3342
aS'a[2374]'
p3343
aS'a[6506]'
p3344
aS'a[842]'
p3345
aS'a[7324]'
p3346
aS'a[1159]'
p3347
aS'a[399]'
p3348
aS'a[860]'
p3349
aS'a[1299]'
p3350
aS'a[3403]'
p3351
aS'a[2782]'
p3352
aS'a[4947]'
p3353
aS'a[277]'
p3354
aS'a[5140]'
p3355
aS'a[208]'
p3356
aS'a[714]'
p3357
aS'a[3041]'
p3358
aS'a[5832]'
p3359
aS'a[7039]'
p3360
aS'a[3119]'
p3361
aS'a[2293]'
p3362
aS'a[1506]'
p3363
aS'a[4087]'
p3364
aS'a[23]'
p3365
aS'a[4973]'
p3366
aS'a[2872]'
p3367
aS'a[5405]'
p3368
aS'a[2612]'
p3369
aS'a[842]'
p3370
aS'a[223]'
p3371
aS'a[2]'
p3372
aS'a[244]'
p3373
aS'a[1756]'
p3374
aS'a[795]'
p3375
aS'a[9185]'
p3376
aS'a[1894]'
p3377
aS'a[538]'
p3378
aS'a[3192]'
p3379
aS'a[6397]'
p3380
aS'a[6964]'
p3381
aS'a[1780]'
p3382
aS'a[206]'
p3383
aS'a[880]'
p3384
aS'a[1054]'
p3385
aS'a[6]'
p3386
aS'a[817]'
p3387
aS'a[1225]'
p3388
aS'a[3192]'
p3389
aS'a[1676]'
p3390
aS'a[8443]'
p3391
aS'a[4950]'
p3392
aS'a[875]'
p3393
aS'a[399]'
p3394
aS'a[3921]'
p3395
aS'a[1398]'
p3396
aS'a[8564]'
p3397
aS'a[7311]'
p3398
aS'a[8250]'
p3399
aS'a[1262]'
p3400
aS'a[842]'
p3401
aS'a[141]'
p3402
aS'a[536]'
p3403
aS'a[1676]'
p3404
aS'a[1056]'
p3405
aS'a[842]'
p3406
aS'a[4927]'
p3407
aS'a[5719]'
p3408
aS'a[3162]'
p3409
aS'a[4346]'
p3410
aS'a[2181]'
p3411
aS'a[2912]'
p3412
aS'a[880]'
p3413
aS'a[52]'
p3414
aS'a[250]'
p3415
aS'a[3732]'
p3416
aS'a[620]'
p3417
aS'a[696]'
p3418
aS'a[8184]'
p3419
aS'a[4289]'
p3420
aS'a[1676]'
p3421
aS'a[4796]'
p3422
aS'a[0]'
p3423
aS'a[52]'
p3424
aS'a[696]'
p3425
aS'a[0]'
p3426
aS'a[1866]'
p3427
aS'a[3847]'
p3428
aS'a[2793]'
p3429
aS'a[5586]'
p3430
aS'a[6735]'
p3431
aS'a[52]'
p3432
aS'a[4087]'
p3433
aS'a[422]'
p3434
aS'a[1048]'
p3435
aS'a[3050]'
p3436
aS'a[3533]'
p3437
aS'a[595]'
p3438
aS'a[449]'
p3439
aS'a[162]'
p3440
aS'a[1048]'
p3441
aS'a[2793]'
p3442
aS'a[1624]'
p3443
aS'a[880]'
p3444
aS'a[5876]'
p3445
aS'a[244]'
p3446
aS'a[2711]'
p3447
aS'a[1772]'
p3448
aS'a[5373]'
p3449
aS'a[110]'
p3450
aS'a[4087]'
p3451
aS'a[3880]'
p3452
aS'a[2846]'
p3453
aS'a[4056]'
p3454
aS'a[175]'
p3455
aS'a[441]'
p3456
aS'a[6089]'
p3457
aS'a[0]'
p3458
aS'a[1742]'
p3459
aS'a[6428]'
p3460
aS'a[8683]'
p3461
aS'a[714]'
p3462
aS'a[4006]'
p3463
aS'a[1159]'
p3464
aS'a[2549]'
p3465
aS'a[580]'
p3466
aS'a[1427]'
p3467
aS'a[890]'
p3468
aS'a[0]'
p3469
aS'a[4056]'
p3470
aS'a[151]'
p3471
aS'a[5630]'
p3472
aS'a[2549]'
p3473
aS'a[42]'
p3474
aS'a[3192]'
p3475
aS'a[1427]'
p3476
aS'a[223]'
p3477
aS'a[5418]'
p3478
aS'a[5068]'
p3479
aS'a[4541]'
p3480
aS'a[1241]'
p3481
aS'a[445]'
p3482
aS'a[1268]'
p3483
aS'a[2612]'
p3484
aS'a[7722]'
p3485
aS'a[153]'
p3486
aS'a[1612]'
p3487
aS'a[7925]'
p3488
aS'a[1743]'
p3489
aS'a[194]'
p3490
aS'a[1879]'
p3491
aS'a[170]'
p3492
aS'a[897]'
p3493
aS'a[714]'
p3494
aS'a[7978]'
p3495
aS'a[755]'
p3496
aS'a[1616]'
p3497
aS'a[1624]'
p3498
aS'a[1262]'
p3499
aS'a[880]'
p3500
aS'a[1159]'
p3501
aS'a[208]'
p3502
aS'a[4151]'
p3503
aS'a[491]'
p3504
aS'a[202]'
p3505
aS'a[4234]'
p3506
aS'a[3103]'
p3507
aS'a[7511]'
p3508
aS'a[4507]'
p3509
aS'a[7919]'
p3510
aS'a[875]'
p3511
aS'a[4226]'
p3512
aS'a[223]'
p3513
aS'a[5906]'
p3514
aS'a[5101]'
p3515
aS'a[714]'
p3516
aS'a[790]'
p3517
aS'a[714]'
p3518
aS'a[714]'
p3519
aS'a[4152]'
p3520
aS'a[1441]'
p3521
aS'a[3005]'
p3522
aS'a[897]'
p3523
aS'a[8581]'
p3524
aS'a[52]'
p3525
aS'a[1676]'
p3526
aS'a[1866]'
p3527
aS'a[5290]'
p3528
aS'a[4628]'
p3529
aS'a[6617]'
p3530
aS'a[441]'
p3531
aS'a[6798]'
p3532
aS'a[2838]'
p3533
aS'a[6222]'
p3534
aS'a[2337]'
p3535
aS'a[7512]'
p3536
aS'a[357]'
p3537
aS'a[703]'
p3538
aS'a[1427]'
p3539
aS'a[1427]'
p3540
aS'a[2694]'
p3541
aS'a[580]'
p3542
aS'a[1693]'
p3543
aS'a[1676]'
p3544
aS'a[2612]'
p3545
aS'a[806]'
p3546
aS'a[170]'
p3547
aS'a[194]'
p3548
aS'a[6279]'
p3549
aS'a[1923]'
p3550
aS'a[105]'
p3551
aS'a[1506]'
p3552
aS'a[141]'
p3553
aS'a[2160]'
p3554
aS'a[2612]'
p3555
aS'a[1624]'
p3556
aS'a[714]'
p3557
aS'a[818]'
p3558
aS'a[32]'
p3559
aS'a[2785]'
p3560
aS'a[8191]'
p3561
aS'a[3943]'
p3562
aS'a[9056]'
p3563
aS'a[842]'
p3564
aS'a[2911]'
p3565
aS'a[880]'
p3566
aS'a[2410]'
p3567
aS'a[851]'
p3568
aS'a[5313]'
p3569
aS'a[1676]'
p3570
aS'a[1506]'
p3571
aS'a[8447]'
p3572
aS'a[4430]'
p3573
aS'a[580]'
p3574
aS'a[538]'
p3575
aS'a[3641]'
p3576
aS'a[7389]'
p3577
aS'a[445]'
p3578
aS'a[7948]'
p3579
aS'a[3987]'
p3580
aS'a[8643]'
p3581
aS'a[491]'
p3582
aS'a[2395]'
p3583
aS'a[8382]'
p3584
aS'a[476]'
p3585
aS'a[1889]'
p3586
aS'a[2549]'
p3587
aS'a[5373]'
p3588
aS'a[2374]'
p3589
aS'a[897]'
p3590
aS'a[2374]'
p3591
aS'a[7264]'
p3592
aS'a[824]'
p3593
aS'a[714]'
p3594
aS'a[743]'
p3595
aS'a[7998]'
p3596
aS'a[6581]'
p3597
aS'a[4056]'
p3598
aS'a[2561]'
p3599
aS'a[3273]'
p3600
aS'a[4822]'
p3601
aS'a[3826]'
p3602
aS'a[50]'
p3603
aS'a[7065]'
p3604
aS'a[842]'
p3605
aS'a[277]'
p3606
aS'a[8644]'
p3607
aS'a[7264]'
p3608
aS'a[0]'
p3609
aS'a[536]'
p3610
aS'a[503]'
p3611
aS'a[208]'
p3612
aS'a[538]'
p3613
aS'a[5292]'
p3614
aS'a[1056]'
p3615
aS'a[2086]'
p3616
aS'a[890]'
p3617
aS'a[123]'
p3618
aS'a[536]'
p3619
aS'a[1260]'
p3620
aS'a[8138]'
p3621
aS'a[4822]'
p3622
aS'a[244]'
p3623
aS'a[7203]'
p3624
aS'a[3005]'
p3625
aS'a[1703]'
p3626
aS'a[3113]'
p3627
aS'a[1278]'
p3628
aS'a[5748]'
p3629
aS'a[6351]'
p3630
aS'a[1612]'
p3631
aS'a[4056]'
p3632
aS'a[399]'
p3633
aS'a[0]'
p3634
aS'a[202]'
p3635
aS'a[1866]'
p3636
aS'a[6142]'
p3637
aS'a[902]'
p3638
aS'a[170]'
p3639
aS'a[5880]'
p3640
aS'a[897]'
p3641
aS'a[873]'
p3642
aS'a[890]'
p3643
aS'a[194]'
p3644
aS'a[743]'
p3645
aS'a[536]'
p3646
aS'a[3196]'
p3647
aS'a[1427]'
p3648
aS'a[6719]'
p3649
aS'a[491]'
p3650
aS'a[4289]'
p3651
aS'a[802]'
p3652
aS'a[8920]'
p3653
aS'a[851]'
p3654
aS'a[6354]'
p3655
aS'a[2680]'
p3656
aS'a[141]'
p3657
aS'a[5415]'
p3658
aS'a[1249]'
p3659
aS'a[6700]'
p3660
aS'a[3400]'
p3661
aS'a[2642]'
p3662
aS'a[3247]'
p3663
aS'a[4087]'
p3664
aS'a[2811]'
p3665
aS'a[465]'
p3666
aS'a[4289]'
p3667
aS'a[4151]'
p3668
aS'a[580]'
p3669
aS'a[5522]'
p3670
aS'a[4678]'
p3671
aS'a[208]'
p3672
aS'a[335]'
p3673
aS'a[714]'
p3674
aS'a[3940]'
p3675
aS'a[5359]'
p3676
aS'a[2225]'
p3677
aS'a[1233]'
p3678
aS'a[8511]'
p3679
aS'a[105]'
p3680
aS'a[3868]'
p3681
aS'a[743]'
p3682
aS'a[8685]'
p3683
aS'a[1894]'
p3684
aS'a[890]'
p3685
aS'a[897]'
p3686
aS'a[1676]'
p3687
aS'a[4435]'
p3688
aS'a[7363]'
p3689
aS'a[5748]'
p3690
aS'a[847]'
p3691
aS'a[1644]'
p3692
aS'a[1676]'
p3693
aS'a[1564]'
p3694
aS'a[3194]'
p3695
aS'a[860]'
p3696
aS'a[123]'
p3697
aS'a[153]'
p3698
aS'a[5013]'
p3699
aS'a[2641]'
p3700
aS'a[277]'
p3701
aS'a[4777]'
p3702
aS'a[153]'
p3703
aS'a[5610]'
p3704
aS'a[2999]'
p3705
aS'a[806]'
p3706
aS'a[2447]'
p3707
aS'a[1866]'
p3708
aS'a[842]'
p3709
aS'a[4631]'
p3710
aS'a[4749]'
p3711
aS'a[1329]'
p3712
aS'a[2701]'
p3713
aS'a[743]'
p3714
aS'a[1427]'
p3715
aS'a[1612]'
p3716
aS'a[536]'
p3717
aS'a[1612]'
p3718
aS'a[5290]'
p3719
aS'a[1760]'
p3720
aS'a[3950]'
p3721
aS'a[7264]'
p3722
aS'a[441]'
p3723
aS'a[194]'
p3724
aS'a[5598]'
p3725
aS'a[1662]'
p3726
aS'a[3167]'
p3727
aS'a[67]'
p3728
aS'a[4822]'
p3729
aS'a[1624]'
p3730
aS'a[1427]'
p3731
aS'a[2006]'
p3732
aS'a[441]'
p3733
aS'a[714]'
p3734
aS'a[506]'
p3735
aS'a[8998]'
p3736
aS'a[2790]'
p3737
aS'a[3261]'
p3738
aS'a[194]'
p3739
aS'a[1731]'
p3740
aS'a[6506]'
p3741
aS'a[8330]'
p3742
aS'a[8205]'
p3743
aS'a[141]'
p3744
aS'a[2374]'
p3745
aS'a[8164]'
p3746
aS'a[162]'
p3747
aS'a[4290]'
p3748
aS'a[9054]'
p3749
aS'a[7962]'
p3750
aS'a[7779]'
p3751
aS'a[3273]'
p3752
aS'a[32]'
p3753
aS'a[5664]'
p3754
aS'a[506]'
p3755
aS'a[851]'
p3756
aS'a[536]'
p3757
aS'a[162]'
p3758
aS'a[1293]'
p3759
aS'a[897]'
p3760
aS'a[1874]'
p3761
aS'a[4056]'
p3762
aS'a[6433]'
p3763
aS'a[842]'
p3764
aS'a[277]'
p3765
aS'a[162]'
p3766
aS'a[1415]'
p3767
aS'a[153]'
p3768
aS'a[5924]'
p3769
aS'a[4442]'
p3770
aS'a[284]'
p3771
aS'a[333]'
p3772
aS'a[553]'
p3773
aS'a[9060]'
p3774
aS'a[3602]'
p3775
aS'a[7351]'
p3776
aS'a[441]'
p3777
aS'a[5292]'
p3778
aS'a[194]'
p3779
aS'a[2296]'
p3780
aS'a[536]'
p3781
aS'a[6488]'
p3782
aS'a[714]'
p3783
aS'a[3264]'
p3784
aS'a[1126]'
p3785
aS'a[3192]'
p3786
aS'a[6]'
p3787
aS'a[7892]'
p3788
aS'a[206]'
p3789
aS'a[3974]'
p3790
aS'a[1676]'
p3791
aS'a[3385]'
p3792
aS'a[6]'
p3793
aS'a[6]'
p3794
aS'a[223]'
p3795
aS'a[1645]'
p3796
aS'a[382]'
p3797
aS'a[5674]'
p3798
aS'a[5292]'
p3799
aS'a[8182]'
p3800
aS'a[1427]'
p3801
aS'a[714]'
p3802
aS'a[5290]'
p3803
aS'a[8905]'
p3804
aS'a[7846]'
p3805
aS'a[566]'
p3806
aS'a[1955]'
p3807
aS'a[7978]'
p3808
aS'a[6805]'
p3809
aS'a[1529]'
p3810
aS'a[1533]'
p3811
aS'a[194]'
p3812
aS'a[5255]'
p3813
aS'a[580]'
p3814
aS'a[223]'
p3815
aS'a[1449]'
p3816
aS'a[775]'
p3817
aS'a[1567]'
p3818
aS'a[4655]'
p3819
aS'a[1612]'
p3820
aS'a[7447]'
p3821
aS'a[6971]'
p3822
aS'a[4822]'
p3823
aS'a[8826]'
p3824
aS'a[1159]'
p3825
aS'a[206]'
p3826
aS'a[536]'
p3827
aS'a[2225]'
p3828
aS'a[5623]'
p3829
aS'a[2638]'
p3830
aS'a[1188]'
p3831
aS'a[8583]'
p3832
aS'a[6144]'
p3833
aS'a[714]'
p3834
aS'a[1889]'
p3835
aS'a[1766]'
p3836
aS'a[2884]'
p3837
aS'a[5101]'
p3838
aS'a[0]'
p3839
aS'a[950]'
p3840
aS'a[9117]'
p3841
aS'a[1078]'
p3842
aS'a[5101]'
p3843
aS'a[3005]'
p3844
aS'a[5752]'
p3845
aS'a[2364]'
p3846
aS'a[1866]'
p3847
aS'a[5610]'
p3848
aS'a[4725]'
p3849
aS'a[3491]'
p3850
aS'a[7695]'
p3851
aS'a[1878]'
p3852
aS'a[4822]'
p3853
aS'a[3783]'
p3854
aS'a[4087]'
p3855
aS'a[5748]'
p3856
aS'a[8026]'
p3857
aS'a[96]'
p3858
aS'a[2859]'
p3859
aS'a[208]'
p3860
aS'a[5506]'
p3861
aS'a[880]'
p3862
aS'a[4280]'
p3863
aS'a[696]'
p3864
aS'a[6869]'
p3865
aS'a[4814]'
p3866
aS'a[3329]'
p3867
aS'a[506]'
p3868
aS'a[2057]'
p3869
aS'a[6922]'
p3870
aS'a[4374]'
p3871
aS'a[141]'
p3872
aS'a[5101]'
p3873
aS'a[5893]'
p3874
aS'a[925]'
p3875
aS'a[1612]'
p3876
aS'a[1880]'
p3877
aS'a[6603]'
p3878
aS'a[714]'
p3879
aS'a[743]'
p3880
aS'a[1262]'
p3881
aS'a[8134]'
p3882
aS'a[8911]'
p3883
aS'a[2400]'
p3884
aS'a[6586]'
p3885
aS'a[399]'
p3886
aS'a[1676]'
p3887
aS'a[4751]'
p3888
aS'a[3582]'
p3889
aS'a[7510]'
p3890
aS'a[2234]'
p3891
aS'a[790]'
p3892
aS'a[7599]'
p3893
aS'a[1319]'
p3894
aS'a[3687]'
p3895
aS'a[5677]'
p3896
aS'a[714]'
p3897
aS'a[1866]'
p3898
aS'a[3045]'
p3899
aS'a[277]'
p3900
aS'a[2805]'
p3901
aS'a[52]'
p3902
aS'a[664]'
p3903
aS'a[2442]'
p3904
aS'a[4822]'
p3905
aS'a[806]'
p3906
aS'a[3005]'
p3907
aS'a[8332]'
p3908
aS'a[875]'
p3909
aS'a[4687]'
p3910
aS'a[743]'
p3911
aS'a[4252]'
p3912
aS'a[5610]'
p3913
aS'a[4352]'
p3914
aS'a[7838]'
p3915
aS'a[847]'
p3916
aS'a[5290]'
p3917
aS'a[2374]'
p3918
aS'a[2827]'
p3919
aS'a[2549]'
p3920
aS'a[491]'
p3921
aS'a[1647]'
p3922
aS'a[6475]'
p3923
aS'a[396]'
p3924
aS'a[2410]'
p3925
aS'a[6089]'
p3926
aS'a[153]'
p3927
aS'a[3219]'
p3928
aS'a[577]'
p3929
aS'a[1889]'
p3930
aS'a[7998]'
p3931
aS'a[7068]'
p3932
aS'a[5610]'
p3933
aS'a[8412]'
p3934
aS'a[3378]'
p3935
aS'a[32]'
p3936
aS'a[7557]'
p3937
aS'a[6250]'
p3938
aS'a[2140]'
p3939
aS'a[1492]'
p3940
aS'a[5101]'
p3941
aS'a[491]'
p3942
aS'a[6609]'
p3943
aS'a[7264]'
p3944
aS'a[3050]'
p3945
aS'a[4607]'
p3946
aS'a[3388]'
p3947
aS'a[1048]'
p3948
aS'a[860]'
p3949
aS'a[4819]'
p3950
aS'a[4134]'
p3951
aS'a[785]'
p3952
aS'a[2646]'
p3953
aS'a[2032]'
p3954
aS'a[5412]'
p3955
aS'a[1644]'
p3956
aS'a[925]'
p3957
aS'a[445]'
p3958
aS'a[851]'
p3959
aS'a[1676]'
p3960
aS'a[7850]'
p3961
aS'a[6646]'
p3962
aS'a[194]'
p3963
aS'a[1803]'
p3964
aS'a[5059]'
p3965
aS'a[1065]'
p3966
aS'a[5217]'
p3967
aS'a[2549]'
p3968
aS'a[4118]'
p3969
aS'a[7731]'
p3970
aS'a[1722]'
p3971
aS'a[1272]'
p3972
aS'a[4151]'
p3973
aS'a[1612]'
p3974
aS'a[2549]'
p3975
aS'a[3685]'
p3976
aS'a[7619]'
p3977
aS'a[223]'
p3978
aS'a[817]'
p3979
aS'a[5160]'
p3980
aS'a[3162]'
p3981
aS'a[1756]'
p3982
aS'a[4713]'
p3983
aS'a[1756]'
p3984
aS'a[714]'
p3985
aS'a[162]'
p3986
aS'a[806]'
p3987
aS'a[5373]'
p3988
aS'a[206]'
p3989
aS'a[842]'
p3990
aS'a[1889]'
p3991
aS'a[880]'
p3992
aS'a[2925]'
p3993
aS'a[445]'
p3994
aS'a[7621]'
p3995
aS'a[153]'
p3996
aS'a[2781]'
p3997
aS'a[3162]'
p3998
aS'a[105]'
p3999
aS'a[7366]'
p4000
aS'a[2410]'
p4001
aS'a[2374]'
p4002
aS'a[506]'
p4003
aS'a[2367]'
p4004
aS'a[2650]'
p4005
aS'a[5586]'
p4006
aS'a[3710]'
p4007
aS'a[7770]'
p4008
aS'a[2793]'
p4009
aS'a[3868]'
p4010
aS'a[8913]'
p4011
aS'a[1727]'
p4012
aS'a[1441]'
p4013
aS'a[194]'
p4014
aS'a[1048]'
p4015
aS'a[3050]'
p4016
aS'a[4793]'
p4017
aS'a[527]'
p4018
aS'a[7914]'
p4019
aS'a[1506]'
p4020
aS'a[4087]'
p4021
aS'a[2344]'
p4022
aS'a[223]'
p4023
aS'a[223]'
p4024
aS'a[382]'
p4025
aS'a[5189]'
p4026
aS'a[170]'
p4027
aS'a[6]'
p4028
aS'a[8107]'
p4029
aS'a[1612]'
p4030
aS'a[595]'
p4031
aS'a[620]'
p4032
aS'a[4056]'
p4033
aS'a[5777]'
p4034
aS'a[6495]'
p4035
aS'a[1080]'
p4036
aS'a[8712]'
p4037
aS'a[1693]'
p4038
aS'a[2841]'
p4039
aS'a[141]'
p4040
aS'a[8834]'
p4041
aS'a[1612]'
p4042
aS'a[441]'
p4043
aS'a[506]'
p4044
aS'a[1866]'
p4045
aS'a[860]'
p4046
aS'a[1676]'
p4047
aS'a[595]'
p4048
aS'a[743]'
p4049
aS'a[506]'
p4050
aS'a[3005]'
p4051
aS'a[6254]'
p4052
aS'a[5686]'
p4053
aS'a[4283]'
p4054
aS'a[1612]'
p4055
aS'a[2549]'
p4056
aS'a[244]'
p4057
aS'a[714]'
p4058
aS'a[7978]'
p4059
aS'a[1676]'
p4060
aS'a[714]'
p4061
aS'a[1394]'
p4062
aS'a[5101]'
p4063
aS'a[170]'
p4064
aS'a[5103]'
p4065
aS'a[2510]'
p4066
aS'a[162]'
p4067
aS'a[194]'
p4068
aS'a[1676]'
p4069
aS'a[1048]'
p4070
aS'a[7088]'
p4071
aS'a[1262]'
p4072
aS'a[536]'
p4073
aS'a[4285]'
p4074
aS'a[806]'
p4075
aS'a[1612]'
p4076
aS'a[5610]'
p4077
aS'a[2632]'
p4078
aS'a[743]'
p4079
aS'a[3918]'
p4080
aS'a[1923]'
p4081
aS'a[1118]'
p4082
aS'a[8080]'
p4083
aS'a[162]'
p4084
aS'a[3995]'
p4085
aS'a[897]'
p4086
aS'a[121]'
p4087
aS'a[7264]'
p4088
aS'a[0]'
p4089
aS'a[6839]'
p4090
aS'a[806]'
p4091
aS'a[7922]'
p4092
aS'a[2006]'
p4093
aS'a[6871]'
p4094
aS'a[2549]'
p4095
aS'a[743]'
p4096
aS'a[897]'
p4097
aS'a[806]'
p4098
aS'a[4494]'
p4099
aS'a[714]'
p4100
aS'a[6]'
p4101
aS'a[121]'
p4102
aS'a[7750]'
p4103
aS'a[277]'
p4104
aS'a[1527]'
p4105
aS'a[1866]'
p4106
aS'a[506]'
p4107
aS'a[1294]'
p4108
aS'a[1655]'
p4109
aS'a[3266]'
p4110
aS'a[7998]'
p4111
aS'a[9052]'
p4112
aS'a[5552]'
p4113
aS'a[4822]'
p4114
aS'a[2608]'
p4115
aS'a[506]'
p4116
aS'a[1866]'
p4117
aS'a[3667]'
p4118
aS'a[105]'
p4119
aS'a[4822]'
p4120
aS'a[8543]'
p4121
aS'a[3556]'
p4122
aS'a[0]'
p4123
aS'a[5334]'
p4124
aS'a[7998]'
p4125
aS'a[8103]'
p4126
aS'a[1612]'
p4127
aS'a[9025]'
p4128
aS'a[1761]'
p4129
aS'a[5571]'
p4130
aS'a[4822]'
p4131
aS'a[1506]'
p4132
aS'a[6718]'
p4133
aS'a[1806]'
p4134
aS'a[3619]'
p4135
aS'a[8104]'
p4136
aS'a[7205]'
p4137
aS'a[206]'
p4138
aS'a[202]'
p4139
aS'a[2948]'
p4140
aS'a[2374]'
p4141
aS'a[536]'
p4142
aS'a[0]'
p4143
aS'a[538]'
p4144
aS'a[3807]'
p4145
aS'a[755]'
p4146
aS'a[5024]'
p4147
aS'a[4151]'
p4148
aS'a[5292]'
p4149
aS'a[32]'
p4150
aS'a[714]'
p4151
aS'a[897]'
p4152
aS'a[3262]'
p4153
aS'a[442]'
p4154
aS'a[925]'
p4155
aS'a[7781]'
p4156
aS'a[875]'
p4157
aS'a[6270]'
p4158
aS'a[8535]'
p4159
aS'a[5280]'
p4160
aS'a[3394]'
p4161
aS'a[6507]'
p4162
aS'a[595]'
p4163
aS'a[3735]'
p4164
aS'a[7689]'
p4165
aS'a[538]'
p4166
aS'a[925]'
p4167
aS'a[1001]'
p4168
aS'a[1302]'
p4169
aS'a[223]'
p4170
aS'a[6420]'
p4171
aS'a[2715]'
p4172
aS'a[445]'
p4173
aS'a[8442]'
p4174
aS'a[2006]'
p4175
aS'a[897]'
p4176
aS'a[3162]'
p4177
aS'a[1218]'
p4178
aS'a[1985]'
p4179
aS'a[7316]'
p4180
aS'a[8980]'
p4181
aS'a[96]'
p4182
aS'a[96]'
p4183
aS'a[1866]'
p4184
aS'a[7924]'
p4185
aS'a[4151]'
p4186
aS'a[2929]'
p4187
aS'a[7580]'
p4188
aS'a[714]'
p4189
aS'a[1427]'
p4190
aS'a[1676]'
p4191
aS'a[5870]'
p4192
aS'a[4822]'
p4193
aS'a[6494]'
p4194
aS'a[1159]'
p4195
aS'a[8788]'
p4196
aS'a[714]'
p4197
aS'a[4151]'
p4198
aS'a[4289]'
p4199
aS'a[4747]'
p4200
aS'a[3050]'
p4201
aS'a[170]'
p4202
aS'a[9060]'
p4203
aS'a[536]'
p4204
aS'a[842]'
p4205
aS'a[3162]'
p4206
aS'a[4907]'
p4207
aS'a[8684]'
p4208
aS'a[3918]'
p4209
aS'a[1145]'
p4210
aS'a[4144]'
p4211
aS'a[6786]'
p4212
aS'a[1756]'
p4213
aS'a[1564]'
p4214
aS'a[3048]'
p4215
aS'a[1676]'
p4216
aS'a[5604]'
p4217
aS'a[2793]'
p4218
aS'a[754]'
p4219
aS'a[2361]'
p4220
aS'a[3641]'
p4221
aS'a[1460]'
p4222
aS'a[3273]'
p4223
aS'a[1388]'
p4224
aS'a[5715]'
p4225
aS'a[714]'
p4226
aS'a[441]'
p4227
aS'a[1159]'
p4228
aS'a[880]'
p4229
aS'a[3868]'
p4230
aS'a[32]'
p4231
aS'a[8127]'
p4232
aS'a[9238]'
p4233
aS'a[8605]'
p4234
aS'a[9083]'
p4235
aS'a[206]'
p4236
aS'a[1372]'
p4237
aS'a[8518]'
p4238
aS'a[5279]'
p4239
aS'a[8942]'
p4240
aS'a[1170]'
p4241
aS'a[1262]'
p4242
aS'a[4766]'
p4243
aS'a[7038]'
p4244
aS'a[506]'
p4245
aS'a[1667]'
p4246
aS'a[1512]'
p4247
aS'a[7711]'
p4248
aS'a[5394]'
p4249
aS'a[714]'
p4250
aS'a[3918]'
p4251
aS'a[223]'
p4252
aS'a[897]'
p4253
aS'a[2549]'
p4254
aS'a[7567]'
p4255
aS'a[1427]'
p4256
aS'a[206]'
p4257
aS'a[4151]'
p4258
aS'a[44]'
p4259
aS'a[714]'
p4260
aS'a[1693]'
p4261
aS'a[860]'
p4262
aS'a[6694]'
p4263
aS'a[8547]'
p4264
aS'a[3521]'
p4265
aS'a[1495]'
p4266
aS'a[7919]'
p4267
aS'a[1693]'
p4268
aS'a[897]'
p4269
aS'a[223]'
p4270
aS'a[1866]'
p4271
aS'a[0]'
p4272
aS'a[121]'
p4273
aS'a[6117]'
p4274
aS'a[8007]'
p4275
aS'a[194]'
p4276
aS'a[4447]'
p4277
aS'a[755]'
p4278
aS'a[7609]'
p4279
aS'a[5562]'
p4280
aS'a[6966]'
p4281
aS'a[4615]'
p4282
aS'a[6761]'
p4283
aS'a[4800]'
p4284
aS'a[2587]'
p4285
aS'a[1141]'
p4286
aS'a[6519]'
p4287
aS'a[3527]'
p4288
aS'a[7173]'
p4289
aS'a[4635]'
p4290
aS'a[944]'
p4291
aS'a[194]'
p4292
aS'a[8160]'
p4293
aS'a[220]'
p4294
aS'a[2793]'
p4295
aS'a[5373]'
p4296
aS'a[1294]'
p4297
aS'a[939]'
p4298
aS'a[1994]'
p4299
aS'a[2454]'
p4300
aS'a[8722]'
p4301
aS'a[3453]'
p4302
aS'a[3184]'
p4303
aS'a[441]'
p4304
aS'a[714]'
p4305
aS'a[566]'
p4306
aS'a[7216]'
p4307
aS'a[536]'
p4308
aS'a[5148]'
p4309
aS'a[964]'
p4310
aS'a[4650]'
p4311
aS'a[714]'
p4312
aS'a[6183]'
p4313
aS'a[2006]'
p4314
aS'a[1676]'
p4315
aS'a[8184]'
p4316
aS'a[842]'
p4317
aS'a[5290]'
p4318
aS'a[8712]'
p4319
aS'a[4028]'
p4320
aS'a[5269]'
p4321
aS'a[4444]'
p4322
aS'a[1090]'
p4323
aS'a[786]'
p4324
aS'a[7240]'
p4325
aS'a[3905]'
p4326
aS'a[1585]'
p4327
aS'a[8583]'
p4328
aS'a[4324]'
p4329
aS'a[897]'
p4330
aS'a[1598]'
p4331
aS'a[96]'
p4332
aS'a[806]'
p4333
aS'a[8214]'
p4334
aS'a[491]'
p4335
aS'a[6257]'
p4336
aS'a[3005]'
p4337
aS'a[1187]'
p4338
aS'a[445]'
p4339
aS'a[875]'
p4340
aS'a[4650]'
p4341
aS'a[3698]'
p4342
aS'a[223]'
p4343
aS'a[170]'
p4344
aS'a[3162]'
p4345
aS'a[3663]'
p4346
aS'a[867]'
p4347
aS'a[313]'
p4348
aS'a[6161]'
p4349
aS'a[1056]'
p4350
aS'a[3005]'
p4351
aS'a[8509]'
p4352
aS'a[5748]'
p4353
aS'a[4822]'
p4354
aS'a[536]'
p4355
aS'a[2808]'
p4356
aS'a[105]'
p4357
aS'a[223]'
p4358
aS'a[1889]'
p4359
aS'a[1531]'
p4360
aS'a[3428]'
p4361
aS'a[1756]'
p4362
aS'a[5101]'
p4363
aS'a[2978]'
p4364
aS'a[244]'
p4365
aS'a[5736]'
p4366
aS'a[7671]'
p4367
aS'a[239]'
p4368
aS'a[5610]'
p4369
aS'a[1866]'
p4370
aS'a[5292]'
p4371
aS'a[6924]'
p4372
aS'a[4353]'
p4373
aS'a[7828]'
p4374
aS'a[714]'
p4375
aS'a[897]'
p4376
aS'a[4457]'
p4377
aS'a[5373]'
p4378
aS'a[105]'
p4379
aS'a[52]'
p4380
aS'a[880]'
p4381
aS'a[890]'
p4382
aS'a[506]'
p4383
aS'a[8603]'
p4384
aS'a[1176]'
p4385
aS'a[1612]'
p4386
aS'a[8320]'
p4387
aS'a[1506]'
p4388
aS'a[842]'
p4389
aS'a[595]'
p4390
aS'a[8776]'
p4391
aS'a[1014]'
p4392
aS'a[35]'
p4393
aS'a[4321]'
p4394
aS'a[141]'
p4395
aS'a[5373]'
p4396
aS'a[52]'
p4397
aS'a[4892]'
p4398
aS'a[4317]'
p4399
aS'a[8156]'
p4400
aS'a[3050]'
p4401
aS'a[5610]'
p4402
aS'a[925]'
p4403
aS'a[127]'
p4404
aS'a[1427]'
p4405
aS'a[7497]'
p4406
aS'a[2612]'
p4407
aS'a[714]'
p4408
aS'a[8112]'
p4409
aS'a[223]'
p4410
aS'a[2594]'
p4411
aS'a[897]'
p4412
aS'a[2410]'
p4413
aS'a[8816]'
p4414
aS'a[270]'
p4415
aS'a[206]'
p4416
aS'a[7751]'
p4417
aS'a[8436]'
p4418
aS'a[1441]'
p4419
aS'a[194]'
p4420
aS'a[5489]'
p4421
aS'a[3666]'
p4422
aS'a[860]'
p4423
aS'a[382]'
p4424
aS'a[5727]'
p4425
aS'a[1159]'
p4426
aS'a[6186]'
p4427
aS'a[620]'
p4428
aS'a[5610]'
p4429
aS'a[170]'
p4430
aS'a[897]'
p4431
aS'a[2374]'
p4432
aS'a[5101]'
p4433
aS'a[7779]'
p4434
aS'a[6649]'
p4435
aS'a[506]'
p4436
aS'a[2585]'
p4437
aS'a[897]'
p4438
aS'a[7517]'
p4439
aS'a[2361]'
p4440
aS'a[7243]'
p4441
aS'a[1487]'
p4442
aS'a[141]'
p4443
aS'a[5375]'
p4444
aS'a[7026]'
p4445
aS'a[6797]'
p4446
aS'a[6636]'
p4447
aS'a[244]'
p4448
aS'a[3817]'
p4449
aS'a[6368]'
p4450
aS'a[875]'
p4451
aS'a[6609]'
p4452
aS'a[194]'
p4453
aS'a[206]'
p4454
aS'a[4642]'
p4455
aS'a[897]'
p4456
aS'a[67]'
p4457
aS'a[4056]'
p4458
aS'a[4087]'
p4459
aS'a[5610]'
p4460
aS'a[4176]'
p4461
aS'a[7356]'
p4462
aS'a[445]'
p4463
aS'a[8081]'
p4464
aS'a[5939]'
p4465
aS'a[422]'
p4466
aS'a[1545]'
p4467
aS'a[890]'
p4468
aS'a[153]'
p4469
aS'a[5338]'
p4470
aS'a[6963]'
p4471
aS'a[206]'
p4472
aS'a[206]'
p4473
aS'a[3873]'
p4474
aS'a[4056]'
p4475
aS'a[3363]'
p4476
aS'a[0]'
p4477
aS'a[2876]'
p4478
aS'a[2753]'
p4479
aS'a[1624]'
p4480
aS'a[2093]'
p4481
aS'a[162]'
p4482
aS'a[755]'
p4483
aS'a[153]'
p4484
aS'a[3050]'
p4485
aS'a[7764]'
p4486
aS'a[1695]'
p4487
aS'a[6223]'
p4488
aS'a[925]'
p4489
aS'a[4151]'
p4490
aS'a[121]'
p4491
aS'a[2770]'
p4492
aS'a[194]'
p4493
aS'a[1624]'
p4494
aS'a[7182]'
p4495
aS'a[2177]'
p4496
aS'a[8474]'
p4497
aS'a[4589]'
p4498
aS'a[3709]'
p4499
aS'a[2549]'
p4500
aS'a[1564]'
p4501
aS'a[6255]'
p4502
aS'a[202]'
p4503
aS'a[6]'
p4504
aS'a[4822]'
p4505
aS'a[4661]'
p4506
aS'a[5570]'
p4507
aS'a[206]'
p4508
aS'a[7555]'
p4509
aS'a[714]'
p4510
aS'a[4151]'
p4511
aS'a[6017]'
p4512
aS'a[7978]'
p4513
aS'a[6202]'
p4514
aS'a[4777]'
p4515
aS'a[491]'
p4516
aS'a[851]'
p4517
aS'a[1262]'
p4518
aS'a[536]'
p4519
aS'a[6434]'
p4520
aS'a[2194]'
p4521
aS'a[5110]'
p4522
aS'a[2501]'
p4523
aS'a[2793]'
p4524
aS'a[8044]'
p4525
aS'a[5912]'
p4526
aS'a[8174]'
p4527
aS'a[1676]'
p4528
aS'a[575]'
p4529
aS'a[7483]'
p4530
aS'a[153]'
p4531
aS'a[1624]'
p4532
aS'a[852]'
p4533
aS'a[7980]'
p4534
aS'a[7978]'
p4535
aS'a[1155]'
p4536
aS'a[1676]'
p4537
aS'a[755]'
p4538
aS'a[880]'
p4539
aS'a[506]'
p4540
aS'a[8051]'
p4541
aS'a[5028]'
p4542
aS'a[1262]'
p4543
aS'a[1319]'
p4544
aS'a[1427]'
p4545
aS'a[5041]'
p4546
aS'a[3524]'
p4547
aS'a[355]'
p4548
aS'a[3344]'
p4549
aS'a[897]'
p4550
aS'a[842]'
p4551
aS'a[206]'
p4552
aS'a[1889]'
p4553
aS'a[580]'
p4554
aS'a[595]'
p4555
aS'a[5362]'
p4556
aS'a[9206]'
p4557
aS'a[7140]'
p4558
aS'a[1427]'
p4559
aS'a[1564]'
p4560
aS'a[1262]'
p4561
aS'a[8255]'
p4562
aS'a[1997]'
p4563
aS'a[4822]'
p4564
aS'a[5610]'
p4565
aS'a[817]'
p4566
aS'a[714]'
p4567
aS'a[842]'
p4568
aS'a[194]'
p4569
aS'a[790]'
p4570
aS'a[121]'
p4571
aS'a[52]'
p4572
aS'a[6]'
p4573
aS'a[4103]'
p4574
aS'a[2410]'
p4575
aS'a[714]'
p4576
aS'a[6240]'
p4577
aS'a[842]'
p4578
aS'a[96]'
p4579
aS'a[6782]'
p4580
aS'a[399]'
p4581
aS'a[1952]'
p4582
aS'a[121]'
p4583
aS'a[67]'
p4584
aS'a[8607]'
p4585
aS'a[5444]'
p4586
aS'a[1756]'
p4587
aS'a[2393]'
p4588
aS'a[2306]'
p4589
aS'a[949]'
p4590
aS'a[6122]'
p4591
aS'a[506]'
p4592
aS'a[89]'
p4593
aS'a[5853]'
p4594
aS'a[4668]'
p4595
aS'a[3374]'
p4596
aS'a[278]'
p4597
aS'a[7998]'
p4598
aS'a[3918]'
p4599
aS'a[223]'
p4600
aS'a[441]'
p4601
aS'a[2410]'
p4602
aS'a[2803]'
p4603
aS'a[2297]'
p4604
aS'a[2549]'
p4605
aS'a[3749]'
p4606
aS'a[620]'
p4607
aS'a[8079]'
p4608
aS'a[3050]'
p4609
aS'a[153]'
p4610
aS'a[7677]'
p4611
aS'a[67]'
p4612
aS'a[445]'
p4613
aS'a[6767]'
p4614
aS'a[3162]'
p4615
aS'a[5373]'
p4616
aS'a[2549]'
p4617
aS'a[7566]'
p4618
aS'a[32]'
p4619
aS'a[2692]'
p4620
aS'a[0]'
p4621
aS'a[3771]'
p4622
aS'a[5290]'
p4623
aS'a[6829]'
p4624
aS'a[1889]'
p4625
aS'a[1612]'
p4626
aS'a[2986]'
p4627
aS'a[8163]'
p4628
aS'a[202]'
p4629
aS'a[3121]'
p4630
aS'a[5292]'
p4631
aS'a[5373]'
p4632
aS'a[5715]'
p4633
aS'a[3007]'
p4634
aS'a[1612]'
p4635
aS'a[8149]'
p4636
aS'a[696]'
p4637
aS'a[5714]'
p4638
aS'a[8926]'
p4639
aS'a[1859]'
p4640
aS'a[595]'
p4641
aS'a[206]'
p4642
aS'a[244]'
p4643
aS'a[9166]'
p4644
aS'a[3025]'
p4645
aS'a[2549]'
p4646
aS'a[4831]'
p4647
aS'a[860]'
p4648
aS'a[8460]'
p4649
aS'a[1720]'
p4650
aS'a[3162]'
p4651
aS'a[1262]'
p4652
aS'a[4087]'
p4653
aS'a[52]'
p4654
aS'a[0]'
p4655
aS'a[170]'
p4656
aS'a[6444]'
p4657
aS'a[208]'
p4658
aS'a[3780]'
p4659
aS'a[8827]'
p4660
aS'a[206]'
p4661
aS'a[1506]'
p4662
aS'a[3050]'
p4663
aS'a[2006]'
p4664
aS'a[714]'
p4665
aS'a[2121]'
p4666
aS'a[897]'
p4667
aS'a[8251]'
p4668
aS'a[491]'
p4669
aS'a[1250]'
p4670
aS'a[3162]'
p4671
aS'a[1612]'
p4672
aS'a[206]'
p4673
aS'a[12]'
p4674
aS'a[2583]'
p4675
aS'a[3479]'
p4676
aS'a[6772]'
p4677
aS'a[399]'
p4678
aS'a[3526]'
p4679
aS'a[1662]'
p4680
aS'a[817]'
p4681
aS'a[595]'
p4682
aS'a[0]'
p4683
aS'a[890]'
p4684
aS'a[7998]'
p4685
aS'a[842]'
p4686
aS'a[2410]'
p4687
aS'a[491]'
p4688
aS'a[7818]'
p4689
aS'a[441]'
p4690
aS'a[7998]'
p4691
aS'a[32]'
p4692
aS'a[1048]'
p4693
aS'a[0]'
p4694
aS'a[1977]'
p4695
aS'a[1564]'
p4696
aS'a[4192]'
p4697
aS'a[5494]'
p4698
aS'a[8819]'
p4699
aS'a[421]'
p4700
aS'a[4780]'
p4701
aS'a[3941]'
p4702
aS'a[730]'
p4703
aS'a[7231]'
p4704
aS'a[202]'
p4705
aS'a[121]'
p4706
aS'a[4032]'
p4707
aS'a[441]'
p4708
aS'a[288]'
p4709
aS'a[5989]'
p4710
aS'a[153]'
p4711
aS'a[6]'
p4712
aS'a[7864]'
p4713
aS'a[7749]'
p4714
aS'a[2374]'
p4715
aS'a[0]'
p4716
aS'a[6]'
p4717
aS'a[1266]'
p4718
aS'a[87]'
p4719
aS'a[1048]'
p4720
aS'a[2451]'
p4721
aS'a[105]'
p4722
aS'a[3158]'
p4723
aS'a[755]'
p4724
aS'a[851]'
p4725
aS'a[2006]'
p4726
aS'a[4762]'
p4727
aS'a[1365]'
p4728
aS'a[9195]'
p4729
aS'a[2698]'
p4730
aS'a[1436]'
p4731
aS'a[1695]'
p4732
aS'a[842]'
p4733
aS'a[714]'
p4734
aS'a[8371]'
p4735
aS'a[2641]'
p4736
aS'a[595]'
p4737
aS'a[895]'
p4738
aS'a[1350]'
p4739
aS'a[2933]'
p4740
aS'a[141]'
p4741
aS'a[223]'
p4742
aS'a[153]'
p4743
aS'a[696]'
p4744
aS'a[1253]'
p4745
aS'a[198]'
p4746
aS'a[5610]'
p4747
aS'a[4874]'
p4748
aS'a[4151]'
p4749
aS'a[162]'
p4750
aS'a[441]'
p4751
aS'a[743]'
p4752
aS'a[2339]'
p4753
aS'a[7812]'
p4754
aS'a[1676]'
p4755
aS'a[6268]'
p4756
aS'a[223]'
p4757
aS'a[620]'
p4758
aS'a[52]'
p4759
aS'a[5577]'
p4760
aS'a[6184]'
p4761
aS'a[5373]'
p4762
aS'a[141]'
p4763
aS'a[3510]'
p4764
aS'a[2410]'
p4765
aS'a[4822]'
p4766
aS'a[4056]'
p4767
aS'a[2653]'
p4768
aS'a[7976]'
p4769
aS'a[8943]'
p4770
aS'a[588]'
p4771
aS'a[506]'
p4772
aS'a[2692]'
p4773
aS'a[7329]'
p4774
aS'a[292]'
p4775
aS'a[176]'
p4776
aS'a[1048]'
p4777
aS'a[3621]'
p4778
aS'a[194]'
p4779
aS'a[2889]'
p4780
aS'a[2223]'
p4781
aS'a[223]'
p4782
aS'a[3162]'
p4783
aS'a[536]'
p4784
aS'a[194]'
p4785
aS'a[595]'
p4786
aS'a[445]'
p4787
aS'a[4981]'
p4788
aS'a[714]'
p4789
aS'a[8794]'
p4790
aS'a[880]'
p4791
aS'a[3982]'
p4792
aS'a[3192]'
p4793
aS'a[7656]'
p4794
aS'a[3005]'
p4795
aS'a[2374]'
p4796
aS'a[5640]'
p4797
aS'a[4213]'
p4798
aS'a[842]'
p4799
aS'a[1756]'
p4800
aS'a[880]'
p4801
aS'a[3277]'
p4802
aS'a[842]'
p4803
aS'a[8872]'
p4804
aS'a[0]'
p4805
aS'a[445]'
p4806
aS'a[5144]'
p4807
aS'a[1427]'
p4808
aS'a[1159]'
p4809
aS'a[5290]'
p4810
aS'a[5744]'
p4811
aS'a[1612]'
p4812
aS'a[7484]'
p4813
aS'a[6009]'
p4814
aS'a[8955]'
p4815
aS'a[842]'
p4816
aS'a[1048]'
p4817
aS'a[6172]'
p4818
aS'a[1173]'
p4819
aS'a[538]'
p4820
aS'a[9240]'
p4821
aS'a[696]'
p4822
aS'a[2410]'
p4823
aS'a[4381]'
p4824
aS'a[7455]'
p4825
aS'a[8008]'
p4826
aS'a[208]'
p4827
aS'a[875]'
p4828
aS'a[1564]'
p4829
aS'a[5384]'
p4830
aS'a[9039]'
p4831
aS'a[714]'
p4832
aS'a[4056]'
p4833
aS'a[6]'
p4834
aS'a[2561]'
p4835
aS'a[696]'
p4836
aS'a[1564]'
p4837
aS'a[714]'
p4838
aS'a[538]'
p4839
aS'a[714]'
p4840
aS'a[223]'
p4841
aS'a[1413]'
p4842
aS'a[8404]'
p4843
aS'a[5590]'
p4844
aS'a[105]'
p4845
aS'a[7341]'
p4846
aS'a[880]'
p4847
aS'a[6862]'
p4848
aS'a[141]'
p4849
aS'a[1528]'
p4850
aS'a[3573]'
p4851
aS'a[4056]'
p4852
aS'a[4104]'
p4853
aS'a[1972]'
p4854
aS'a[3050]'
p4855
aS'a[1676]'
p4856
aS'a[2374]'
p4857
aS'a[5184]'
p4858
aS'a[7998]'
p4859
aS'a[171]'
p4860
aS'a[1676]'
p4861
aS'a[3868]'
p4862
aS'a[8811]'
p4863
aS'a[1149]'
p4864
aS'a[3811]'
p4865
aS'a[897]'
p4866
aS'a[141]'
p4867
aS'a[742]'
p4868
aS'a[2202]'
p4869
aS'a[566]'
p4870
aS'a[8463]'
p4871
aS'a[6335]'
p4872
aS'a[5905]'
p4873
aS'a[0]'
p4874
aS'a[790]'
p4875
aS'a[7682]'
p4876
aS'a[6131]'
p4877
aS'a[4289]'
p4878
aS'a[3184]'
p4879
aS'a[1225]'
p4880
aS'a[410]'
p4881
aS'a[4460]'
p4882
aS'a[194]'
p4883
aS'a[1756]'
p4884
aS'a[6427]'
p4885
aS'a[7027]'
p4886
aS'a[162]'
p4887
aS'a[3473]'
p4888
aS'a[2579]'
p4889
aS'a[1441]'
p4890
aS'a[536]'
p4891
aS'a[6831]'
p4892
aS'a[8955]'
p4893
aS'a[202]'
p4894
aS'a[851]'
p4895
aS'a[4822]'
p4896
aS'a[5122]'
p4897
aS'a[851]'
p4898
aS'a[445]'
p4899
aS'a[2203]'
p4900
aS'a[1800]'
p4901
aS'a[1056]'
p4902
aS'a[4056]'
p4903
aS'a[1885]'
p4904
aS'a[4332]'
p4905
aS'a[1612]'
p4906
aS'a[1047]'
p4907
aS'a[7185]'
p4908
aS'a[491]'
p4909
aS'a[1564]'
p4910
aS'a[842]'
p4911
aS'a[4289]'
p4912
aS'a[5810]'
p4913
aS'a[5586]'
p4914
aS'a[6732]'
p4915
aS'a[5883]'
p4916
aS'a[8327]'
p4917
aS'a[2073]'
p4918
aS'a[897]'
p4919
aS'a[8309]'
p4920
aS'a[8088]'
p4921
aS'a[121]'
p4922
aS'a[3273]'
p4923
aS'a[6609]'
p4924
aS'a[4151]'
p4925
aS'a[7022]'
p4926
aS'a[2484]'
p4927
aS'a[536]'
p4928
aS'a[580]'
p4929
aS'a[1894]'
p4930
aS'a[3237]'
p4931
aS'a[3838]'
p4932
aS'a[194]'
p4933
aS'a[441]'
p4934
aS'a[223]'
p4935
aS'a[202]'
p4936
aS'a[4999]'
p4937
aS'a[3562]'
p4938
aS'a[4452]'
p4939
aS'a[1676]'
p4940
aS'a[1676]'
p4941
aS'a[0]'
p4942
aS'a[3500]'
p4943
aS'a[223]'
p4944
aS'a[1403]'
p4945
aS'a[1612]'
p4946
aS'a[3230]'
p4947
aS'a[223]'
p4948
aS'a[3993]'
p4949
aS'a[3918]'
p4950
aS'a[96]'
p4951
aS'a[2881]'
p4952
aS'a[7565]'
p4953
aS'a[2006]'
p4954
aS'a[3172]'
p4955
aS'a[620]'
p4956
aS'a[2116]'
p4957
aS'a[8699]'
p4958
aS'a[6613]'
p4959
aS'a[3868]'
p4960
aS'a[121]'
p4961
aS'a[277]'
p4962
aS'a[1240]'
p4963
aS'a[890]'
p4964
aS'a[806]'
p4965
aS'a[2044]'
p4966
aS'a[7105]'
p4967
aS'a[1564]'
p4968
aS'a[1225]'
p4969
aS'a[1612]'
p4970
aS'a[2194]'
p4971
aS'a[96]'
p4972
aS'a[3571]'
p4973
aS'a[134]'
p4974
aS'a[7978]'
p4975
aS'a[1262]'
p4976
aS'a[5292]'
p4977
aS'a[6012]'
p4978
aS'a[5290]'
p4979
aS'a[851]'
p4980
aS'a[1866]'
p4981
aS'a[6636]'
p4982
aS'a[1564]'
p4983
aS'a[1159]'
p4984
aS'a[3577]'
p4985
aS'a[202]'
p4986
aS'a[441]'
p4987
aS'a[6553]'
p4988
aS'a[827]'
p4989
aS'a[925]'
p4990
aS'a[3188]'
p4991
aS'a[3868]'
p4992
aS'a[3973]'
p4993
aS'a[170]'
p4994
aS'a[7408]'
p4995
aS'a[67]'
p4996
aS'a[7264]'
p4997
aS'a[5292]'
p4998
aS'a[3273]'
p4999
aS'a[7341]'
p5000
aS'a[141]'
p5001
aS'a[1379]'
p5002
aS'a[523]'
p5003
aS'a[4025]'
p5004
aS'a[2410]'
p5005
aS'a[4056]'
p5006
aS'a[698]'
p5007
aS'a[5207]'
p5008
aS'a[32]'
p5009
aS'a[8376]'
p5010
aS'a[897]'
p5011
aS'a[206]'
p5012
aS'a[5173]'
p5013
aS'a[506]'
p5014
aS'a[743]'
p5015
aS'a[244]'
p5016
aS'a[6372]'
p5017
aS'a[875]'
p5018
aS'a[0]'
p5019
aS'a[1048]'
p5020
aS'a[3675]'
p5021
aS'a[696]'
p5022
aS'a[399]'
p5023
aS'a[980]'
p5024
aS'a[4408]'
p5025
aS'a[5221]'
p5026
aS'a[153]'
p5027
aS'a[6328]'
p5028
aS'a[2825]'
p5029
aS'a[202]'
p5030
aS'a[842]'
p5031
aS'a[1676]'
p5032
aS'a[620]'
p5033
aS'a[4139]'
p5034
aS'a[7998]'
p5035
aS'a[3129]'
p5036
aS'a[4613]'
p5037
aS'a[506]'
p5038
aS'a[1336]'
p5039
aS'a[1866]'
p5040
aS'a[1493]'
p5041
aS'a[141]'
p5042
aS'a[1756]'
p5043
aS'a[8780]'
p5044
aS'a[8086]'
p5045
aS'a[3592]'
p5046
aS'a[7264]'
p5047
aS'a[3162]'
p5048
aS'a[3273]'
p5049
aS'a[6658]'
p5050
aS'a[7722]'
p5051
aS'a[1674]'
p5052
aS'a[3918]'
p5053
aS'a[3918]'
p5054
aS'a[1564]'
p5055
aS'a[9224]'
p5056
aS'a[595]'
p5057
aS'a[6247]'
p5058
aS'a[2045]'
p5059
aS'a[9069]'
p5060
aS'a[3837]'
p5061
aS'a[3434]'
p5062
aS'a[860]'
p5063
aS'a[1262]'
p5064
aS'a[710]'
p5065
aS'a[2374]'
p5066
aS'a[506]'
p5067
aS'a[8381]'
p5068
aS'a[536]'
p5069
aS'a[4583]'
p5070
aS'a[860]'
p5071
aS'a[3417]'
p5072
aS'a[162]'
p5073
aS'a[453]'
p5074
aS'a[929]'
p5075
aS'a[5468]'
p5076
aS'a[0]'
p5077
aS'a[1223]'
p5078
aS'a[580]'
p5079
aS'a[1506]'
p5080
aS'a[714]'
p5081
aS'a[714]'
p5082
aS'a[4134]'
p5083
aS'a[5290]'
p5084
aS'a[5760]'
p5085
aS'a[7443]'
p5086
aS'a[1624]'
p5087
aS'a[714]'
p5088
aS'a[2084]'
p5089
aS'a[2673]'
p5090
aS'a[890]'
p5091
aS'a[3273]'
p5092
aS'a[595]'
p5093
aS'a[67]'
p5094
aS'a[0]'
p5095
aS'a[1676]'
p5096
aS'a[223]'
p5097
aS'a[208]'
p5098
aS'a[880]'
p5099
aS'a[5785]'
p5100
aS'a[5189]'
p5101
aS'a[194]'
p5102
aS'a[2591]'
p5103
aS'a[6]'
p5104
aS'a[105]'
p5105
aS'a[5376]'
p5106
aS'a[2574]'
p5107
aS'a[2793]'
p5108
aS'a[1555]'
p5109
aS'a[1481]'
p5110
aS'a[890]'
p5111
aS'a[96]'
p5112
aS'a[6675]'
p5113
aS'a[1506]'
p5114
aS'a[506]'
p5115
aS'a[3071]'
p5116
aS'a[399]'
p5117
aS'a[1257]'
p5118
aS'a[4822]'
p5119
aS'a[4289]'
p5120
aS'a[7338]'
p5121
aS'a[1056]'
p5122
aS'a[659]'
p5123
aS'a[200]'
p5124
aS'a[1866]'
p5125
aS'a[1555]'
p5126
aS'a[897]'
p5127
aS'a[536]'
p5128
aS'a[2222]'
p5129
aS'a[3197]'
p5130
aS'a[1756]'
p5131
aS'a[860]'
p5132
aS'a[5611]'
p5133
aS'a[1612]'
p5134
aS'a[4087]'
p5135
aS'a[810]'
p5136
aS'a[7472]'
p5137
aS'a[1441]'
p5138
aS'a[399]'
p5139
aS'a[8022]'
p5140
aS'a[2061]'
p5141
aS'a[1564]'
p5142
aS'a[206]'
p5143
aS'a[3852]'
p5144
aS'a[8877]'
p5145
aS'a[536]'
p5146
aS'a[2410]'
p5147
aS'a[162]'
p5148
aS'a[755]'
p5149
aS'a[1542]'
p5150
aS'a[3416]'
p5151
aS'a[2892]'
p5152
aS'a[8323]'
p5153
aS'a[566]'
p5154
aS'a[6447]'
p5155
aS'a[6599]'
p5156
aS'a[2901]'
p5157
aS'a[3868]'
p5158
aS'a[897]'
p5159
aS'a[206]'
p5160
aS'a[2901]'
p5161
aS'a[96]'
p5162
aS'a[4089]'
p5163
aS'a[1756]'
p5164
aS'a[7791]'
p5165
aS'a[206]'
p5166
aS'a[445]'
p5167
aS'a[223]'
p5168
aS'a[875]'
p5169
aS'a[1056]'
p5170
aS'a[5399]'
p5171
aS'a[399]'
p5172
aS'a[580]'
p5173
aS'a[2793]'
p5174
aS'a[445]'
p5175
aS'a[1725]'
p5176
aS'a[8750]'
p5177
aS'a[8692]'
p5178
aS'a[3424]'
p5179
aS'a[2340]'
p5180
aS'a[4087]'
p5181
aS'a[3784]'
p5182
aS'a[737]'
p5183
aS'a[8651]'
p5184
aS'a[8975]'
p5185
aS'a[6753]'
p5186
aS'a[2612]'
p5187
aS'a[3005]'
p5188
aS'a[491]'
p5189
aS'a[5210]'
p5190
aS'a[2374]'
p5191
aS'a[105]'
p5192
aS'a[3353]'
p5193
aS'a[714]'
p5194
aS'a[8915]'
p5195
aS'a[396]'
p5196
aS'a[6663]'
p5197
aS'a[3005]'
p5198
aS'a[141]'
p5199
aS'a[6691]'
p5200
aS'a[2473]'
p5201
aS'a[2441]'
p5202
aS'a[506]'
p5203
aS'a[897]'
p5204
aS'a[3421]'
p5205
aS'a[1427]'
p5206
aS'a[1676]'
p5207
aS'a[1676]'
p5208
aS'a[7722]'
p5209
aS'a[3062]'
p5210
aS'a[121]'
p5211
aS'a[714]'
p5212
aS'a[8511]'
p5213
aS'a[5213]'
p5214
aS'a[3162]'
p5215
aS'a[8450]'
p5216
aS'a[1693]'
p5217
aS'a[2790]'
p5218
aS'a[2958]'
p5219
aS'a[4258]'
p5220
aS'a[4151]'
p5221
aS'a[538]'
p5222
aS'a[1676]'
p5223
aS'a[1159]'
p5224
aS'a[6459]'
p5225
aS'a[206]'
p5226
aS'a[162]'
p5227
aS'a[5373]'
p5228
aS'a[445]'
p5229
aS'a[897]'
p5230
aS'a[4056]'
p5231
aS'a[3238]'
p5232
aS'a[3479]'
p5233
aS'a[696]'
p5234
aS'a[4780]'
p5235
aS'a[121]'
p5236
aS'a[538]'
p5237
aS'a[1159]'
p5238
aS'a[743]'
p5239
aS'a[2511]'
p5240
aS'a[696]'
p5241
aS'a[536]'
p5242
aS'a[875]'
p5243
aS'a[8500]'
p5244
aS'a[1056]'
p5245
aS'a[897]'
p5246
aS'a[4822]'
p5247
aS'a[1693]'
p5248
aS'a[0]'
p5249
aS'a[1048]'
p5250
aS'a[202]'
p5251
aS'a[208]'
p5252
aS'a[755]'
p5253
aS'a[1866]'
p5254
aS'a[8909]'
p5255
aS'a[8964]'
p5256
aS'a[123]'
p5257
aS'a[646]'
p5258
aS'a[842]'
p5259
aS'a[7482]'
p5260
aS'a[1428]'
p5261
aS'a[5969]'
p5262
aS'a[3192]'
p5263
aS'a[8360]'
p5264
aS'a[7914]'
p5265
aS'a[3069]'
p5266
aS'a[170]'
p5267
aS'a[6903]'
p5268
aS'a[6871]'
p5269
aS'a[8398]'
p5270
aS'a[162]'
p5271
aS'a[7738]'
p5272
aS'a[3162]'
p5273
aS'a[399]'
p5274
aS'a[1533]'
p5275
aS'a[506]'
p5276
aS'a[1427]'
p5277
aS'a[7416]'
p5278
aS'a[223]'
p5279
aS'a[7910]'
p5280
aS'a[851]'
p5281
aS'a[2549]'
p5282
aS'a[1139]'
p5283
aS'a[382]'
p5284
aS'a[244]'
p5285
aS'a[4056]'
p5286
aS'a[890]'
p5287
aS'a[580]'
p5288
aS'a[1043]'
p5289
aS'a[5865]'
p5290
aS'a[52]'
p5291
aS'a[8475]'
p5292
aS'a[8304]'
p5293
aS'a[8888]'
p5294
aS'a[9021]'
p5295
aS'a[194]'
p5296
aS'a[880]'
p5297
aS'a[3005]'
p5298
aS'a[7998]'
p5299
aS'a[40]'
p5300
aS'a[4850]'
p5301
aS'a[6152]'
p5302
aS'a[6629]'
p5303
aS'a[3162]'
p5304
aS'a[1676]'
p5305
aS'a[2612]'
p5306
aS'a[3356]'
p5307
aS'a[9050]'
p5308
aS'a[7130]'
p5309
aS'a[558]'
p5310
aS'a[162]'
p5311
aS'a[491]'
p5312
aS'a[714]'
p5313
aS'a[89]'
p5314
aS'a[8726]'
p5315
aS'a[244]'
p5316
aS'a[8503]'
p5317
aS'a[6802]'
p5318
aS'a[3897]'
p5319
aS'a[123]'
p5320
aS'a[2259]'
p5321
aS'a[1150]'
p5322
aS'a[1612]'
p5323
aS'a[817]'
p5324
aS'a[1939]'
p5325
aS'a[913]'
p5326
aS'a[842]'
p5327
aS'a[3868]'
p5328
aS'a[1693]'
p5329
aS'a[223]'
p5330
aS'a[5290]'
p5331
aS'a[3619]'
p5332
aS'a[4136]'
p5333
aS'a[972]'
p5334
aS'a[8771]'
p5335
aS'a[1165]'
p5336
aS'a[121]'
p5337
aS'a[3651]'
p5338
aS'a[506]'
p5339
aS'a[6713]'
p5340
aS'a[6644]'
p5341
aS'a[3273]'
p5342
aS'a[7998]'
p5343
aS'a[714]'
p5344
aS'a[2549]'
p5345
aS'a[153]'
p5346
aS'a[865]'
p5347
aS'a[3276]'
p5348
aS'a[5762]'
p5349
aS'a[3918]'
p5350
aS'a[5969]'
p5351
aS'a[1653]'
p5352
aS'a[1612]'
p5353
aS'a[4653]'
p5354
aS'a[1048]'
p5355
aS'a[1011]'
p5356
aS'a[194]'
p5357
aS'a[1761]'
p5358
aS'a[3162]'
p5359
aS'a[7346]'
p5360
aS'a[9011]'
p5361
aS'a[1618]'
p5362
aS'a[8488]'
p5363
aS'a[141]'
p5364
aS'a[4583]'
p5365
aS'a[620]'
p5366
aS'a[875]'
p5367
aS'a[2549]'
p5368
aS'a[7467]'
p5369
aS'a[295]'
p5370
aS'a[491]'
p5371
aS'a[875]'
p5372
aS'a[1929]'
p5373
aS'a[3817]'
p5374
aS'a[105]'
p5375
aS'a[5305]'
p5376
aS'a[2410]'
p5377
aS'a[8106]'
p5378
aS'a[5373]'
p5379
aS'a[5716]'
p5380
aS'a[6]'
p5381
aS'a[5373]'
p5382
aS'a[6442]'
p5383
aS'a[491]'
p5384
aS'a[7945]'
p5385
aS'a[1756]'
p5386
aS'a[755]'
p5387
aS'a[5101]'
p5388
aS'a[4193]'
p5389
aS'a[1160]'
p5390
aS'a[5479]'
p5391
aS'a[223]'
p5392
aS'a[4839]'
p5393
aS'a[1755]'
p5394
aS'a[0]'
p5395
aS'a[170]'
p5396
aS'a[4170]'
p5397
aS'a[2612]'
p5398
aS'a[3763]'
p5399
aS'a[7998]'
p5400
aS'a[7905]'
p5401
aS'a[8239]'
p5402
aS'a[1427]'
p5403
aS'a[5101]'
p5404
aS'a[8514]'
p5405
aS'a[4289]'
p5406
aS'a[580]'
p5407
aS'a[491]'
p5408
aS'a[2332]'
p5409
aS'a[67]'
p5410
aS'a[441]'
p5411
aS'a[1612]'
p5412
aS'a[2517]'
p5413
aS'a[279]'
p5414
aS'a[3465]'
p5415
aS'a[714]'
p5416
aS'a[897]'
p5417
aS'a[382]'
p5418
aS'a[0]'
p5419
aS'a[5373]'
p5420
aS'a[3117]'
p5421
aS'a[0]'
p5422
aS'a[890]'
p5423
aS'a[4822]'
p5424
aS'a[4359]'
p5425
aS'a[3036]'
p5426
aS'a[445]'
p5427
aS'a[2702]'
p5428
aS'a[4643]'
p5429
aS'a[2281]'
p5430
aS'a[1866]'
p5431
aS'a[5303]'
p5432
aS'a[1417]'
p5433
aS'a[2374]'
p5434
aS'a[4562]'
p5435
aS'a[714]'
p5436
aS'a[6500]'
p5437
aS'a[32]'
p5438
aS'a[1536]'
p5439
aS'a[4289]'
p5440
aS'a[1335]'
p5441
aS'a[7523]'
p5442
aS'a[7295]'
p5443
aS'a[1616]'
p5444
aS'a[3918]'
p5445
aS'a[594]'
p5446
aS'a[1624]'
p5447
aS'a[3273]'
p5448
aS'a[4560]'
p5449
aS'a[7264]'
p5450
aS'a[3875]'
p5451
aS'a[1740]'
p5452
aS'a[121]'
p5453
aS'a[1257]'
p5454
aS'a[8747]'
p5455
aS'a[4056]'
p5456
aS'a[8030]'
p5457
aS'a[714]'
p5458
aS'a[5455]'
p5459
aS'a[875]'
p5460
aS'a[7907]'
p5461
aS'a[743]'
p5462
aS'a[4056]'
p5463
aS'a[441]'
p5464
aS'a[170]'
p5465
aS'a[536]'
p5466
aS'a[7049]'
p5467
aS'a[506]'
p5468
aS'a[5373]'
p5469
aS'a[506]'
p5470
aS'a[860]'
p5471
aS'a[153]'
p5472
aS'a[6331]'
p5473
aS'a[580]'
p5474
aS'a[7571]'
p5475
aS'a[580]'
p5476
aS'a[5170]'
p5477
aS'a[2178]'
p5478
aS'a[851]'
p5479
aS'a[6329]'
p5480
aS'a[8406]'
p5481
aS'a[4822]'
p5482
aS'a[194]'
p5483
aS'a[580]'
p5484
aS'a[3615]'
p5485
aS'a[5466]'
p5486
aS'a[791]'
p5487
aS'a[714]'
p5488
aS'a[382]'
p5489
aS'a[8728]'
p5490
aS'a[1624]'
p5491
aS'a[6723]'
p5492
aS'a[6509]'
p5493
aS'a[8486]'
p5494
aS'a[580]'
p5495
aS'a[5890]'
p5496
aS'a[2440]'
p5497
aS'a[3286]'
p5498
aS'a[170]'
p5499
aS'a[620]'
p5500
aS'a[6298]'
p5501
aS'a[445]'
p5502
aS'a[5873]'
p5503
aS'a[4822]'
p5504
aS'a[441]'
p5505
aS'a[5286]'
p5506
aS'a[1958]'
p5507
aS'a[9236]'
p5508
aS'a[2595]'
p5509
aS'a[1272]'
p5510
aS'a[4087]'
p5511
aS'a[32]'
p5512
aS'a[2939]'
p5513
aS'a[208]'
p5514
aS'a[291]'
p5515
aS'a[7998]'
p5516
aS'a[595]'
p5517
aS'a[1506]'
p5518
aS'a[8590]'
p5519
aS'a[7998]'
p5520
aS'a[8190]'
p5521
aS'a[566]'
p5522
aS'a[244]'
p5523
aS'a[3627]'
p5524
aS'a[3273]'
p5525
aS'a[2374]'
p5526
aS'a[9101]'
p5527
aS'a[566]'
p5528
aS'a[8527]'
p5529
aS'a[6213]'
p5530
aS'a[6008]'
p5531
aS'a[595]'
p5532
aS'a[1756]'
p5533
aS'a[536]'
p5534
aS'a[2417]'
p5535
aS'a[714]'
p5536
aS'a[897]'
p5537
aS'a[32]'
p5538
aS'a[714]'
p5539
aS'a[506]'
p5540
aS'a[6427]'
p5541
aS'a[620]'
p5542
aS'a[8391]'
p5543
aS'a[153]'
p5544
aS'a[5292]'
p5545
aS'a[5687]'
p5546
aS'a[7041]'
p5547
aS'a[223]'
p5548
aS'a[1048]'
p5549
aS'a[3739]'
p5550
aS'a[107]'
p5551
aS'a[506]'
p5552
aS'a[5748]'
p5553
aS'a[8423]'
p5554
aS'a[2905]'
p5555
aS'a[1159]'
p5556
aS'a[3279]'
p5557
aS'a[566]'
p5558
aS'a[566]'
p5559
aS'a[9139]'
p5560
aS'a[2396]'
p5561
aS'a[2374]'
p5562
aS'a[8034]'
p5563
aS'a[382]'
p5564
aS'a[2410]'
p5565
aS'a[2143]'
p5566
aS'a[8104]'
p5567
aS'a[5466]'
p5568
aS'a[5292]'
p5569
aS'a[8879]'
p5570
aS'a[5513]'
p5571
aS'a[7401]'
p5572
aS'a[620]'
p5573
aS'a[5290]'
p5574
aS'a[0]'
p5575
aS'a[3293]'
p5576
aS'a[2891]'
p5577
aS'a[790]'
p5578
aS'a[910]'
p5579
aS'a[7978]'
p5580
aS'a[162]'
p5581
aS'a[4087]'
p5582
aS'a[3724]'
p5583
aS'a[202]'
p5584
aS'a[5488]'
p5585
aS'a[3281]'
p5586
aS'a[1207]'
p5587
aS'a[2410]'
p5588
aS'a[7498]'
p5589
aS'a[1409]'
p5590
aS'a[4822]'
p5591
aS'a[8657]'
p5592
aS'a[870]'
p5593
aS'a[4822]'
p5594
aS'a[5101]'
p5595
aS'a[5101]'
p5596
aS'a[1936]'
p5597
aS'a[5292]'
p5598
aS'a[1262]'
p5599
aS'a[6]'
p5600
aS'a[3528]'
p5601
aS'a[4821]'
p5602
aS'a[8028]'
p5603
aS'a[1441]'
p5604
aS'a[1225]'
p5605
aS'a[3918]'
p5606
aS'a[7485]'
p5607
aS'a[2931]'
p5608
aS'a[3192]'
p5609
aS'a[88]'
p5610
aS'a[7264]'
p5611
aS'a[5810]'
p5612
aS'a[714]'
p5613
aS'a[3868]'
p5614
aS'a[2005]'
p5615
aS'a[817]'
p5616
aS'a[1159]'
p5617
aS'a[4330]'
p5618
aS'a[1564]'
p5619
aS'a[743]'
p5620
aS'a[2155]'
p5621
aS'a[875]'
p5622
aS'a[890]'
p5623
aS'a[491]'
p5624
aS'a[6210]'
p5625
aS'a[439]'
p5626
aS'a[3868]'
p5627
aS'a[206]'
p5628
aS'a[2549]'
p5629
aS'a[8282]'
p5630
aS'a[121]'
p5631
aS'a[743]'
p5632
aS'a[5290]'
p5633
aS'a[6144]'
p5634
aS'a[9156]'
p5635
aS'a[141]'
p5636
aS'a[2739]'
p5637
aS'a[4286]'
p5638
aS'a[6888]'
p5639
aS'a[536]'
p5640
aS'a[8957]'
p5641
aS'a[194]'
p5642
aS'a[6]'
p5643
aS'a[8444]'
p5644
aS'a[4468]'
p5645
aS'a[6698]'
p5646
aS'a[967]'
p5647
aS'a[9227]'
p5648
aS'a[6757]'
p5649
aS'a[755]'
p5650
aS'a[817]'
p5651
aS'a[208]'
p5652
aS'a[4370]'
p5653
aS'a[2374]'
p5654
aS'a[215]'
p5655
aS'a[714]'
p5656
aS'a[399]'
p5657
aS'a[3199]'
p5658
aS'a[1225]'
p5659
aS'a[3139]'
p5660
aS'a[1048]'
p5661
aS'a[5373]'
p5662
aS'a[506]'
p5663
aS'a[4403]'
p5664
aS'a[743]'
p5665
aS'a[0]'
p5666
aS'a[6842]'
p5667
aS'a[1441]'
p5668
aS'a[5290]'
p5669
aS'a[936]'
p5670
aS'a[3947]'
p5671
aS'a[3196]'
p5672
aS'a[1824]'
p5673
aS'a[4289]'
p5674
aS'a[1889]'
p5675
aS'a[1655]'
p5676
aS'a[1638]'
p5677
aS'a[8102]'
p5678
aS'a[5829]'
p5679
aS'a[1756]'
p5680
aS'a[0]'
p5681
aS'a[141]'
p5682
aS'a[194]'
p5683
aS'a[1612]'
p5684
aS'a[3773]'
p5685
aS'a[714]'
p5686
aS'a[3764]'
p5687
aS'a[3070]'
p5688
aS'a[123]'
p5689
aS'a[4289]'
p5690
aS'a[4289]'
p5691
aS'a[141]'
p5692
aS'a[5068]'
p5693
aS'a[1262]'
p5694
aS'a[8225]'
p5695
aS'a[1624]'
p5696
aS'a[208]'
p5697
aS'a[3122]'
p5698
aS'a[4317]'
p5699
aS'a[5297]'
p5700
aS'a[5290]'
p5701
aS'a[2570]'
p5702
aS'a[2717]'
p5703
aS'a[2006]'
p5704
aS'a[2129]'
p5705
aS'a[2642]'
p5706
aS'a[860]'
p5707
aS'a[2410]'
p5708
aS'a[7978]'
p5709
aS'a[714]'
p5710
aS'a[922]'
p5711
aS'a[7267]'
p5712
aS'a[2793]'
p5713
aS'a[382]'
p5714
aS'a[3050]'
p5715
aS'a[121]'
p5716
aS'a[399]'
p5717
aS'a[813]'
p5718
aS'a[1506]'
p5719
aS'a[162]'
p5720
aS'a[1847]'
p5721
aS'a[2454]'
p5722
aS'a[1159]'
p5723
aS'a[1227]'
p5724
aS'a[1374]'
p5725
aS'a[1262]'
p5726
aS'a[755]'
p5727
aS'a[1612]'
p5728
aS'a[8958]'
p5729
aS'a[696]'
p5730
aS'a[851]'
p5731
aS'a[7978]'
p5732
aS'a[7669]'
p5733
aS'a[7165]'
p5734
aS'a[2006]'
p5735
aS'a[5678]'
p5736
aS'a[9057]'
p5737
aS'a[4749]'
p5738
aS'a[806]'
p5739
aS'a[1859]'
p5740
aS'a[7364]'
p5741
aS'a[8278]'
p5742
aS'a[6915]'
p5743
aS'a[3338]'
p5744
aS'a[1107]'
p5745
aS'a[1506]'
p5746
aS'a[1059]'
p5747
aS'a[566]'
p5748
aS'a[2797]'
p5749
aS'a[1809]'
p5750
aS'a[880]'
p5751
aS'a[1604]'
p5752
aS'a[223]'
p5753
aS'a[3192]'
p5754
aS'a[4891]'
p5755
aS'a[4284]'
p5756
aS'a[580]'
p5757
aS'a[3005]'
p5758
aS'a[7406]'
p5759
aS'a[5292]'
p5760
aS'a[7697]'
p5761
aS'a[208]'
p5762
aS'a[3514]'
p5763
aS'a[1612]'
p5764
aS'a[1612]'
p5765
aS'a[1889]'
p5766
aS'a[1942]'
p5767
aS'a[1225]'
p5768
aS'a[2040]'
p5769
aS'a[7337]'
p5770
aS'a[4695]'
p5771
aS'a[4188]'
p5772
aS'a[755]'
p5773
aS'a[1159]'
p5774
aS'a[1756]'
p5775
aS'a[8686]'
p5776
aS'a[2504]'
p5777
aS'a[194]'
p5778
aS'a[755]'
p5779
aS'a[506]'
p5780
aS'a[431]'
p5781
aS'a[6680]'
p5782
aS'a[580]'
p5783
aS'a[1889]'
p5784
aS'a[6971]'
p5785
aS'a[1866]'
p5786
aS'a[1612]'
p5787
aS'a[714]'
p5788
aS'a[714]'
p5789
aS'a[5754]'
p5790
aS'a[7385]'
p5791
aS'a[3289]'
p5792
aS'a[1225]'
p5793
aS'a[860]'
p5794
aS'a[5693]'
p5795
aS'a[399]'
p5796
aS'a[6280]'
p5797
aS'a[5101]'
p5798
aS'a[2278]'
p5799
aS'a[8280]'
p5800
aS'a[2961]'
p5801
aS'a[2798]'
p5802
aS'a[7998]'
p5803
aS'a[2484]'
p5804
aS'a[6028]'
p5805
aS'a[1866]'
p5806
aS'a[2547]'
p5807
aS'a[7397]'
p5808
aS'a[2105]'
p5809
aS'a[3798]'
p5810
aS'a[851]'
p5811
aS'a[5080]'
p5812
aS'a[2061]'
p5813
aS'a[1161]'
p5814
aS'a[162]'
p5815
aS'a[786]'
p5816
aS'a[4355]'
p5817
aS'a[96]'
p5818
aS'a[399]'
p5819
aS'a[1846]'
p5820
aS'a[8192]'
p5821
aS'a[2793]'
p5822
aS'a[141]'
p5823
aS'a[535]'
p5824
aS'a[206]'
p5825
aS'a[441]'
p5826
aS'a[3273]'
p5827
aS'a[67]'
p5828
aS'a[880]'
p5829
aS'a[714]'
p5830
aS'a[317]'
p5831
aS'a[5863]'
p5832
aS'a[6]'
p5833
aS'a[1132]'
p5834
aS'a[479]'
p5835
aS'a[595]'
p5836
aS'a[4721]'
p5837
aS'a[3918]'
p5838
aS'a[714]'
p5839
aS'a[2452]'
p5840
aS'a[714]'
p5841
aS'a[248]'
p5842
aS'a[1676]'
p5843
aS'a[5292]'
p5844
aS'a[2975]'
p5845
aS'a[96]'
p5846
aS'a[7376]'
p5847
aS'a[153]'
p5848
aS'a[2793]'
p5849
aS'a[890]'
p5850
aS'a[1292]'
p5851
aS'a[3537]'
p5852
aS'a[3868]'
p5853
aS'a[2374]'
p5854
aS'a[206]'
p5855
aS'a[790]'
p5856
aS'a[3719]'
p5857
aS'a[6348]'
p5858
aS'a[714]'
p5859
aS'a[1756]'
p5860
aS'a[699]'
p5861
aS'a[1225]'
p5862
aS'a[3192]'
p5863
aS'a[2191]'
p5864
aS'a[7403]'
p5865
aS'a[1141]'
p5866
aS'a[4422]'
p5867
aS'a[4822]'
p5868
aS'a[7124]'
p5869
aS'a[8815]'
p5870
aS'a[5199]'
p5871
aS'a[4289]'
p5872
aS'a[1487]'
p5873
aS'a[7382]'
p5874
aS'a[7397]'
p5875
aS'a[141]'
p5876
aS'a[3997]'
p5877
aS'a[2549]'
p5878
aS'a[579]'
p5879
aS'a[52]'
p5880
aS'a[1056]'
p5881
aS'a[755]'
p5882
aS'a[8710]'
p5883
aS'a[8592]'
p5884
aS'a[1441]'
p5885
aS'a[6298]'
p5886
aS'a[4820]'
p5887
aS'a[3918]'
p5888
aS'a[2246]'
p5889
aS'a[7164]'
p5890
aS'a[599]'
p5891
aS'a[1048]'
p5892
aS'a[8047]'
p5893
aS'a[755]'
p5894
aS'a[8015]'
p5895
aS'a[538]'
p5896
aS'a[3192]'
p5897
aS'a[8414]'
p5898
aS'a[4876]'
p5899
aS'a[5241]'
p5900
aS'a[890]'
p5901
aS'a[5748]'
p5902
aS'a[6]'
p5903
aS'a[9202]'
p5904
aS'a[1048]'
p5905
aS'a[1056]'
p5906
aS'a[0]'
p5907
aS'a[6]'
p5908
aS'a[52]'
p5909
aS'a[7264]'
p5910
aS'a[2410]'
p5911
aS'a[7974]'
p5912
aS'a[327]'
p5913
aS'a[445]'
p5914
aS'a[5993]'
p5915
aS'a[4756]'
p5916
aS'a[5101]'
p5917
aS'a[2885]'
p5918
aS'a[1357]'
p5919
aS'a[897]'
p5920
aS'a[1678]'
p5921
aS'a[67]'
p5922
aS'a[244]'
p5923
aS'a[3469]'
p5924
aS'a[5622]'
p5925
aS'a[8792]'
p5926
aS'a[5748]'
p5927
aS'a[1159]'
p5928
aS'a[52]'
p5929
aS'a[6826]'
p5930
aS'a[6730]'
p5931
aS'a[595]'
p5932
aS'a[3162]'
p5933
aS'a[1225]'
p5934
aS'a[1612]'
p5935
aS'a[1159]'
p5936
aS'a[1780]'
p5937
aS'a[5373]'
p5938
aS'a[96]'
p5939
aS'a[1388]'
p5940
aS'a[7161]'
p5941
aS'a[506]'
p5942
aS'a[5503]'
p5943
aS'a[5541]'
p5944
aS'a[3344]'
p5945
aS'a[4056]'
p5946
aS'a[8696]'
p5947
aS'a[860]'
p5948
aS'a[170]'
p5949
aS'a[244]'
p5950
aS'a[208]'
p5951
aS'a[2793]'
p5952
aS'a[4585]'
p5953
aS'a[538]'
p5954
aS'a[595]'
p5955
aS'a[1225]'
p5956
aS'a[1441]'
p5957
aS'a[7640]'
p5958
aS'a[714]'
p5959
aS'a[860]'
p5960
aS'a[5244]'
p5961
aS'a[3005]'
p5962
aS'a[714]'
p5963
aS'a[714]'
p5964
aS'a[5651]'
p5965
aS'a[153]'
p5966
aS'a[875]'
p5967
aS'a[1612]'
p5968
aS'a[2335]'
p5969
aS'a[3426]'
p5970
aS'a[1570]'
p5971
aS'a[538]'
p5972
aS'a[7060]'
p5973
aS'a[7181]'
p5974
aS'a[1825]'
p5975
aS'a[5373]'
p5976
aS'a[755]'
p5977
aS'a[7802]'
p5978
aS'a[9071]'
p5979
aS'a[1632]'
p5980
aS'a[177]'
p5981
aS'a[2722]'
p5982
aS'a[6196]'
p5983
aS'a[3475]'
p5984
aS'a[7968]'
p5985
aS'a[473]'
p5986
aS'a[206]'
p5987
aS'a[194]'
p5988
aS'a[2612]'
p5989
aS'a[3276]'
p5990
aS'a[6596]'
p5991
aS'a[9229]'
p5992
aS'a[8662]'
p5993
aS'a[5426]'
p5994
aS'a[7005]'
p5995
aS'a[4013]'
p5996
aS'a[8283]'
p5997
aS'a[1679]'
p5998
aS'a[194]'
p5999
aS'a[1889]'
p6000
aS'a[6]'
p6001
aS'a[8874]'
p6002
aS'a[4951]'
p6003
aS'a[67]'
p6004
aS'a[7998]'
p6005
aS'a[163]'
p6006
aS'a[595]'
p6007
aS'a[1048]'
p6008
aS'a[806]'
p6009
aS'a[2374]'
p6010
aS'a[7264]'
p6011
aS'a[194]'
p6012
aS'a[6088]'
p6013
aS'a[7653]'
p6014
aS'a[5139]'
p6015
aS'a[595]'
p6016
aS'a[5346]'
p6017
aS'a[3192]'
p6018
aS'a[23]'
p6019
aS'a[3633]'
p6020
aS'a[4822]'
p6021
aS'a[5373]'
p6022
aS'a[399]'
p6023
aS'a[782]'
p6024
aS'a[1548]'
p6025
aS'a[5284]'
p6026
aS'a[4613]'
p6027
aS'a[1612]'
p6028
aS'a[5242]'
p6029
aS'a[8211]'
p6030
aS'a[382]'
p6031
aS'a[506]'
p6032
aS'a[6129]'
p6033
aS'a[1445]'
p6034
aS'a[2410]'
p6035
aS'a[253]'
p6036
aS'a[7264]'
p6037
aS'a[3273]'
p6038
aS'a[3868]'
p6039
aS'a[4231]'
p6040
aS'a[251]'
p6041
aS'a[2714]'
p6042
aS'a[1289]'
p6043
aS'a[4594]'
p6044
aS'a[851]'
p6045
aS'a[6447]'
p6046
aS'a[5373]'
p6047
aS'a[390]'
p6048
aS'a[2528]'
p6049
aS'a[2612]'
p6050
aS'a[441]'
p6051
aS'a[4056]'
p6052
aS'a[5378]'
p6053
aS'a[4882]'
p6054
aS'a[1676]'
p6055
aS'a[5411]'
p6056
aS'a[1866]'
p6057
aS'a[696]'
p6058
aS'a[5710]'
p6059
aS'a[434]'
p6060
aS'a[1048]'
p6061
aS'a[1349]'
p6062
aS'a[714]'
p6063
aS'a[3273]'
p6064
aS'a[3541]'
p6065
aS'a[2028]'
p6066
aS'a[8295]'
p6067
aS'a[6398]'
p6068
aS'a[714]'
p6069
aS'a[491]'
p6070
aS'a[4151]'
p6071
aS'a[445]'
p6072
aS'a[8747]'
p6073
aS'a[1361]'
p6074
aS'a[67]'
p6075
aS'a[0]'
p6076
aS'a[4830]'
p6077
aS'a[8609]'
p6078
aS'a[1889]'
p6079
aS'a[1506]'
p6080
aS'a[6431]'
p6081
aS'a[1756]'
p6082
aS'a[6137]'
p6083
aS'a[1612]'
p6084
aS'a[3188]'
p6085
aS'a[5290]'
p6086
aS'a[3539]'
p6087
aS'a[121]'
p6088
aS'a[7083]'
p6089
aS'a[1262]'
p6090
aS'a[3162]'
p6091
aS'a[755]'
p6092
aS'a[9119]'
p6093
aS'a[3635]'
p6094
aS'a[7998]'
p6095
aS'a[4924]'
p6096
aS'a[3841]'
p6097
aS'a[2451]'
p6098
aS'a[536]'
p6099
aS'a[506]'
p6100
aS'a[170]'
p6101
aS'a[5483]'
p6102
aS'a[1021]'
p6103
aS'a[8324]'
p6104
aS'a[4420]'
p6105
aS'a[2793]'
p6106
aS'a[4637]'
p6107
aS'a[1676]'
p6108
aS'a[2374]'
p6109
aS'a[620]'
p6110
aS'a[1441]'
p6111
aS'a[588]'
p6112
aS'a[7978]'
p6113
aS'a[4133]'
p6114
aS'a[536]'
p6115
aS'a[952]'
p6116
aS'a[691]'
p6117
aS'a[7978]'
p6118
aS'a[32]'
p6119
aS'a[4679]'
p6120
aS'a[170]'
p6121
aS'a[696]'
p6122
aS'a[2466]'
p6123
aS'a[1427]'
p6124
aS'a[223]'
p6125
aS'a[1676]'
p6126
aS'a[1056]'
p6127
aS'a[9167]'
p6128
aS'a[1289]'
p6129
aS'a[8512]'
p6130
aS'a[9090]'
p6131
aS'a[7014]'
p6132
aS'a[202]'
p6133
aS'a[506]'
p6134
aS'a[2374]'
p6135
aS'a[1048]'
p6136
aS'a[6555]'
p6137
aS'a[6872]'
p6138
aS'a[857]'
p6139
aS'a[5075]'
p6140
aS'a[4813]'
p6141
aS'a[5610]'
p6142
aS'a[880]'
p6143
aS'a[0]'
p6144
aS'a[3446]'
p6145
aS'a[580]'
p6146
aS'a[7264]'
p6147
aS'a[7998]'
p6148
aS'a[7899]'
p6149
aS'a[6801]'
p6150
aS'a[2757]'
p6151
aS'a[67]'
p6152
aS'a[1693]'
p6153
aS'a[653]'
p6154
aS'a[1564]'
p6155
aS'a[536]'
p6156
aS'a[7978]'
p6157
aS'a[2233]'
p6158
aS'a[2266]'
p6159
aS'a[3584]'
p6160
aS'a[105]'
p6161
aS'a[4056]'
p6162
aS'a[7029]'
p6163
aS'a[5610]'
p6164
aS'a[817]'
p6165
aS'a[583]'
p6166
aS'a[1056]'
p6167
aS'a[1885]'
p6168
aS'a[1427]'
p6169
aS'a[7208]'
p6170
aS'a[2802]'
p6171
aS'a[6967]'
p6172
aS'a[595]'
p6173
aS'a[5290]'
p6174
aS'a[4087]'
p6175
aS'a[394]'
p6176
aS'a[2698]'
p6177
aS'a[441]'
p6178
aS'a[1693]'
p6179
aS'a[3498]'
p6180
aS'a[32]'
p6181
aS'a[4056]'
p6182
aS'a[1731]'
p6183
aS'a[3868]'
p6184
aS'a[875]'
p6185
aS'a[897]'
p6186
aS'a[194]'
p6187
aS'a[875]'
p6188
aS'a[1866]'
p6189
aS'a[1441]'
p6190
aS'a[946]'
p6191
aS'a[7605]'
p6192
aS'a[3868]'
p6193
aS'a[7978]'
p6194
aS'a[860]'
p6195
aS'a[3918]'
p6196
aS'a[121]'
p6197
aS'a[1056]'
p6198
aS'a[424]'
p6199
aS'a[382]'
p6200
aS'a[1159]'
p6201
aS'a[714]'
p6202
aS'a[277]'
p6203
aS'a[3167]'
p6204
aS'a[67]'
p6205
aS'a[673]'
p6206
aS'a[817]'
p6207
aS'a[4181]'
p6208
aS'a[4092]'
p6209
aS'a[2286]'
p6210
aS'a[1889]'
p6211
aS'a[607]'
p6212
aS'a[8845]'
p6213
aS'a[8704]'
p6214
aS'a[5480]'
p6215
aS'a[1506]'
p6216
aS'a[8500]'
p6217
aS'a[162]'
p6218
aS'a[5961]'
p6219
aS'a[170]'
p6220
aS'a[2337]'
p6221
aS'a[6180]'
p6222
aS'a[1262]'
p6223
aS'a[9078]'
p6224
aS'a[4498]'
p6225
aS'a[96]'
p6226
aS'a[1330]'
p6227
aS'a[202]'
p6228
aS'a[1726]'
p6229
aS'a[5748]'
p6230
aS'a[842]'
p6231
aS'a[8414]'
p6232
aS'a[1406]'
p6233
aS'a[3296]'
p6234
aS'a[604]'
p6235
aS'a[851]'
p6236
aS'a[3050]'
p6237
aS'a[7336]'
p6238
aS'a[3537]'
p6239
aS'a[1441]'
p6240
aS'a[194]'
p6241
aS'a[1624]'
p6242
aS'a[2612]'
p6243
aS'a[7754]'
p6244
aS'a[923]'
p6245
aS'a[7821]'
p6246
aS'a[1168]'
p6247
aS'a[743]'
p6248
aS'a[441]'
p6249
aS'a[96]'
p6250
aS'a[714]'
p6251
aS'a[755]'
p6252
aS'a[714]'
p6253
aS'a[3050]'
p6254
aS'a[5697]'
p6255
aS'a[860]'
p6256
aS'a[404]'
p6257
aS'a[2337]'
p6258
aS'a[817]'
p6259
aS'a[506]'
p6260
aS'a[2405]'
p6261
aS'a[4056]'
p6262
aS'a[8498]'
p6263
aS'a[1225]'
p6264
aS'a[4774]'
p6265
aS'a[5270]'
p6266
aS'a[5292]'
p6267
aS'a[538]'
p6268
aS'a[8428]'
p6269
aS'a[6331]'
p6270
aS'a[7207]'
p6271
aS'a[5421]'
p6272
aS'a[1793]'
p6273
aS'a[897]'
p6274
aS'a[2006]'
p6275
aS'a[86]'
p6276
aS'a[424]'
p6277
aS'a[8882]'
p6278
aS'a[206]'
p6279
aS'a[880]'
p6280
aS'a[4739]'
p6281
aS'a[3868]'
p6282
aS'a[880]'
p6283
aS'a[491]'
p6284
aS'a[7469]'
p6285
aS'a[7830]'
p6286
aS'a[703]'
p6287
aS'a[3162]'
p6288
aS'a[206]'
p6289
aS'a[9185]'
p6290
aS'a[382]'
p6291
aS'a[4500]'
p6292
aS'a[1779]'
p6293
aS'a[5024]'
p6294
aS'a[4750]'
p6295
aS'a[2793]'
p6296
aS'a[851]'
p6297
aS'a[194]'
p6298
aS'a[32]'
p6299
aS'a[790]'
p6300
aS'a[5785]'
p6301
aS'a[3046]'
p6302
aS'a[566]'
p6303
aS'a[7096]'
p6304
aS'a[566]'
p6305
aS'a[6923]'
p6306
aS'a[875]'
p6307
aS'a[277]'
p6308
aS'a[441]'
p6309
aS'a[2956]'
p6310
aS'a[2044]'
p6311
aS'a[4949]'
p6312
aS'a[445]'
p6313
aS'a[880]'
p6314
aS'a[0]'
p6315
aS'a[4590]'
p6316
aS'a[1474]'
p6317
aS'a[520]'
p6318
aS'a[897]'
p6319
aS'a[3623]'
p6320
aS'a[399]'
p6321
aS'a[714]'
p6322
aS'a[1650]'
p6323
aS'a[5290]'
p6324
aS'a[1756]'
p6325
aS'a[3050]'
p6326
aS'a[5101]'
p6327
aS'a[8717]'
p6328
aS'a[4978]'
p6329
aS'a[2720]'
p6330
aS'a[5984]'
p6331
aS'a[1159]'
p6332
aS'a[1564]'
p6333
aS'a[208]'
p6334
aS'a[5455]'
p6335
aS'a[5337]'
p6336
aS'a[842]'
p6337
aS'a[5726]'
p6338
aS'a[67]'
p6339
aS'a[7939]'
p6340
aS'a[7556]'
p6341
aS'a[1159]'
p6342
aS'a[1427]'
p6343
aS'a[8685]'
p6344
aS'a[3868]'
p6345
aS'a[206]'
p6346
aS'a[441]'
p6347
aS'a[1612]'
p6348
aS'a[860]'
p6349
aS'a[1427]'
p6350
aS'a[3918]'
p6351
aS'a[714]'
p6352
aS'a[2749]'
p6353
aS'a[714]'
p6354
aS'a[4087]'
p6355
aS'a[3723]'
p6356
aS'a[5019]'
p6357
aS'a[3050]'
p6358
aS'a[228]'
p6359
aS'a[5748]'
p6360
aS'a[441]'
p6361
aS'a[7860]'
p6362
aS'a[445]'
p6363
aS'a[8040]'
p6364
aS'a[538]'
p6365
aS'a[8036]'
p6366
aS'a[1866]'
p6367
aS'a[0]'
p6368
aS'a[445]'
p6369
aS'a[223]'
p6370
aS'a[1334]'
p6371
aS'a[1756]'
p6372
aS'a[7666]'
p6373
aS'a[7796]'
p6374
aS'a[7817]'
p6375
aS'a[123]'
p6376
aS'a[2365]'
p6377
aS'a[1756]'
p6378
aS'a[399]'
p6379
aS'a[5748]'
p6380
aS'a[1159]'
p6381
aS'a[3868]'
p6382
aS'a[506]'
p6383
aS'a[6650]'
p6384
aS'a[4472]'
p6385
aS'a[2793]'
p6386
aS'a[4541]'
p6387
aS'a[6]'
p6388
aS'a[817]'
p6389
aS'a[7741]'
p6390
aS'a[580]'
p6391
aS'a[7806]'
p6392
aS'a[141]'
p6393
aS'a[897]'
p6394
aS'a[3757]'
p6395
aS'a[3273]'
p6396
aS'a[7385]'
p6397
aS'a[362]'
p6398
aS'a[714]'
p6399
aS'a[5796]'
p6400
aS'a[1056]'
p6401
aS'a[141]'
p6402
aS'a[202]'
p6403
aS'a[9024]'
p6404
aS'a[550]'
p6405
aS'a[162]'
p6406
aS'a[842]'
p6407
aS'a[2793]'
p6408
aS'a[3289]'
p6409
aS'a[5707]'
p6410
aS'a[3715]'
p6411
aS'a[206]'
p6412
aS'a[6158]'
p6413
aS'a[3844]'
p6414
aS'a[7998]'
p6415
aS'a[9169]'
p6416
aS'a[7465]'
p6417
aS'a[743]'
p6418
aS'a[860]'
p6419
aS'a[506]'
p6420
aS'a[441]'
p6421
aS'a[8811]'
p6422
aS'a[3080]'
p6423
aS'a[3807]'
p6424
aS'a[2997]'
p6425
aS'a[1472]'
p6426
aS'a[1056]'
p6427
aS'a[4289]'
p6428
aS'a[1319]'
p6429
aS'a[7951]'
p6430
aS'a[3050]'
p6431
aS'a[2795]'
p6432
aS'a[7004]'
p6433
aS'a[346]'
p6434
aS'a[8250]'
p6435
aS'a[277]'
p6436
aS'a[624]'
p6437
aS'a[7004]'
p6438
aS'a[3571]'
p6439
aS'a[491]'
p6440
aS'a[153]'
p6441
aS'a[2612]'
p6442
aS'a[5691]'
p6443
aS'a[1245]'
p6444
aS'a[851]'
p6445
aS'a[4562]'
p6446
aS'a[170]'
p6447
aS'a[2374]'
p6448
aS'a[1676]'
p6449
aS'a[32]'
p6450
aS'a[1693]'
p6451
aS'a[5610]'
p6452
aS'a[2006]'
p6453
aS'a[6967]'
p6454
aS'a[3293]'
p6455
aS'a[1056]'
p6456
aS'a[1246]'
p6457
aS'a[206]'
p6458
aS'a[2151]'
p6459
aS'a[4289]'
p6460
aS'a[3868]'
p6461
aS'a[3050]'
p6462
aS'a[506]'
p6463
aS'a[714]'
p6464
aS'a[6723]'
p6465
aS'a[6984]'
p6466
aS'a[2793]'
p6467
aS'a[4175]'
p6468
aS'a[105]'
p6469
aS'a[7083]'
p6470
aS'a[5042]'
p6471
aS'a[536]'
p6472
aS'a[206]'
p6473
aS'a[925]'
p6474
aS'a[5373]'
p6475
aS'a[506]'
p6476
aS'a[6]'
p6477
aS'a[2319]'
p6478
aS'a[0]'
p6479
aS'a[2793]'
p6480
aS'a[8640]'
p6481
aS'a[860]'
p6482
aS'a[2474]'
p6483
aS'a[851]'
p6484
aS'a[2987]'
p6485
aS'a[206]'
p6486
aS'a[2220]'
p6487
aS'a[4289]'
p6488
aS'a[1676]'
p6489
aS'a[3192]'
p6490
aS'a[5131]'
p6491
aS'a[2218]'
p6492
aS'a[2410]'
p6493
aS'a[2612]'
p6494
aS'a[3162]'
p6495
aS'a[263]'
p6496
aS'a[4690]'
p6497
aS'a[3390]'
p6498
aS'a[6565]'
p6499
aS'a[1976]'
p6500
aS'a[123]'
p6501
aS'a[3455]'
p6502
aS'a[906]'
p6503
aS'a[4949]'
p6504
aS'a[194]'
p6505
aS'a[842]'
p6506
aS'a[506]'
p6507
aS'a[3368]'
p6508
aS'a[7264]'
p6509
aS'a[1857]'
p6510
aS'a[153]'
p6511
aS'a[1986]'
p6512
aS'a[3273]'
p6513
aS'a[170]'
p6514
aS'a[620]'
p6515
aS'a[2549]'
p6516
aS'a[67]'
p6517
aS'a[8965]'
p6518
aS'a[244]'
p6519
aS'a[1159]'
p6520
aS'a[1789]'
p6521
aS'a[6892]'
p6522
aS'a[4056]'
p6523
aS'a[5032]'
p6524
aS'a[595]'
p6525
aS'a[506]'
p6526
aS'a[7611]'
p6527
aS'a[0]'
p6528
aS'a[3273]'
p6529
aS'a[1048]'
p6530
aS'a[123]'
p6531
aS'a[5817]'
p6532
aS'a[1564]'
p6533
aS'a[714]'
p6534
aS'a[1427]'
p6535
aS'a[7998]'
p6536
aS'a[4056]'
p6537
aS'a[576]'
p6538
aS'a[790]'
p6539
aS'a[194]'
p6540
aS'a[1012]'
p6541
aS'a[743]'
p6542
aS'a[141]'
p6543
aS'a[7978]'
p6544
aS'a[755]'
p6545
aS'a[1506]'
p6546
aS'a[121]'
p6547
aS'a[2578]'
p6548
aS'a[840]'
p6549
aS'a[1693]'
p6550
aS'a[1676]'
p6551
aS'a[382]'
p6552
aS'a[2006]'
p6553
aS'a[382]'
p6554
aS'a[696]'
p6555
aS'a[5071]'
p6556
aS'a[2073]'
p6557
aS'a[5373]'
p6558
aS'a[223]'
p6559
aS'a[4289]'
p6560
aS'a[7998]'
p6561
aS'a[1121]'
p6562
aS'a[8611]'
p6563
aS'a[8275]'
p6564
aS'a[5450]'
p6565
aS'a[382]'
p6566
aS'a[714]'
p6567
aS'a[6302]'
p6568
aS'a[1612]'
p6569
aS'a[4721]'
p6570
aS'a[1377]'
p6571
aS'a[194]'
p6572
aS'a[6847]'
p6573
aS'a[5246]'
p6574
aS'a[123]'
p6575
aS'a[7445]'
p6576
aS'a[3611]'
p6577
aS'a[3141]'
p6578
aS'a[3162]'
p6579
aS'a[97]'
p6580
aS'a[1889]'
p6581
aS'a[714]'
p6582
aS'a[714]'
p6583
aS'a[897]'
p6584
aS'a[0]'
p6585
aS'a[3005]'
p6586
aS'a[1612]'
p6587
aS'a[4056]'
p6588
aS'a[105]'
p6589
aS'a[1591]'
p6590
aS'a[2006]'
p6591
aS'a[1348]'
p6592
aS'a[5870]'
p6593
aS'a[208]'
p6594
aS'a[6323]'
p6595
aS'a[5952]'
p6596
aS'a[4132]'
p6597
aS'a[1315]'
p6598
aS'a[1676]'
p6599
aS'a[1056]'
p6600
aS'a[3273]'
p6601
aS'a[842]'
p6602
aS'a[580]'
p6603
aS'a[797]'
p6604
aS'a[4784]'
p6605
aS'a[6284]'
p6606
aS'a[871]'
p6607
aS'a[714]'
p6608
aS'a[1624]'
p6609
aS'a[67]'
p6610
aS'a[4282]'
p6611
aS'a[194]'
p6612
aS'a[6633]'
p6613
aS'a[1235]'
p6614
aS'a[886]'
p6615
aS'a[3416]'
p6616
aS'a[5748]'
p6617
aS'a[1262]'
p6618
aS'a[714]'
p6619
aS'a[4858]'
p6620
aS'a[1706]'
p6621
aS'a[1756]'
p6622
aS'a[223]'
p6623
aS'a[5101]'
p6624
aS'a[925]'
p6625
aS'a[595]'
p6626
aS'a[7978]'
p6627
aS'a[4822]'
p6628
aS'a[1889]'
p6629
aS'a[52]'
p6630
aS'a[7286]'
p6631
aS'a[1624]'
p6632
aS'a[1354]'
p6633
aS'a[67]'
p6634
aS'a[1529]'
p6635
aS'a[7686]'
p6636
aS'a[208]'
p6637
aS'a[7521]'
p6638
aS'a[880]'
p6639
aS'a[1249]'
p6640
aS'a[5748]'
p6641
aS'a[1889]'
p6642
aS'a[3273]'
p6643
aS'a[897]'
p6644
aS'a[6070]'
p6645
aS'a[5610]'
p6646
aS'a[4822]'
p6647
aS'a[170]'
p6648
aS'a[714]'
p6649
aS'a[32]'
p6650
aS'a[141]'
p6651
aS'a[897]'
p6652
aS'a[5652]'
p6653
aS'a[538]'
p6654
aS'a[5910]'
p6655
aS'a[8593]'
p6656
aS'a[194]'
p6657
aS'a[170]'
p6658
aS'a[8419]'
p6659
aS'a[580]'
p6660
aS'a[842]'
p6661
aS'a[8651]'
p6662
aS'a[5803]'
p6663
aS'a[8267]'
p6664
aS'a[7344]'
p6665
aS'a[7936]'
p6666
aS'a[1889]'
p6667
aS'a[3656]'
p6668
aS'a[1112]'
p6669
aS'a[8913]'
p6670
aS'a[595]'
p6671
aS'a[1798]'
p6672
aS'a[1125]'
p6673
aS'a[105]'
p6674
aS'a[7915]'
p6675
aS'a[194]'
p6676
aS'a[7631]'
p6677
aS'a[1999]'
p6678
aS'a[7618]'
p6679
aS'a[3251]'
p6680
aS'a[5890]'
p6681
aS'a[194]'
p6682
aS'a[206]'
p6683
aS'a[2227]'
p6684
aS'a[1676]'
p6685
aS'a[595]'
p6686
aS'a[7358]'
p6687
aS'a[362]'
p6688
aS'a[817]'
p6689
aS'a[4101]'
p6690
aS'a[3601]'
p6691
aS'a[8739]'
p6692
aS'a[3095]'
p6693
aS'a[7595]'
p6694
aS'a[506]'
p6695
aS'a[1889]'
p6696
aS'a[1048]'
p6697
aS'a[5835]'
p6698
aS'a[696]'
p6699
aS'a[806]'
p6700
aS'a[622]'
p6701
aS'a[696]'
p6702
aS'a[7544]'
p6703
aS'a[2818]'
p6704
aS'a[381]'
p6705
aS'a[310]'
p6706
aS'a[194]'
p6707
aS'a[2552]'
p6708
aS'a[3812]'
p6709
aS'a[743]'
p6710
aS'a[743]'
p6711
aS'a[1039]'
p6712
aS'a[8029]'
p6713
aS'a[1756]'
p6714
aS'a[875]'
p6715
aS'a[6]'
p6716
aS'a[1693]'
p6717
aS'a[6703]'
p6718
aS'a[491]'
p6719
aS'a[1506]'
p6720
aS'a[8463]'
p6721
aS'a[595]'
p6722
aS'a[3162]'
p6723
aS'a[6]'
p6724
aS'a[6186]'
p6725
aS'a[1911]'
p6726
aS'a[1048]'
p6727
aS'a[2290]'
p6728
aS'a[445]'
p6729
aS'a[1506]'
p6730
aS'a[2718]'
p6731
aS'a[6419]'
p6732
aS'a[3868]'
p6733
aS'a[3162]'
p6734
aS'a[5748]'
p6735
aS'a[2249]'
p6736
aS'a[5855]'
p6737
aS'a[7435]'
p6738
aS'a[4289]'
p6739
aS'a[1056]'
p6740
aS'a[3649]'
p6741
aS'a[399]'
p6742
aS'a[3162]'
p6743
aS'a[1895]'
p6744
aS'a[223]'
p6745
aS'a[4877]'
p6746
aS'a[762]'
p6747
aS'a[8857]'
p6748
aS'a[2398]'
p6749
aS'a[620]'
p6750
aS'a[441]'
p6751
aS'a[5791]'
p6752
aS'a[1921]'
p6753
aS'a[7464]'
p6754
aS'a[5905]'
p6755
aS'a[620]'
p6756
aS'a[170]'
p6757
aS'a[8008]'
p6758
aS'a[8878]'
p6759
aS'a[2367]'
p6760
aS'a[7145]'
p6761
aS'a[1506]'
p6762
aS'a[1048]'
p6763
aS'a[7314]'
p6764
aS'a[441]'
p6765
aS'a[141]'
p6766
aS'a[506]'
p6767
aS'a[3726]'
p6768
aS'a[244]'
p6769
aS'a[4396]'
p6770
aS'a[6833]'
p6771
aS'a[441]'
p6772
aS'a[714]'
p6773
aS'a[2849]'
p6774
aS'a[2136]'
p6775
aS'a[1441]'
p6776
aS'a[6766]'
p6777
aS'a[6379]'
p6778
aS'a[1077]'
p6779
aS'a[7418]'
p6780
aS'a[4289]'
p6781
aS'a[714]'
p6782
aS'a[1048]'
p6783
aS'a[96]'
p6784
aS'a[2126]'
p6785
aS'a[1048]'
p6786
aS'a[6180]'
p6787
aS'a[105]'
p6788
aS'a[897]'
p6789
aS'a[7748]'
p6790
aS'a[7084]'
p6791
aS'a[1564]'
p6792
aS'a[884]'
p6793
aS'a[1267]'
p6794
aS'a[875]'
p6795
aS'a[208]'
p6796
aS'a[897]'
p6797
aS'a[778]'
p6798
aS'a[5934]'
p6799
aS'a[4950]'
p6800
aS'a[7653]'
p6801
aS'a[170]'
p6802
aS'a[7613]'
p6803
aS'a[880]'
p6804
aS'a[4214]'
p6805
aS'a[897]'
p6806
aS'a[817]'
p6807
aS'a[7106]'
p6808
aS'a[1317]'
p6809
aS'a[7978]'
p6810
aS'a[5512]'
p6811
aS'a[7647]'
p6812
aS'a[2006]'
p6813
aS'a[2006]'
p6814
aS'a[4087]'
p6815
aS'a[2257]'
p6816
aS'a[4189]'
p6817
aS'a[7998]'
p6818
aS'a[105]'
p6819
aS'a[9071]'
p6820
aS'a[4096]'
p6821
aS'a[880]'
p6822
aS'a[7100]'
p6823
aS'a[277]'
p6824
aS'a[16]'
p6825
aS'a[7929]'
p6826
aS'a[3513]'
p6827
aS'a[4863]'
p6828
aS'a[842]'
p6829
aS'a[2629]'
p6830
aS'a[2793]'
p6831
aS'a[4040]'
p6832
aS'a[714]'
p6833
aS'a[3486]'
p6834
aS'a[6004]'
p6835
aS'a[3283]'
p6836
aS'a[1690]'
p6837
aS'a[2751]'
p6838
aS'a[7592]'
p6839
aS'a[842]'
p6840
aS'a[1889]'
p6841
aS'a[4099]'
p6842
aS'a[790]'
p6843
aS'a[223]'
p6844
aS'a[441]'
p6845
aS'a[817]'
p6846
aS'a[170]'
p6847
aS'a[5405]'
p6848
aS'a[2328]'
p6849
aS'a[5101]'
p6850
aS'a[7654]'
p6851
aS'a[6039]'
p6852
aS'a[6647]'
p6853
aS'a[194]'
p6854
aS'a[206]'
p6855
aS'a[3005]'
p6856
aS'a[860]'
p6857
aS'a[4350]'
p6858
aS'a[875]'
p6859
aS'a[2206]'
p6860
aS'a[3761]'
p6861
aS'a[8014]'
p6862
aS'a[6595]'
p6863
aS'a[491]'
p6864
aS'a[141]'
p6865
aS'a[7540]'
p6866
aS'a[714]'
p6867
aS'a[850]'
p6868
aS'a[6782]'
p6869
aS'a[3050]'
p6870
aS'a[4536]'
p6871
aS'a[1676]'
p6872
aS'a[7555]'
p6873
aS'a[3192]'
p6874
aS'a[714]'
p6875
aS'a[806]'
p6876
aS'a[491]'
p6877
aS'a[0]'
p6878
aS'a[96]'
p6879
aS'a[9007]'
p6880
aS'a[94]'
p6881
aS'a[32]'
p6882
aS'a[52]'
p6883
aS'a[536]'
p6884
aS'a[620]'
p6885
aS'a[6800]'
p6886
aS'a[441]'
p6887
aS'a[5142]'
p6888
aS'a[5610]'
p6889
aS'a[2570]'
p6890
aS'a[3868]'
p6891
aS'a[4056]'
p6892
aS'a[105]'
p6893
aS'a[2302]'
p6894
aS'a[8233]'
p6895
aS'a[9232]'
p6896
aS'a[3868]'
p6897
aS'a[6427]'
p6898
aS'a[5290]'
p6899
aS'a[3162]'
p6900
aS'a[1612]'
p6901
aS'a[925]'
p6902
aS'a[206]'
p6903
aS'a[5888]'
p6904
aS'a[277]'
p6905
aS'a[2372]'
p6906
aS'a[897]'
p6907
aS'a[206]'
p6908
aS'a[517]'
p6909
aS'a[813]'
p6910
aS'a[153]'
p6911
aS'a[4087]'
p6912
aS'a[2612]'
p6913
aS'a[1056]'
p6914
aS'a[67]'
p6915
aS'a[1760]'
p6916
aS'a[1612]'
p6917
aS'a[3770]'
p6918
aS'a[5075]'
p6919
aS'a[614]'
p6920
aS'a[2043]'
p6921
aS'a[491]'
p6922
aS'a[8990]'
p6923
aS'a[5839]'
p6924
aS'a[7203]'
p6925
aS'a[842]'
p6926
aS'a[5491]'
p6927
aS'a[827]'
p6928
aS'a[1225]'
p6929
aS'a[3852]'
p6930
aS'a[3136]'
p6931
aS'a[1676]'
p6932
aS'a[4666]'
p6933
aS'a[875]'
p6934
aS'a[2130]'
p6935
aS'a[7978]'
p6936
aS'a[7294]'
p6937
aS'a[4151]'
p6938
aS'a[32]'
p6939
aS'a[8098]'
p6940
aS'a[7263]'
p6941
aS'a[2286]'
p6942
aS'a[3369]'
p6943
aS'a[5153]'
p6944
aS'a[860]'
p6945
aS'a[1124]'
p6946
aS'a[121]'
p6947
aS'a[1216]'
p6948
aS'a[860]'
p6949
aS'a[4151]'
p6950
aS'a[2012]'
p6951
aS'a[0]'
p6952
aS'a[1629]'
p6953
aS'a[1612]'
p6954
aS'a[620]'
p6955
aS'a[5290]'
p6956
aS'a[5879]'
p6957
aS'a[3105]'
p6958
aS'a[620]'
p6959
aS'a[5660]'
p6960
aS'a[875]'
p6961
aS'a[441]'
p6962
aS'a[1693]'
p6963
aS'a[1762]'
p6964
aS'a[1889]'
p6965
aS'a[714]'
p6966
aS'a[3005]'
p6967
aS'a[8480]'
p6968
aS'a[3005]'
p6969
aS'a[3461]'
p6970
aS'a[620]'
p6971
aS'a[5024]'
p6972
aS'a[3891]'
p6973
aS'a[3458]'
p6974
aS'a[1676]'
p6975
aS'a[1441]'
p6976
aS'a[35]'
p6977
aS'a[8339]'
p6978
aS'a[7016]'
p6979
aS'a[696]'
p6980
aS'a[1225]'
p6981
aS'a[1313]'
p6982
aS'a[714]'
p6983
aS'a[880]'
p6984
aS'a[223]'
p6985
aS'a[6061]'
p6986
aS'a[8457]'
p6987
aS'a[7746]'
p6988
aS'a[7287]'
p6989
aS'a[6941]'
p6990
aS'a[7122]'
p6991
aS'a[7026]'
p6992
aS'a[491]'
p6993
aS'a[897]'
p6994
aS'a[8223]'
p6995
aS'a[714]'
p6996
aS'a[1148]'
p6997
aS'a[696]'
p6998
aS'a[3588]'
p6999
aS'a[4221]'
p7000
aS'a[790]'
p7001
aS'a[8754]'
p7002
aS'a[4397]'
p7003
aS'a[566]'
p7004
aS'a[890]'
p7005
aS'a[506]'
p7006
aS'a[897]'
p7007
aS'a[1549]'
p7008
aS'a[6043]'
p7009
aS'a[806]'
p7010
aS'a[2080]'
p7011
aS'a[890]'
p7012
aS'a[6106]'
p7013
aS'a[891]'
p7014
aS'a[3727]'
p7015
aS'a[536]'
p7016
aS'a[1506]'
p7017
aS'a[5503]'
p7018
aS'a[3050]'
p7019
aS'a[765]'
p7020
aS'a[5752]'
p7021
aS'a[1450]'
p7022
aS'a[2573]'
p7023
aS'a[3054]'
p7024
aS'a[6]'
p7025
aS'a[5739]'
p7026
aS'a[194]'
p7027
aS'a[4056]'
p7028
aS'a[6915]'
p7029
aS'a[4432]'
p7030
aS'a[1701]'
p7031
aS'a[4243]'
p7032
aS'a[4022]'
p7033
aS'a[5748]'
p7034
aS'a[4094]'
p7035
aS'a[4920]'
p7036
aS'a[6828]'
p7037
aS'a[1676]'
p7038
aS'a[842]'
p7039
aS'a[206]'
p7040
aS'a[105]'
p7041
aS'a[7382]'
p7042
aS'a[121]'
p7043
aS'a[202]'
p7044
aS'a[7104]'
p7045
aS'a[208]'
p7046
aS'a[145]'
p7047
aS'a[153]'
p7048
aS'a[806]'
p7049
aS'a[7891]'
p7050
aS'a[3192]'
p7051
aS'a[105]'
p7052
aS'a[506]'
p7053
aS'a[3427]'
p7054
aS'a[4643]'
p7055
aS'a[208]'
p7056
aS'a[4151]'
p7057
aS'a[5290]'
p7058
aS'a[1905]'
p7059
aS'a[162]'
p7060
aS'a[4087]'
p7061
aS'a[1015]'
p7062
aS'a[2482]'
p7063
aS'a[6761]'
p7064
aS'a[566]'
p7065
aS'a[7273]'
p7066
aS'a[506]'
p7067
aS'a[4844]'
p7068
aS'a[6981]'
p7069
aS'a[7249]'
p7070
aS'a[3033]'
p7071
aS'a[7309]'
p7072
aS'a[7658]'
p7073
aS'a[121]'
p7074
aS'a[194]'
p7075
aS'a[925]'
p7076
aS'a[3226]'
p7077
aS'a[1612]'
p7078
aS'a[897]'
p7079
aS'a[8242]'
p7080
aS'a[170]'
p7081
aS'a[7347]'
p7082
aS'a[7920]'
p7083
aS'a[851]'
p7084
aS'a[7500]'
p7085
aS'a[4087]'
p7086
aS'a[1085]'
p7087
aS'a[506]'
p7088
aS'a[1614]'
p7089
aS'a[860]'
p7090
aS'a[5709]'
p7091
aS'a[3636]'
p7092
aS'a[3952]'
p7093
aS'a[755]'
p7094
aS'a[962]'
p7095
aS'a[1734]'
p7096
aS'a[4056]'
p7097
aS'a[897]'
p7098
aS'a[2776]'
p7099
aS'a[3318]'
p7100
aS'a[5480]'
p7101
aS'a[1077]'
p7102
aS'a[1506]'
p7103
aS'a[506]'
p7104
aS'a[1225]'
p7105
aS'a[566]'
p7106
aS'a[4822]'
p7107
aS'a[5373]'
p7108
aS'a[4284]'
p7109
aS'a[67]'
p7110
aS'a[6474]'
p7111
aS'a[4151]'
p7112
aS'a[162]'
p7113
aS'a[714]'
p7114
aS'a[1159]'
p7115
aS'a[4749]'
p7116
aS'a[860]'
p7117
aS'a[1]'
p7118
aS'a[842]'
p7119
aS'a[445]'
p7120
aS'a[4087]'
p7121
aS'a[3273]'
p7122
aS'a[4151]'
p7123
aS'a[536]'
p7124
aS'a[842]'
p7125
aS'a[3668]'
p7126
aS'a[3102]'
p7127
aS'a[208]'
p7128
aS'a[491]'
p7129
aS'a[2111]'
p7130
aS'a[3192]'
p7131
aS'a[743]'
p7132
aS'a[5373]'
p7133
aS'a[2267]'
p7134
aS'a[538]'
p7135
aS'a[8415]'
p7136
aS'a[6445]'
p7137
aS'a[3434]'
p7138
aS'a[5095]'
p7139
aS'a[475]'
p7140
aS'a[9037]'
p7141
aS'a[194]'
p7142
aS'a[5383]'
p7143
aS'a[194]'
p7144
aS'a[714]'
p7145
aS'a[1056]'
p7146
aS'a[2165]'
p7147
aS'a[3918]'
p7148
aS'a[162]'
p7149
aS'a[202]'
p7150
aS'a[538]'
p7151
aS'a[1612]'
p7152
aS'a[3273]'
p7153
aS'a[4155]'
p7154
aS'a[4766]'
p7155
aS'a[890]'
p7156
aS'a[194]'
p7157
aS'a[194]'
p7158
aS'a[2678]'
p7159
aS'a[580]'
p7160
aS'a[1781]'
p7161
aS'a[3152]'
p7162
aS'a[7614]'
p7163
aS'a[1048]'
p7164
aS'a[3192]'
p7165
aS'a[5101]'
p7166
aS'a[6631]'
p7167
aS'a[8332]'
p7168
aS'a[5574]'
p7169
aS'a[528]'
p7170
aS'a[1676]'
p7171
aS'a[0]'
p7172
aS'a[714]'
p7173
aS'a[2549]'
p7174
aS'a[5292]'
p7175
aS'a[1866]'
p7176
aS'a[9139]'
p7177
aS'a[3208]'
p7178
aS'a[6552]'
p7179
aS'a[2090]'
p7180
aS'a[4786]'
p7181
aS'a[206]'
p7182
aS'a[1676]'
p7183
aS'a[1593]'
p7184
aS'a[5610]'
p7185
aS'a[0]'
p7186
aS'a[2410]'
p7187
aS'a[5653]'
p7188
aS'a[4374]'
p7189
aS'a[637]'
p7190
aS'a[743]'
p7191
aS'a[6406]'
p7192
aS'a[1848]'
p7193
aS'a[441]'
p7194
aS'a[624]'
p7195
aS'a[1510]'
p7196
aS'a[8346]'
p7197
aS'a[2217]'
p7198
aS'a[6320]'
p7199
aS'a[1306]'
p7200
aS'a[8476]'
p7201
aS'a[7035]'
p7202
aS'a[842]'
p7203
aS'a[790]'
p7204
aS'a[6864]'
p7205
aS'a[721]'
p7206
aS'a[790]'
p7207
aS'a[0]'
p7208
aS'a[162]'
p7209
aS'a[538]'
p7210
aS'a[6362]'
p7211
aS'a[813]'
p7212
aS'a[3893]'
p7213
aS'a[1225]'
p7214
aS'a[7679]'
p7215
aS'a[67]'
p7216
aS'a[4873]'
p7217
aS'a[794]'
p7218
aS'a[7317]'
p7219
aS'a[7150]'
p7220
aS'a[121]'
p7221
aS'a[925]'
p7222
aS'a[2549]'
p7223
aS'a[536]'
p7224
aS'a[1641]'
p7225
aS'a[4664]'
p7226
aS'a[817]'
p7227
aS'a[5307]'
p7228
aS'a[8911]'
p7229
aS'a[1506]'
p7230
aS'a[6260]'
p7231
aS'a[696]'
p7232
aS'a[2612]'
p7233
aS'a[8943]'
p7234
aS'a[842]'
p7235
aS'a[5914]'
p7236
aS'a[7452]'
p7237
aS'a[7980]'
p7238
aS'a[3273]'
p7239
aS'a[4650]'
p7240
aS'a[441]'
p7241
aS'a[4151]'
p7242
aS'a[194]'
p7243
aS'a[83]'
p7244
aS'a[5610]'
p7245
aS'a[3746]'
p7246
aS'a[382]'
p7247
aS'a[6]'
p7248
aS'a[2205]'
p7249
aS'a[8125]'
p7250
aS'a[566]'
p7251
aS'a[714]'
p7252
aS'a[9163]'
p7253
aS'a[5748]'
p7254
aS'a[3771]'
p7255
aS'a[4087]'
p7256
aS'a[1893]'
p7257
aS'a[3385]'
p7258
aS'a[1612]'
p7259
aS'a[580]'
p7260
aS'a[7854]'
p7261
aS'a[595]'
p7262
aS'a[6198]'
p7263
aS'a[714]'
p7264
aS'a[7471]'
p7265
aS'a[5748]'
p7266
aS'a[382]'
p7267
aS'a[6223]'
p7268
aS'a[162]'
p7269
aS'a[8369]'
p7270
aS'a[4822]'
p7271
aS'a[2006]'
p7272
aS'a[4768]'
p7273
aS'a[5520]'
p7274
aS'a[4909]'
p7275
aS'a[7497]'
p7276
aS'a[3280]'
p7277
aS'a[7978]'
p7278
aS'a[743]'
p7279
aS'a[4433]'
p7280
aS'a[7978]'
p7281
aS'a[277]'
p7282
aS'a[244]'
p7283
aS'a[7264]'
p7284
aS'a[8934]'
p7285
aS'a[7141]'
p7286
aS'a[7691]'
p7287
aS'a[5630]'
p7288
aS'a[897]'
p7289
aS'a[3192]'
p7290
aS'a[3215]'
p7291
aS'a[1159]'
p7292
aS'a[1414]'
p7293
aS'a[3273]'
p7294
aS'a[67]'
p7295
aS'a[206]'
p7296
aS'a[105]'
p7297
aS'a[5373]'
p7298
aS'a[1836]'
p7299
aS'a[7228]'
p7300
aS'a[620]'
p7301
aS'a[32]'
p7302
aS'a[1693]'
p7303
aS'a[1866]'
p7304
aS'a[4822]'
p7305
aS'a[6772]'
p7306
aS'a[1073]'
p7307
aS'a[4846]'
p7308
aS'a[7987]'
p7309
aS'a[506]'
p7310
aS'a[491]'
p7311
aS'a[2077]'
p7312
aS'a[5373]'
p7313
aS'a[3868]'
p7314
aS'a[2769]'
p7315
aS'a[4056]'
p7316
aS'a[105]'
p7317
aS'a[1866]'
p7318
aS'a[1427]'
p7319
aS'a[3566]'
p7320
aS'a[3918]'
p7321
aS'a[536]'
p7322
aS'a[3626]'
p7323
aS'a[4295]'
p7324
aS'a[896]'
p7325
aS'a[121]'
p7326
aS'a[52]'
p7327
aS'a[121]'
p7328
aS'a[32]'
p7329
aS'a[121]'
p7330
aS'a[194]'
p7331
aS'a[6492]'
p7332
aS'a[0]'
p7333
aS'a[4857]'
p7334
aS'a[491]'
p7335
aS'a[9078]'
p7336
aS'a[714]'
p7337
aS'a[4822]'
p7338
aS'a[5157]'
p7339
aS'a[0]'
p7340
aS'a[506]'
p7341
aS'a[890]'
p7342
aS'a[1253]'
p7343
aS'a[2793]'
p7344
aS'a[2150]'
p7345
aS'a[851]'
p7346
aS'a[2006]'
p7347
aS'a[1546]'
p7348
aS'a[7840]'
p7349
aS'a[1378]'
p7350
aS'a[3619]'
p7351
aS'a[7290]'
p7352
aS'a[538]'
p7353
aS'a[441]'
p7354
aS'a[6675]'
p7355
aS'a[3273]'
p7356
aS'a[491]'
p7357
aS'a[1441]'
p7358
aS'a[1225]'
p7359
aS'a[2006]'
p7360
aS'a[52]'
p7361
aS'a[1632]'
p7362
aS'a[4207]'
p7363
aS'a[4117]'
p7364
aS'a[1968]'
p7365
aS'a[2410]'
p7366
aS'a[7528]'
p7367
aS'a[2538]'
p7368
aS'a[2155]'
p7369
aS'a[6915]'
p7370
aS'a[4746]'
p7371
aS'a[5875]'
p7372
aS'a[194]'
p7373
aS'a[9]'
p7374
aS'a[2006]'
p7375
aS'a[194]'
p7376
aS'a[1866]'
p7377
aS'a[6141]'
p7378
aS'a[1866]'
p7379
aS'a[3273]'
p7380
aS'a[536]'
p7381
aS'a[1612]'
p7382
aS'a[595]'
p7383
aS'a[806]'
p7384
aS'a[8740]'
p7385
aS'a[223]'
p7386
aS'a[817]'
p7387
aS'a[2136]'
p7388
aS'a[1676]'
p7389
aS'a[6792]'
p7390
aS'a[0]'
p7391
aS'a[4782]'
p7392
aS'a[875]'
p7393
aS'a[2304]'
p7394
aS'a[4087]'
p7395
aS'a[894]'
p7396
aS'a[1693]'
p7397
aS'a[8696]'
p7398
aS'a[3625]'
p7399
aS'a[1676]'
p7400
aS'a[925]'
p7401
aS'a[1056]'
p7402
aS'a[3050]'
p7403
aS'a[3022]'
p7404
aS'a[2410]'
p7405
aS'a[875]'
p7406
aS'a[305]'
p7407
aS'a[7908]'
p7408
aS'a[458]'
p7409
aS'a[817]'
p7410
aS'a[3162]'
p7411
aS'a[7638]'
p7412
aS'a[96]'
p7413
aS'a[4067]'
p7414
aS'a[2865]'
p7415
aS'a[6971]'
p7416
aS'a[1048]'
p7417
aS'a[4163]'
p7418
aS'a[1466]'
p7419
aS'a[506]'
p7420
aS'a[890]'
p7421
aS'a[1854]'
p7422
aS'a[1959]'
p7423
aS'a[67]'
p7424
aS'a[860]'
p7425
aS'a[7136]'
p7426
aS'a[5646]'
p7427
aS'a[1904]'
p7428
aS'a[890]'
p7429
aS'a[4374]'
p7430
aS'a[441]'
p7431
aS'a[890]'
p7432
aS'a[4649]'
p7433
aS'a[223]'
p7434
aS'a[1661]'
p7435
aS'a[5370]'
p7436
aS'a[3879]'
p7437
aS'a[8048]'
p7438
aS'a[0]'
p7439
aS'a[2374]'
p7440
aS'a[206]'
p7441
aS'a[141]'
p7442
aS'a[7947]'
p7443
aS'a[6]'
p7444
aS'a[817]'
p7445
aS'a[755]'
p7446
aS'a[860]'
p7447
aS'a[714]'
p7448
aS'a[8535]'
p7449
aS'a[620]'
p7450
aS'a[3918]'
p7451
aS'a[7028]'
p7452
aS'a[897]'
p7453
aS'a[7060]'
p7454
aS'a[4467]'
p7455
aS'a[933]'
p7456
aS'a[842]'
p7457
aS'a[121]'
p7458
aS'a[2504]'
p7459
aS'a[1564]'
p7460
aS'a[875]'
p7461
aS'a[1612]'
p7462
aS'a[223]'
p7463
aS'a[7394]'
p7464
aS'a[842]'
p7465
aS'a[3868]'
p7466
aS'a[445]'
p7467
aS'a[1624]'
p7468
aS'a[1906]'
p7469
aS'a[3273]'
p7470
aS'a[880]'
p7471
aS'a[3688]'
p7472
aS'a[4093]'
p7473
aS'a[1933]'
p7474
aS'a[2790]'
p7475
aS'a[566]'
p7476
aS'a[8994]'
p7477
aS'a[1691]'
p7478
aS'a[52]'
p7479
aS'a[848]'
p7480
aS'a[466]'
p7481
aS'a[538]'
p7482
aS'a[1889]'
p7483
aS'a[300]'
p7484
aS'a[6541]'
p7485
aS'a[4301]'
p7486
aS'a[2574]'
p7487
aS'a[880]'
p7488
aS'a[5290]'
p7489
aS'a[375]'
p7490
aS'a[202]'
p7491
aS'a[1056]'
p7492
aS'a[277]'
p7493
aS'a[8102]'
p7494
aS'a[2308]'
p7495
aS'a[8834]'
p7496
aS'a[8967]'
p7497
aS'a[208]'
p7498
aS'a[194]'
p7499
aS'a[4595]'
p7500
aS'a[8155]'
p7501
aS'a[6918]'
p7502
aS'a[206]'
p7503
aS'a[7455]'
p7504
aS'a[5721]'
p7505
aS'a[714]'
p7506
aS'a[3192]'
p7507
aS'a[3829]'
p7508
aS'a[9094]'
p7509
aS'a[506]'
p7510
aS'a[5987]'
p7511
aS'a[860]'
p7512
aS'a[580]'
p7513
aS'a[201]'
p7514
aS'a[4607]'
p7515
aS'a[9179]'
p7516
aS'a[1756]'
p7517
aS'a[1441]'
p7518
aS'a[8573]'
p7519
aS'a[7726]'
p7520
aS'a[743]'
p7521
aS'a[2120]'
p7522
aS'a[2374]'
p7523
aS'a[1756]'
p7524
aS'a[3868]'
p7525
aS'a[4782]'
p7526
aS'a[244]'
p7527
aS'a[2560]'
p7528
aS'a[6798]'
p7529
aS'a[4487]'
p7530
aS'a[506]'
p7531
aS'a[9110]'
p7532
aS'a[7877]'
p7533
aS'a[2006]'
p7534
aS'a[4457]'
p7535
aS'a[1174]'
p7536
aS'a[1624]'
p7537
aS'a[162]'
p7538
aS'a[1676]'
p7539
aS'a[7978]'
p7540
aS'a[925]'
p7541
aS'a[1441]'
p7542
aS'a[1866]'
p7543
aS'a[2410]'
p7544
aS'a[880]'
p7545
aS'a[215]'
p7546
aS'a[2404]'
p7547
aS'a[3152]'
p7548
aS'a[105]'
p7549
aS'a[3868]'
p7550
aS'a[0]'
p7551
aS'a[8565]'
p7552
aS'a[538]'
p7553
aS'a[3600]'
p7554
aS'a[0]'
p7555
aS'a[580]'
p7556
aS'a[6649]'
p7557
aS'a[536]'
p7558
aS'a[1048]'
p7559
aS'a[5419]'
p7560
aS'a[1262]'
p7561
aS'a[4151]'
p7562
aS'a[714]'
p7563
aS'a[714]'
p7564
aS'a[3474]'
p7565
aS'a[5290]'
p7566
aS'a[1612]'
p7567
aS'a[1612]'
p7568
aS'a[244]'
p7569
aS'a[1564]'
p7570
aS'a[3868]'
p7571
aS'a[4519]'
p7572
aS'a[1612]'
p7573
aS'a[8602]'
p7574
aS'a[223]'
p7575
aS'a[445]'
p7576
aS'a[416]'
p7577
aS'a[3922]'
p7578
aS'a[4831]'
p7579
aS'a[5304]'
p7580
aS'a[8936]'
p7581
aS'a[3005]'
p7582
aS'a[5536]'
p7583
aS'a[661]'
p7584
aS'a[1234]'
p7585
aS'a[277]'
p7586
aS'a[4793]'
p7587
aS'a[0]'
p7588
aS'a[5288]'
p7589
aS'a[890]'
p7590
aS'a[7323]'
p7591
aS'a[153]'
p7592
aS'a[491]'
p7593
aS'a[4151]'
p7594
aS'a[3936]'
p7595
aS'a[9202]'
p7596
aS'a[1676]'
p7597
aS'a[6]'
p7598
aS'a[4542]'
p7599
aS'a[6]'
p7600
aS'a[6640]'
p7601
aS'a[382]'
p7602
aS'a[9207]'
p7603
aS'a[6710]'
p7604
aS'a[842]'
p7605
aS'a[8958]'
p7606
aS'a[6296]'
p7607
aS'a[244]'
p7608
aS'a[153]'
p7609
aS'a[7978]'
p7610
aS'a[1262]'
p7611
aS'a[3050]'
p7612
aS'a[5673]'
p7613
aS'a[1596]'
p7614
aS'a[1958]'
p7615
aS'a[6451]'
p7616
aS'a[696]'
p7617
aS'a[793]'
p7618
aS'a[1130]'
p7619
aS'a[538]'
p7620
aS'a[595]'
p7621
aS'a[4902]'
p7622
aS'a[3262]'
p7623
aS'a[740]'
p7624
aS'a[4289]'
p7625
aS'a[8043]'
p7626
aS'a[3918]'
p7627
aS'a[875]'
p7628
aS'a[105]'
p7629
aS'a[1889]'
p7630
aS'a[4300]'
p7631
aS'a[851]'
p7632
aS'a[1866]'
p7633
aS'a[223]'
p7634
aS'a[2648]'
p7635
aS'a[743]'
p7636
aS'a[629]'
p7637
aS'a[3671]'
p7638
aS'a[2796]'
p7639
aS'a[5610]'
p7640
aS'a[1048]'
p7641
aS'a[194]'
p7642
aS'a[3482]'
p7643
aS'a[1684]'
p7644
aS'a[1564]'
p7645
aS'a[8318]'
p7646
aS'a[3665]'
p7647
aS'a[6539]'
p7648
aS'a[3839]'
p7649
aS'a[153]'
p7650
aS'a[3483]'
p7651
aS'a[491]'
p7652
aS'a[208]'
p7653
aS'a[860]'
p7654
aS'a[2055]'
p7655
aS'a[2534]'
p7656
aS'a[2127]'
p7657
aS'a[755]'
p7658
aS'a[3372]'
p7659
aS'a[6459]'
p7660
aS'a[4621]'
p7661
aS'a[7264]'
p7662
aS'a[2279]'
p7663
aS'a[170]'
p7664
aS'a[6568]'
p7665
aS'a[4517]'
p7666
aS'a[842]'
p7667
aS'a[6978]'
p7668
aS'a[689]'
p7669
aS'a[0]'
p7670
aS'a[4874]'
p7671
aS'a[5841]'
p7672
aS'a[851]'
p7673
aS'a[1994]'
p7674
aS'a[6309]'
p7675
aS'a[3530]'
p7676
aS'a[6016]'
p7677
aS'a[2612]'
p7678
aS'a[439]'
p7679
aS'a[3723]'
p7680
aS'a[2410]'
p7681
aS'a[194]'
p7682
aS'a[6]'
p7683
aS'a[5610]'
p7684
aS'a[2178]'
p7685
aS'a[562]'
p7686
aS'a[5292]'
p7687
aS'a[714]'
p7688
aS'a[8995]'
p7689
aS'a[194]'
p7690
aS'a[7604]'
p7691
aS'a[5101]'
p7692
aS'a[3147]'
p7693
aS'a[5893]'
p7694
aS'a[6331]'
p7695
aS'a[3119]'
p7696
aS'a[428]'
p7697
aS'a[2374]'
p7698
aS'a[897]'
p7699
aS'a[6120]'
p7700
aS'a[206]'
p7701
aS'a[106]'
p7702
aS'a[1126]'
p7703
aS'a[7822]'
p7704
aS'a[661]'
p7705
aS'a[6439]'
p7706
aS'a[5288]'
p7707
aS'a[817]'
p7708
aS'a[7308]'
p7709
aS'a[445]'
p7710
aS'a[2446]'
p7711
aS'a[6173]'
p7712
aS'a[3294]'
p7713
aS'a[6364]'
p7714
aS'a[141]'
p7715
aS'a[141]'
p7716
aS'a[8479]'
p7717
aS'a[399]'
p7718
aS'a[4608]'
p7719
aS'a[538]'
p7720
aS'a[755]'
p7721
aS'a[696]'
p7722
aS'a[8434]'
p7723
aS'a[0]'
p7724
aS'a[194]'
p7725
aS'a[576]'
p7726
aS'a[5960]'
p7727
aS'a[305]'
p7728
aS'a[6724]'
p7729
aS'a[4152]'
p7730
aS'a[842]'
p7731
aS'a[2782]'
p7732
aS'a[399]'
p7733
aS'a[8710]'
p7734
aS'a[1159]'
p7735
aS'a[52]'
p7736
aS'a[2410]'
p7737
aS'a[32]'
p7738
aS'a[7432]'
p7739
aS'a[880]'
p7740
aS'a[1262]'
p7741
aS'a[1770]'
p7742
aS'a[1806]'
p7743
aS'a[7176]'
p7744
aS'a[817]'
p7745
aS'a[188]'
p7746
aS'a[897]'
p7747
aS'a[2983]'
p7748
aS'a[7363]'
p7749
aS'a[842]'
p7750
aS'a[353]'
p7751
aS'a[1056]'
p7752
aS'a[3366]'
p7753
aS'a[1700]'
p7754
aS'a[2006]'
p7755
aS'a[5658]'
p7756
aS'a[4165]'
p7757
aS'a[996]'
p7758
aS'a[67]'
p7759
aS'a[673]'
p7760
aS'a[7566]'
p7761
aS'a[5101]'
p7762
aS'a[6083]'
p7763
aS'a[486]'
p7764
aS'a[1499]'
p7765
aS'a[2884]'
p7766
aS'a[3272]'
p7767
aS'a[3465]'
p7768
aS'a[1262]'
p7769
aS'a[893]'
p7770
aS'a[8891]'
p7771
aS'a[244]'
p7772
aS'a[6673]'
p7773
aS'a[6130]'
p7774
aS'a[445]'
p7775
aS'a[538]'
p7776
aS'a[5272]'
p7777
aS'a[4904]'
p7778
aS'a[2612]'
p7779
aS'a[1159]'
p7780
aS'a[1603]'
p7781
aS'a[2410]'
p7782
aS'a[1624]'
p7783
aS'a[5448]'
p7784
aS'a[283]'
p7785
aS'a[2543]'
p7786
aS'a[3005]'
p7787
aS'a[6760]'
p7788
aS'a[8963]'
p7789
aS'a[6694]'
p7790
aS'a[1441]'
p7791
aS'a[612]'
p7792
aS'a[1676]'
p7793
aS'a[3005]'
p7794
aS'a[5018]'
p7795
aS'a[5888]'
p7796
aS'a[595]'
p7797
aS'a[8382]'
p7798
aS'a[860]'
p7799
aS'a[7070]'
p7800
aS'a[714]'
p7801
aS'a[6913]'
p7802
aS'a[1441]'
p7803
aS'a[162]'
p7804
aS'a[3365]'
p7805
aS'a[7644]'
p7806
aS'a[3472]'
p7807
aS'a[7404]'
p7808
aS'a[3868]'
p7809
aS'a[7264]'
p7810
aS'a[3030]'
p7811
aS'a[3410]'
p7812
aS'a[7864]'
p7813
aS'a[277]'
p7814
aS'a[89]'
p7815
aS'a[4225]'
p7816
aS'a[566]'
p7817
aS'a[890]'
p7818
aS'a[2793]'
p7819
aS'a[1048]'
p7820
aS'a[5072]'
p7821
aS'a[4151]'
p7822
aS'a[1554]'
p7823
aS'a[491]'
p7824
aS'a[1564]'
p7825
aS'a[897]'
p7826
aS'a[7084]'
p7827
aS'a[8077]'
p7828
aS'a[897]'
p7829
aS'a[6652]'
p7830
aS'a[2549]'
p7831
aS'a[4112]'
p7832
aS'a[4056]'
p7833
aS'a[4333]'
p7834
aS'a[880]'
p7835
aS'a[7008]'
p7836
aS'a[194]'
p7837
aS'a[506]'
p7838
aS'a[5258]'
p7839
aS'a[842]'
p7840
aS'a[1756]'
p7841
aS'a[149]'
p7842
aS'a[6951]'
p7843
aS'a[1035]'
p7844
aS'a[5610]'
p7845
aS'a[3672]'
p7846
aS'a[121]'
p7847
aS'a[2580]'
p7848
aS'a[7440]'
p7849
aS'a[7123]'
p7850
aS'a[1676]'
p7851
aS'a[52]'
p7852
aS'a[9084]'
p7853
aS'a[3868]'
p7854
aS'a[7170]'
p7855
aS'a[3918]'
p7856
aS'a[580]'
p7857
aS'a[3050]'
p7858
aS'a[8131]'
p7859
aS'a[56]'
p7860
aS'a[714]'
p7861
aS'a[6922]'
p7862
aS'a[1159]'
p7863
aS'a[8226]'
p7864
aS'a[8163]'
p7865
aS'a[755]'
p7866
aS'a[5199]'
p7867
aS'a[6120]'
p7868
aS'a[890]'
p7869
aS'a[714]'
p7870
aS'a[32]'
p7871
aS'a[5994]'
p7872
aS'a[206]'
p7873
aS'a[842]'
p7874
aS'a[6863]'
p7875
aS'a[4087]'
p7876
aS'a[1676]'
p7877
aS'a[875]'
p7878
aS'a[8211]'
p7879
aS'a[6476]'
p7880
aS'a[5535]'
p7881
aS'a[208]'
p7882
aS'a[7032]'
p7883
aS'a[382]'
p7884
aS'a[5268]'
p7885
aS'a[7512]'
p7886
aS'a[1056]'
p7887
aS'a[441]'
p7888
aS'a[3191]'
p7889
aS'a[489]'
p7890
aS'a[6394]'
p7891
aS'a[2664]'
p7892
aS'a[5254]'
p7893
aS'a[141]'
p7894
aS'a[6349]'
p7895
aS'a[194]'
p7896
aS'a[5240]'
p7897
aS'a[0]'
p7898
aS'a[194]'
p7899
aS'a[5748]'
p7900
aS'a[8712]'
p7901
aS'a[3531]'
p7902
aS'a[3918]'
p7903
aS'a[714]'
p7904
aS'a[6754]'
p7905
aS'a[5154]'
p7906
aS'a[2540]'
p7907
aS'a[806]'
p7908
aS'a[382]'
p7909
aS'a[2363]'
p7910
aS'a[3273]'
p7911
aS'a[696]'
p7912
aS'a[2549]'
p7913
aS'a[714]'
p7914
aS'a[595]'
p7915
aS'a[223]'
p7916
aS'a[732]'
p7917
aS'a[9044]'
p7918
aS'a[121]'
p7919
aS'a[5554]'
p7920
aS'a[462]'
p7921
aS'a[3705]'
p7922
aS'a[2473]'
p7923
aS'a[4330]'
p7924
aS'a[4721]'
p7925
aS'a[595]'
p7926
aS'a[1624]'
p7927
aS'a[790]'
p7928
aS'a[2549]'
p7929
aS'a[2525]'
p7930
aS'a[4651]'
p7931
aS'a[4577]'
p7932
aS'a[506]'
p7933
aS'a[3235]'
p7934
aS'a[8285]'
p7935
aS'a[1204]'
p7936
aS'a[1899]'
p7937
aS'a[890]'
p7938
aS'a[4420]'
p7939
aS'a[288]'
p7940
aS'a[8528]'
p7941
aS'a[6898]'
p7942
aS'a[5808]'
p7943
aS'a[8740]'
p7944
aS'a[8461]'
p7945
aS'a[2756]'
p7946
aS'a[1756]'
p7947
aS'a[8749]'
p7948
aS'a[890]'
p7949
aS'a[52]'
p7950
aS'a[1918]'
p7951
aS'a[6207]'
p7952
aS'a[6557]'
p7953
aS'a[32]'
p7954
aS'a[2104]'
p7955
aS'a[2842]'
p7956
aS'a[4056]'
p7957
aS'a[8067]'
p7958
aS'a[52]'
p7959
aS'a[566]'
p7960
aS'a[118]'
p7961
aS'a[3910]'
p7962
aS'a[194]'
p7963
aS'a[141]'
p7964
aS'a[3918]'
p7965
aS'a[1294]'
p7966
aS'a[4537]'
p7967
aS'a[714]'
p7968
aS'a[5940]'
p7969
aS'a[1262]'
p7970
aS'a[7859]'
p7971
aS'a[283]'
p7972
aS'a[441]'
p7973
aS'a[2549]'
p7974
aS'a[1441]'
p7975
aS'a[1966]'
p7976
aS'a[162]'
p7977
aS'a[2901]'
p7978
aS'a[141]'
p7979
aS'a[5101]'
p7980
aS'a[7701]'
p7981
aS'a[5589]'
p7982
aS'a[162]'
p7983
aS'a[8802]'
p7984
aS'a[1676]'
p7985
aS'a[1506]'
p7986
aS'a[1943]'
p7987
aS'a[8950]'
p7988
aS'a[620]'
p7989
aS'a[1889]'
p7990
aS'a[85]'
p7991
aS'a[696]'
p7992
aS'a[3838]'
p7993
aS'a[897]'
p7994
aS'a[755]'
p7995
aS'a[2161]'
p7996
aS'a[714]'
p7997
aS'a[714]'
p7998
aS'a[3459]'
p7999
aS'a[506]'
p8000
aS'a[4902]'
p8001
aS'a[6718]'
p8002
aS'a[1676]'
p8003
aS'a[32]'
p8004
aS'a[5292]'
p8005
aS'a[9026]'
p8006
aS'a[2390]'
p8007
aS'a[1889]'
p8008
aS'a[206]'
p8009
aS'a[7493]'
p8010
aS'a[162]'
p8011
aS'a[790]'
p8012
aS'a[4822]'
p8013
aS'a[125]'
p8014
aS'a[1048]'
p8015
aS'a[1427]'
p8016
aS'a[1889]'
p8017
aS'a[595]'
p8018
aS'a[2676]'
p8019
aS'a[8022]'
p8020
aS'a[2810]'
p8021
aS'a[2577]'
p8022
aS'a[6501]'
p8023
aS'a[2885]'
p8024
aS'a[7481]'
p8025
aS'a[880]'
p8026
aS'a[5218]'
p8027
aS'a[3396]'
p8028
aS'a[714]'
p8029
aS'a[536]'
p8030
aS'a[1676]'
p8031
aS'a[1045]'
p8032
aS'a[7978]'
p8033
aS'a[1441]'
p8034
aS'a[842]'
p8035
aS'a[8035]'
p8036
aS'a[7998]'
p8037
aS'a[404]'
p8038
aS'a[5748]'
p8039
aS'a[277]'
p8040
aS'a[194]'
p8041
aS'a[61]'
p8042
aS'a[7998]'
p8043
aS'a[3005]'
p8044
aS'a[1506]'
p8045
aS'a[223]'
p8046
aS'a[714]'
p8047
aS'a[745]'
p8048
aS'a[4644]'
p8049
aS'a[9081]'
p8050
aS'a[7998]'
p8051
aS'a[96]'
p8052
aS'a[4087]'
p8053
aS'a[897]'
p8054
aS'a[743]'
p8055
aS'a[206]'
p8056
aS'a[5965]'
p8057
aS'a[419]'
p8058
aS'a[1693]'
p8059
aS'a[4446]'
p8060
aS'a[4822]'
p8061
aS'a[5921]'
p8062
aS'a[2629]'
p8063
aS'a[7137]'
p8064
aS'a[5037]'
p8065
aS'a[5798]'
p8066
aS'a[6]'
p8067
aS'a[6643]'
p8068
aS'a[7549]'
p8069
aS'a[1624]'
p8070
aS'a[8785]'
p8071
aS'a[206]'
p8072
aS'a[842]'
p8073
aS'a[3868]'
p8074
aS'a[1622]'
p8075
aS'a[1866]'
p8076
aS'a[1866]'
p8077
aS'a[1889]'
p8078
aS'a[162]'
p8079
aS'a[1225]'
p8080
aS'a[714]'
p8081
aS'a[4936]'
p8082
aS'a[730]'
p8083
aS'a[3273]'
p8084
aS'a[2549]'
p8085
aS'a[6761]'
p8086
aS'a[3128]'
p8087
aS'a[5748]'
p8088
aS'a[265]'
p8089
aS'a[8310]'
p8090
aS'a[4056]'
p8091
aS'a[4079]'
p8092
aS'a[223]'
p8093
aS'a[506]'
p8094
aS'a[5316]'
p8095
aS'a[2119]'
p8096
aS'a[3190]'
p8097
aS'a[8598]'
p8098
aS'a[8881]'
p8099
aS'a[6573]'
p8100
aS'a[817]'
p8101
aS'a[7137]'
p8102
aS'a[141]'
p8103
aS'a[5748]'
p8104
aS'a[123]'
p8105
aS'a[243]'
p8106
aS'a[538]'
p8107
aS'a[2549]'
p8108
aS'a[3192]'
p8109
aS'a[5384]'
p8110
aS'a[32]'
p8111
aS'a[696]'
p8112
aS'a[842]'
p8113
aS'a[244]'
p8114
aS'a[7929]'
p8115
aS'a[1648]'
p8116
aS'a[1441]'
p8117
aS'a[1262]'
p8118
aS'a[8274]'
p8119
aS'a[506]'
p8120
aS'a[7264]'
p8121
aS'a[2308]'
p8122
aS'a[2417]'
p8123
aS'a[3135]'
p8124
aS'a[277]'
p8125
aS'a[6896]'
p8126
aS'a[880]'
p8127
aS'a[4439]'
p8128
aS'a[5292]'
p8129
aS'a[194]'
p8130
aS'a[2374]'
p8131
aS'a[1889]'
p8132
aS'a[852]'
p8133
aS'a[382]'
p8134
aS'a[176]'
p8135
aS'a[506]'
p8136
aS'a[3481]'
p8137
aS'a[3192]'
p8138
aS'a[9014]'
p8139
aS'a[851]'
p8140
aS'a[4735]'
p8141
aS'a[8888]'
p8142
aS'a[2374]'
p8143
aS'a[1866]'
p8144
aS'a[4822]'
p8145
aS'a[4822]'
p8146
aS'a[2365]'
p8147
aS'a[7294]'
p8148
aS'a[4920]'
p8149
aS'a[2006]'
p8150
aS'a[755]'
p8151
aS'a[5008]'
p8152
aS'a[105]'
p8153
aS'a[5292]'
p8154
aS'a[2374]'
p8155
aS'a[1123]'
p8156
aS'a[202]'
p8157
aS'a[382]'
p8158
aS'a[842]'
p8159
aS'a[2410]'
p8160
aS'a[5373]'
p8161
aS'a[5292]'
p8162
aS'a[1262]'
p8163
aS'a[752]'
p8164
aS'a[2066]'
p8165
aS'a[8169]'
p8166
aS'a[5610]'
p8167
aS'a[1676]'
p8168
aS'a[5563]'
p8169
aS'a[5064]'
p8170
aS'a[382]'
p8171
aS'a[806]'
p8172
aS'a[6527]'
p8173
aS'a[2667]'
p8174
aS'a[202]'
p8175
aS'a[7978]'
p8176
aS'a[1693]'
p8177
aS'a[714]'
p8178
aS'a[8410]'
p8179
aS'a[6755]'
p8180
aS'a[5373]'
p8181
aS'a[5101]'
p8182
aS'a[8609]'
p8183
aS'a[5073]'
p8184
aS'a[620]'
p8185
aS'a[714]'
p8186
aS'a[1624]'
p8187
aS'a[7978]'
p8188
aS'a[851]'
p8189
aS'a[7998]'
p8190
aS'a[806]'
p8191
aS'a[2793]'
p8192
aS'a[4939]'
p8193
aS'a[817]'
p8194
aS'a[4153]'
p8195
aS'a[8939]'
p8196
aS'a[2406]'
p8197
aS'a[752]'
p8198
aS'a[8127]'
p8199
aS'a[244]'
p8200
aS'a[7192]'
p8201
aS'a[5610]'
p8202
aS'a[4726]'
p8203
aS'a[2006]'
p8204
aS'a[3832]'
p8205
aS'a[2549]'
p8206
aS'a[4151]'
p8207
aS'a[1676]'
p8208
aS'a[5610]'
p8209
aS'a[3951]'
p8210
aS'a[1468]'
p8211
aS'a[506]'
p8212
aS'a[8392]'
p8213
aS'a[6519]'
p8214
aS'a[1262]'
p8215
aS'a[4339]'
p8216
aS'a[1441]'
p8217
aS'a[714]'
p8218
aS'a[4151]'
p8219
aS'a[194]'
p8220
aS'a[8956]'
p8221
aS'a[3758]'
p8222
aS'a[4384]'
p8223
aS'a[897]'
p8224
aS'a[842]'
p8225
aS'a[1107]'
p8226
aS'a[4087]'
p8227
aS'a[4316]'
p8228
aS'a[890]'
p8229
aS'a[696]'
p8230
aS'a[2410]'
p8231
aS'a[8703]'
p8232
aS'a[7050]'
p8233
aS'a[925]'
p8234
aS'a[3868]'
p8235
aS'a[4135]'
p8236
aS'a[52]'
p8237
aS'a[2534]'
p8238
aS'a[4152]'
p8239
aS'a[52]'
p8240
aS'a[7705]'
p8241
aS'a[9037]'
p8242
aS'a[4827]'
p8243
aS'a[8725]'
p8244
aS'a[386]'
p8245
aS'a[32]'
p8246
aS'a[6647]'
p8247
aS'a[399]'
p8248
aS'a[5610]'
p8249
aS'a[5612]'
p8250
aS'a[985]'
p8251
aS'a[4822]'
p8252
aS'a[1866]'
p8253
aS'a[52]'
p8254
aS'a[5292]'
p8255
aS'a[9064]'
p8256
aS'a[5631]'
p8257
aS'a[714]'
p8258
aS'a[3075]'
p8259
aS'a[6767]'
p8260
aS'a[123]'
p8261
aS'a[1427]'
p8262
aS'a[5290]'
p8263
aS'a[714]'
p8264
aS'a[9185]'
p8265
aS'a[199]'
p8266
aS'a[860]'
p8267
aS'a[2981]'
p8268
aS'a[628]'
p8269
aS'a[3894]'
p8270
aS'a[5262]'
p8271
aS'a[7785]'
p8272
aS'a[123]'
p8273
aS'a[830]'
p8274
aS'a[9052]'
p8275
aS'a[8745]'
p8276
aS'a[162]'
p8277
aS'a[3026]'
p8278
aS'a[339]'
p8279
aS'a[8934]'
p8280
aS'a[206]'
p8281
aS'a[6858]'
p8282
aS'a[3594]'
p8283
aS'a[8451]'
p8284
aS'a[3273]'
p8285
aS'a[4413]'
p8286
aS'a[4586]'
p8287
aS'a[7655]'
p8288
aS'a[842]'
p8289
aS'a[1048]'
p8290
aS'a[3273]'
p8291
aS'a[5373]'
p8292
aS'a[1866]'
p8293
aS'a[5389]'
p8294
aS'a[3493]'
p8295
aS'a[536]'
p8296
aS'a[880]'
p8297
aS'a[5667]'
p8298
aS'a[1048]'
p8299
aS'a[1612]'
p8300
aS'a[8750]'
p8301
aS'a[1236]'
p8302
aS'a[1604]'
p8303
aS'a[3802]'
p8304
aS'a[2006]'
p8305
aS'a[1159]'
p8306
aS'a[2720]'
p8307
aS'a[56]'
p8308
aS'a[6547]'
p8309
aS'a[1681]'
p8310
aS'a[1007]'
p8311
aS'a[8595]'
p8312
aS'a[8534]'
p8313
aS'a[4191]'
p8314
aS'a[277]'
p8315
aS'a[8841]'
p8316
aS'a[8126]'
p8317
aS'a[851]'
p8318
aS'a[2793]'
p8319
aS'a[223]'
p8320
aS'a[3348]'
p8321
aS'a[382]'
p8322
aS'a[6164]'
p8323
aS'a[860]'
p8324
aS'a[4003]'
p8325
aS'a[7663]'
p8326
aS'a[3957]'
p8327
aS'a[3361]'
p8328
aS'a[506]'
p8329
aS'a[1889]'
p8330
aS'a[7780]'
p8331
aS'a[5402]'
p8332
aS'a[2549]'
p8333
aS'a[880]'
p8334
aS'a[129]'
p8335
aS'a[3597]'
p8336
aS'a[8148]'
p8337
aS'a[3192]'
p8338
aS'a[1235]'
p8339
aS'a[714]'
p8340
aS'a[5695]'
p8341
aS'a[244]'
p8342
aS'a[506]'
p8343
aS'a[6]'
p8344
aS'a[5914]'
p8345
aS'a[5755]'
p8346
aS'a[5423]'
p8347
aS'a[8882]'
p8348
aS'a[8533]'
p8349
aS'a[5610]'
p8350
aS'a[2528]'
p8351
aS'a[2793]'
p8352
aS'a[5198]'
p8353
aS'a[1159]'
p8354
aS'a[4781]'
p8355
aS'a[2667]'
p8356
aS'a[580]'
p8357
aS'a[2067]'
p8358
aS'a[4087]'
p8359
aS'a[806]'
p8360
aS'a[8702]'
p8361
aS'a[382]'
p8362
aS'a[6152]'
p8363
aS'a[3918]'
p8364
aS'a[813]'
p8365
aS'a[2368]'
p8366
aS'a[2668]'
p8367
aS'a[893]'
p8368
aS'a[8063]'
p8369
aS'a[1612]'
p8370
aS'a[8366]'
p8371
aS'a[817]'
p8372
aS'a[6962]'
p8373
aS'a[7998]'
p8374
aS'a[4151]'
p8375
aS'a[1898]'
p8376
aS'a[8596]'
p8377
aS'a[1159]'
p8378
aS'a[5729]'
p8379
aS'a[2612]'
p8380
aS'a[194]'
p8381
aS'a[5118]'
p8382
aS'a[8337]'
p8383
aS'a[3723]'
p8384
aS'a[9068]'
p8385
aS'a[3005]'
p8386
aS'a[4577]'
p8387
aS'a[996]'
p8388
aS'a[441]'
p8389
aS'a[2379]'
p8390
aS'a[7172]'
p8391
aS'a[6102]'
p8392
aS'a[1333]'
p8393
aS'a[583]'
p8394
aS'a[6917]'
p8395
aS'a[4752]'
p8396
aS'a[0]'
p8397
aS'a[491]'
p8398
aS'a[7978]'
p8399
aS'a[1624]'
p8400
aS'a[4455]'
p8401
aS'a[135]'
p8402
aS'a[8803]'
p8403
aS'a[2818]'
p8404
aS'a[160]'
p8405
aS'a[735]'
p8406
aS'a[4087]'
p8407
aS'a[4902]'
p8408
aS'a[1612]'
p8409
aS'a[2168]'
p8410
aS'a[7158]'
p8411
aS'a[4711]'
p8412
aS'a[1889]'
p8413
aS'a[580]'
p8414
aS'a[202]'
p8415
aS'a[202]'
p8416
aS'a[842]'
p8417
aS'a[121]'
p8418
aS'a[6]'
p8419
aS'a[806]'
p8420
aS'a[2264]'
p8421
aS'a[52]'
p8422
aS'a[3034]'
p8423
aS'a[60]'
p8424
aS'a[620]'
p8425
aS'a[8926]'
p8426
aS'a[1506]'
p8427
aS'a[4984]'
p8428
aS'a[2368]'
p8429
aS'a[5748]'
p8430
aS'a[743]'
p8431
aS'a[1866]'
p8432
aS'a[1225]'
p8433
aS'a[2890]'
p8434
aS'a[5909]'
p8435
aS'a[3868]'
p8436
aS'a[790]'
p8437
aS'a[897]'
p8438
aS'a[4626]'
p8439
aS'a[223]'
p8440
aS'a[3716]'
p8441
aS'a[714]'
p8442
aS'a[5748]'
p8443
aS'a[223]'
p8444
aS'a[2614]'
p8445
aS'a[2760]'
p8446
aS'a[7498]'
p8447
aS'a[2549]'
p8448
aS'a[842]'
p8449
aS'a[6016]'
p8450
aS'a[714]'
p8451
aS'a[2113]'
p8452
aS'a[2374]'
p8453
aS'a[790]'
p8454
aS'a[595]'
p8455
aS'a[714]'
p8456
aS'a[309]'
p8457
aS'a[83]'
p8458
aS'a[743]'
p8459
aS'a[7013]'
p8460
aS'a[123]'
p8461
aS'a[5832]'
p8462
aS'a[397]'
p8463
aS'a[8296]'
p8464
aS'a[5302]'
p8465
aS'a[7998]'
p8466
aS'a[1278]'
p8467
aS'a[7310]'
p8468
aS'a[4158]'
p8469
aS'a[6360]'
p8470
aS'a[7004]'
p8471
aS'a[8943]'
p8472
aS'a[3599]'
p8473
aS'a[4165]'
p8474
aS'a[2426]'
p8475
aS'a[4087]'
p8476
aS'a[8574]'
p8477
aS'a[314]'
p8478
aS'a[5154]'
p8479
aS'a[96]'
p8480
aS'a[3273]'
p8481
aS'a[9033]'
p8482
aS'a[3054]'
p8483
aS'a[3959]'
p8484
aS'a[194]'
p8485
aS'a[121]'
p8486
aS'a[6526]'
p8487
aS'a[714]'
p8488
aS'a[1693]'
p8489
aS'a[1676]'
p8490
aS'a[4946]'
p8491
aS'a[2141]'
p8492
aS'a[215]'
p8493
aS'a[714]'
p8494
aS'a[8908]'
p8495
aS'a[5290]'
p8496
aS'a[7462]'
p8497
aS'a[890]'
p8498
aS'a[3884]'
p8499
aS'a[434]'
p8500
aS'a[1704]'
p8501
aS'a[7486]'
p8502
aS'a[3306]'
p8503
aS'a[1279]'
p8504
aS'a[445]'
p8505
aS'a[6723]'
p8506
aS'a[842]'
p8507
aS'a[3044]'
p8508
aS'a[3273]'
p8509
aS'a[3890]'
p8510
aS'a[7096]'
p8511
aS'a[3582]'
p8512
aS'a[3868]'
p8513
aS'a[5255]'
p8514
aS'a[3273]'
p8515
aS'a[153]'
p8516
aS'a[842]'
p8517
aS'a[1506]'
p8518
aS'a[5292]'
p8519
aS'a[123]'
p8520
aS'a[4902]'
p8521
aS'a[9040]'
p8522
aS'a[3868]'
p8523
aS'a[5788]'
p8524
aS'a[696]'
p8525
aS'a[32]'
p8526
aS'a[7198]'
p8527
aS'a[580]'
p8528
aS'a[5496]'
p8529
aS'a[194]'
p8530
aS'a[851]'
p8531
aS'a[566]'
p8532
aS'a[580]'
p8533
aS'a[5117]'
p8534
aS'a[8]'
p8535
aS'a[714]'
p8536
aS'a[4131]'
p8537
aS'a[7998]'
p8538
aS'a[7865]'
p8539
aS'a[538]'
p8540
aS'a[1167]'
p8541
aS'a[194]'
p8542
aS'a[4087]'
p8543
aS'a[4822]'
p8544
aS'a[2790]'
p8545
aS'a[5741]'
p8546
aS'a[4241]'
p8547
aS'a[6118]'
p8548
aS'a[1506]'
p8549
aS'a[1403]'
p8550
aS'a[714]'
p8551
aS'a[223]'
p8552
aS'a[162]'
p8553
aS'a[8409]'
p8554
aS'a[5610]'
p8555
aS'a[1709]'
p8556
aS'a[382]'
p8557
aS'a[5450]'
p8558
aS'a[277]'
p8559
aS'a[506]'
p8560
aS'a[714]'
p8561
aS'a[5292]'
p8562
aS'a[3050]'
p8563
aS'a[3050]'
p8564
aS'a[842]'
p8565
aS'a[538]'
p8566
aS'a[714]'
p8567
aS'a[1749]'
p8568
aS'a[5718]'
p8569
aS'a[4056]'
p8570
aS'a[925]'
p8571
aS'a[8901]'
p8572
aS'a[2074]'
p8573
aS'a[566]'
p8574
aS'a[4819]'
p8575
aS'a[14]'
p8576
aS'a[4347]'
p8577
aS'a[1159]'
p8578
aS'a[208]'
p8579
aS'a[96]'
p8580
aS'a[3667]'
p8581
aS'a[897]'
p8582
aS'a[1441]'
p8583
aS'a[399]'
p8584
aS'a[3050]'
p8585
aS'a[6751]'
p8586
aS'a[4087]'
p8587
aS'a[2188]'
p8588
aS'a[880]'
p8589
aS'a[4289]'
p8590
aS'a[817]'
p8591
aS'a[4074]'
p8592
aS'a[7872]'
p8593
aS'a[223]'
p8594
aS'a[6404]'
p8595
aS'a[7264]'
p8596
aS'a[9212]'
p8597
aS'a[4151]'
p8598
aS'a[696]'
p8599
aS'a[5906]'
p8600
aS'a[4056]'
p8601
aS'a[96]'
p8602
aS'a[714]'
p8603
aS'a[817]'
p8604
aS'a[1291]'
p8605
aS'a[3192]'
p8606
aS'a[141]'
p8607
aS'a[6470]'
p8608
aS'a[7659]'
p8609
aS'a[153]'
p8610
aS'a[4151]'
p8611
aS'a[7978]'
p8612
aS'a[3565]'
p8613
aS'a[1048]'
p8614
aS'a[2760]'
p8615
aS'a[6722]'
p8616
aS'a[105]'
p8617
aS'a[3590]'
p8618
aS'a[1063]'
p8619
aS'a[121]'
p8620
aS'a[3273]'
p8621
aS'a[1624]'
p8622
aS'a[536]'
p8623
aS'a[5631]'
p8624
aS'a[162]'
p8625
aS'a[714]'
p8626
aS'a[5042]'
p8627
aS'a[890]'
p8628
aS'a[5610]'
p8629
aS'a[9067]'
p8630
aS'a[3162]'
p8631
aS'a[6173]'
p8632
aS'a[3226]'
p8633
aS'a[5772]'
p8634
aS'a[7417]'
p8635
aS'a[2040]'
p8636
aS'a[987]'
p8637
aS'a[7467]'
p8638
aS'a[109]'
p8639
aS'a[4828]'
p8640
aS'a[714]'
p8641
aS'a[3005]'
p8642
aS'a[1363]'
p8643
aS'a[277]'
p8644
aS'a[1889]'
p8645
aS'a[864]'
p8646
aS'a[3169]'
p8647
aS'a[4813]'
p8648
aS'a[0]'
p8649
aS'a[4526]'
p8650
aS'a[3945]'
p8651
aS'a[4667]'
p8652
aS'a[3273]'
p8653
aS'a[153]'
p8654
aS'a[5679]'
p8655
aS'a[223]'
p8656
aS'a[506]'
p8657
aS'a[1441]'
p8658
aS'a[3757]'
p8659
aS'a[8424]'
p8660
aS'a[3273]'
p8661
aS'a[7303]'
p8662
aS'a[8827]'
p8663
aS'a[4814]'
p8664
aS'a[4990]'
p8665
aS'a[1243]'
p8666
aS'a[7264]'
p8667
aS'a[121]'
p8668
aS'a[5292]'
p8669
aS'a[4144]'
p8670
aS'a[2222]'
p8671
aS'a[714]'
p8672
aS'a[291]'
p8673
aS'a[6611]'
p8674
aS'a[1356]'
p8675
aS'a[5748]'
p8676
aS'a[2410]'
p8677
aS'a[611]'
p8678
aS'a[2549]'
p8679
aS'a[5610]'
p8680
aS'a[5748]'
p8681
aS'a[4965]'
p8682
aS'a[8854]'
p8683
aS'a[925]'
p8684
aS'a[7321]'
p8685
aS'a[8704]'
p8686
aS'a[5996]'
p8687
aS'a[1624]'
p8688
aS'a[5954]'
p8689
aS'a[1677]'
p8690
aS'a[5748]'
p8691
aS'a[3382]'
p8692
aS'a[8663]'
p8693
aS'a[7873]'
p8694
aS'a[4991]'
p8695
aS'a[1556]'
p8696
aS'a[8190]'
p8697
aS'a[3706]'
p8698
aS'a[620]'
p8699
aS'a[6280]'
p8700
aS'a[4459]'
p8701
aS'a[3749]'
p8702
aS'a[3835]'
p8703
aS'a[1601]'
p8704
aS'a[1906]'
p8705
aS'a[755]'
p8706
aS'a[3480]'
p8707
aS'a[1866]'
p8708
aS'a[8189]'
p8709
aS'a[538]'
p8710
aS'a[580]'
p8711
aS'a[1262]'
p8712
aS'a[790]'
p8713
aS'a[2006]'
p8714
aS'a[1911]'
p8715
aS'a[6540]'
p8716
aS'a[2821]'
p8717
aS'a[8583]'
p8718
aS'a[1427]'
p8719
aS'a[536]'
p8720
aS'a[7858]'
p8721
aS'a[5748]'
p8722
aS'a[8385]'
p8723
aS'a[1427]'
p8724
aS'a[875]'
p8725
aS'a[0]'
p8726
aS'a[8777]'
p8727
aS'a[1564]'
p8728
aS'a[566]'
p8729
aS'a[170]'
p8730
aS'a[2612]'
p8731
aS'a[206]'
p8732
aS'a[5292]'
p8733
aS'a[6217]'
p8734
aS'a[9099]'
p8735
aS'a[1159]'
p8736
aS'a[2110]'
p8737
aS'a[755]'
p8738
aS'a[1866]'
p8739
aS'a[890]'
p8740
aS'a[4151]'
p8741
aS'a[123]'
p8742
aS'a[8398]'
p8743
aS'a[6449]'
p8744
aS'a[506]'
p8745
aS'a[1893]'
p8746
aS'a[3387]'
p8747
aS'a[3520]'
p8748
aS'a[1056]'
p8749
aS'a[869]'
p8750
aS'a[506]'
p8751
aS'a[806]'
p8752
aS'a[5610]'
p8753
aS'a[5292]'
p8754
aS'a[5451]'
p8755
aS'a[1693]'
p8756
aS'a[5292]'
p8757
aS'a[1693]'
p8758
aS'a[162]'
p8759
aS'a[1676]'
p8760
aS'a[790]'
p8761
aS'a[580]'
p8762
aS'a[897]'
p8763
aS'a[7576]'
p8764
aS'a[2796]'
p8765
aS'a[153]'
p8766
aS'a[7323]'
p8767
aS'a[5610]'
p8768
aS'a[6804]'
p8769
aS'a[6479]'
p8770
aS'a[3162]'
p8771
aS'a[1402]'
p8772
aS'a[7502]'
p8773
aS'a[1612]'
p8774
aS'a[7492]'
p8775
aS'a[2451]'
p8776
aS'a[96]'
p8777
aS'a[277]'
p8778
aS'a[851]'
p8779
aS'a[105]'
p8780
aS'a[1225]'
p8781
aS'a[5200]'
p8782
aS'a[1441]'
p8783
aS'a[8433]'
p8784
aS'a[4056]'
p8785
aS'a[817]'
p8786
aS'a[1427]'
p8787
aS'a[7901]'
p8788
aS'a[2410]'
p8789
aS'a[3317]'
p8790
aS'a[8678]'
p8791
aS'a[1708]'
p8792
aS'a[105]'
p8793
aS'a[536]'
p8794
aS'a[9000]'
p8795
aS'a[1427]'
p8796
aS'a[6756]'
p8797
aS'a[4289]'
p8798
aS'a[696]'
p8799
aS'a[5511]'
p8800
aS'a[8774]'
p8801
aS'a[4681]'
p8802
aS'a[223]'
p8803
aS'a[4056]'
p8804
aS'a[244]'
p8805
aS'a[2986]'
p8806
aS'a[1866]'
p8807
aS'a[5323]'
p8808
aS'a[206]'
p8809
aS'a[1442]'
p8810
aS'a[8209]'
p8811
aS'a[240]'
p8812
aS'a[714]'
p8813
aS'a[875]'
p8814
aS'a[491]'
p8815
aS'a[1311]'
p8816
aS'a[1159]'
p8817
aS'a[4347]'
p8818
aS'a[2335]'
p8819
aS'a[162]'
p8820
aS'a[536]'
p8821
aS'a[2612]'
p8822
aS'a[2327]'
p8823
aS'a[1262]'
p8824
aS'a[2400]'
p8825
aS'a[714]'
p8826
aS'a[4875]'
p8827
aS'a[6047]'
p8828
aS'a[8681]'
p8829
aS'a[1676]'
p8830
aS'a[491]'
p8831
aS'a[3273]'
p8832
aS'a[6029]'
p8833
aS'a[1612]'
p8834
aS'a[96]'
p8835
aS'a[854]'
p8836
aS'a[52]'
p8837
aS'a[201]'
p8838
aS'a[8710]'
p8839
aS'a[7676]'
p8840
aS'a[5290]'
p8841
aS'a[223]'
p8842
aS'a[890]'
p8843
aS'a[743]'
p8844
aS'a[1056]'
p8845
aS'a[8975]'
p8846
aS'a[8996]'
p8847
aS'a[7990]'
p8848
aS'a[5373]'
p8849
aS'a[7435]'
p8850
aS'a[491]'
p8851
aS'a[2410]'
p8852
aS'a[506]'
p8853
aS'a[1990]'
p8854
aS'a[223]'
p8855
aS'a[3162]'
p8856
aS'a[4489]'
p8857
aS'a[8816]'
p8858
aS'a[6]'
p8859
aS'a[4195]'
p8860
aS'a[620]'
p8861
aS'a[6743]'
p8862
aS'a[2062]'
p8863
aS'a[2793]'
p8864
aS'a[7264]'
p8865
aS'a[7797]'
p8866
aS'a[5191]'
p8867
aS'a[880]'
p8868
aS'a[7998]'
p8869
aS'a[7998]'
p8870
aS'a[5626]'
p8871
aS'a[755]'
p8872
aS'a[7675]'
p8873
aS'a[1889]'
p8874
aS'a[6849]'
p8875
aS'a[277]'
p8876
aS'a[2988]'
p8877
aS'a[1441]'
p8878
aS'a[1889]'
p8879
aS'a[291]'
p8880
aS'a[7627]'
p8881
aS'a[1332]'
p8882
aS'a[536]'
p8883
aS'a[1945]'
p8884
aS'a[1866]'
p8885
aS'a[875]'
p8886
aS'a[4151]'
p8887
aS'a[8937]'
p8888
aS'a[7754]'
p8889
aS'a[202]'
p8890
aS'a[875]'
p8891
aS'a[2566]'
p8892
aS'a[153]'
p8893
aS'a[2483]'
p8894
aS'a[7264]'
p8895
aS'a[5290]'
p8896
aS'a[3875]'
p8897
aS'a[1676]'
p8898
aS'a[445]'
p8899
aS'a[714]'
p8900
aS'a[2980]'
p8901
aS'a[206]'
p8902
aS'a[3192]'
p8903
aS'a[7308]'
p8904
aS'a[790]'
p8905
aS'a[7215]'
p8906
aS'a[1676]'
p8907
aS'a[755]'
p8908
aS'a[4588]'
p8909
aS'a[3192]'
p8910
aS'a[2410]'
p8911
aS'a[8269]'
p8912
aS'a[5748]'
p8913
aS'a[0]'
p8914
aS'a[153]'
p8915
aS'a[8155]'
p8916
aS'a[2793]'
p8917
aS'a[3162]'
p8918
aS'a[8408]'
p8919
aS'a[7620]'
p8920
aS'a[6027]'
p8921
aS'a[48]'
p8922
aS'a[897]'
p8923
aS'a[5879]'
p8924
aS'a[32]'
p8925
aS'a[714]'
p8926
aS'a[7267]'
p8927
aS'a[9118]'
p8928
aS'a[9230]'
p8929
aS'a[1384]'
p8930
aS'a[566]'
p8931
aS'a[2006]'
p8932
aS'a[506]'
p8933
aS'a[1624]'
p8934
aS'a[5530]'
p8935
aS'a[1997]'
p8936
aS'a[3005]'
p8937
aS'a[1433]'
p8938
aS'a[2855]'
p8939
aS'a[3192]'
p8940
aS'a[3005]'
p8941
aS'a[842]'
p8942
aS'a[5373]'
p8943
aS'a[6474]'
p8944
aS'a[277]'
p8945
aS'a[3162]'
p8946
aS'a[4056]'
p8947
aS'a[380]'
p8948
aS'a[67]'
p8949
aS'a[4666]'
p8950
aS'a[2793]'
p8951
aS'a[1225]'
p8952
aS'a[3005]'
p8953
aS'a[1842]'
p8954
aS'a[1710]'
p8955
aS'a[123]'
p8956
aS'a[399]'
p8957
aS'a[806]'
p8958
aS'a[2229]'
p8959
aS'a[714]'
p8960
aS'a[74]'
p8961
aS'a[162]'
p8962
aS'a[3050]'
p8963
aS'a[842]'
p8964
aS'a[162]'
p8965
aS'a[299]'
p8966
aS'a[6503]'
p8967
aS'a[5373]'
p8968
aS'a[3790]'
p8969
aS'a[153]'
p8970
aS'a[506]'
p8971
aS'a[961]'
p8972
aS'a[842]'
p8973
aS'a[3192]'
p8974
aS'a[8944]'
p8975
aS'a[1129]'
p8976
aS'a[908]'
p8977
aS'a[5456]'
p8978
aS'a[4758]'
p8979
aS'a[1565]'
p8980
aS'a[5610]'
p8981
aS'a[7359]'
p8982
aS'a[698]'
p8983
aS'a[1793]'
p8984
aS'a[5914]'
p8985
aS'a[842]'
p8986
aS'a[2006]'
p8987
aS'a[5292]'
p8988
aS'a[4087]'
p8989
aS'a[2570]'
p8990
aS'a[187]'
p8991
aS'a[506]'
p8992
aS'a[2374]'
p8993
aS'a[897]'
p8994
aS'a[2935]'
p8995
aS'a[714]'
p8996
aS'a[206]'
p8997
aS'a[319]'
p8998
aS'a[223]'
p8999
aS'a[1770]'
p9000
aS'a[67]'
p9001
aS'a[2612]'
p9002
aS'a[595]'
p9003
aS'a[8127]'
p9004
aS'a[4645]'
p9005
aS'a[32]'
p9006
aS'a[3488]'
p9007
aS'a[538]'
p9008
aS'a[1159]'
p9009
aS'a[1159]'
p9010
aS'a[3804]'
p9011
aS'a[851]'
p9012
aS'a[7978]'
p9013
aS'a[620]'
p9014
aS'a[8138]'
p9015
aS'a[1564]'
p9016
aS'a[1688]'
p9017
aS'a[4256]'
p9018
aS'a[714]'
p9019
aS'a[1693]'
p9020
aS'a[538]'
p9021
aS'a[6267]'
p9022
aS'a[7667]'
p9023
aS'a[7722]'
p9024
aS'a[991]'
p9025
aS'a[6202]'
p9026
aS'a[1427]'
p9027
aS'a[1048]'
p9028
aS'a[7978]'
p9029
aS'a[491]'
p9030
aS'a[2441]'
p9031
aS'a[1056]'
p9032
aS'a[6284]'
p9033
aS'a[714]'
p9034
aS'a[1056]'
p9035
aS'a[3868]'
p9036
aS'a[52]'
p9037
aS'a[4826]'
p9038
aS'a[2723]'
p9039
aS'a[2793]'
p9040
aS'a[382]'
p9041
aS'a[1729]'
p9042
aS'a[1146]'
p9043
aS'a[842]'
p9044
aS'a[3561]'
p9045
aS'a[2062]'
p9046
aS'a[121]'
p9047
aS'a[5630]'
p9048
aS'a[714]'
p9049
aS'a[1612]'
p9050
aS'a[2767]'
p9051
aS'a[842]'
p9052
aS'a[506]'
p9053
aS'a[620]'
p9054
aS'a[445]'
p9055
aS'a[2889]'
p9056
aS'a[4823]'
p9057
aS'a[4289]'
p9058
aS'a[7998]'
p9059
aS'a[194]'
p9060
aS'a[7316]'
p9061
aS'a[141]'
p9062
aS'a[170]'
p9063
aS'a[4151]'
p9064
aS'a[506]'
p9065
aS'a[1796]'
p9066
aS'a[7380]'
p9067
aS'a[2879]'
p9068
aS'a[2374]'
p9069
aS'a[223]'
p9070
aS'a[1612]'
p9071
aS'a[7610]'
p9072
aS'a[1624]'
p9073
aS'a[105]'
p9074
aS'a[2805]'
p9075
aS'a[121]'
p9076
aS'a[404]'
p9077
aS'a[3393]'
p9078
aS'a[141]'
p9079
aS'a[5187]'
p9080
aS'a[8547]'
p9081
aS'a[897]'
p9082
aS'a[1276]'
p9083
aS'a[2006]'
p9084
aS'a[3050]'
p9085
aS'a[52]'
p9086
aS'a[1048]'
p9087
aS'a[3329]'
p9088
aS'a[536]'
p9089
aS'a[141]'
p9090
aS'a[1113]'
p9091
aS'a[7405]'
p9092
aS'a[67]'
p9093
aS'a[2410]'
p9094
aS'a[1048]'
p9095
aS'a[1146]'
p9096
aS'a[6190]'
p9097
aS'a[3935]'
p9098
aS'a[1093]'
p9099
aS'a[6979]'
p9100
aS'a[1866]'
p9101
aS'a[714]'
p9102
aS'a[2374]'
p9103
aS'a[5734]'
p9104
aS'a[817]'
p9105
aS'a[5292]'
p9106
aS'a[8839]'
p9107
aS'a[3162]'
p9108
aS'a[170]'
p9109
aS'a[208]'
p9110
aS'a[3868]'
p9111
aS'a[3695]'
p9112
aS'a[9078]'
p9113
aS'a[2374]'
p9114
aS'a[1390]'
p9115
aS'a[4822]'
p9116
aS'a[5173]'
p9117
aS'a[2549]'
p9118
aS'a[714]'
p9119
aS'a[2783]'
p9120
aS'a[170]'
p9121
aS'a[1676]'
p9122
aS'a[2824]'
p9123
aS'a[491]'
p9124
aS'a[1506]'
p9125
aS'a[5851]'
p9126
aS'a[7855]'
p9127
aS'a[2393]'
p9128
aS'a[4883]'
p9129
aS'a[7126]'
p9130
aS'a[8100]'
p9131
aS'a[714]'
p9132
aS'a[1693]'
p9133
aS'a[1553]'
p9134
aS'a[1676]'
p9135
aS'a[506]'
p9136
aS'a[1612]'
p9137
aS'a[4151]'
p9138
aS'a[6442]'
p9139
aS'a[506]'
p9140
aS'a[8705]'
p9141
aS'a[0]'
p9142
aS'a[957]'
p9143
aS'a[897]'
p9144
aS'a[5346]'
p9145
aS'a[3099]'
p9146
aS'a[4752]'
p9147
aS'a[875]'
p9148
aS'a[105]'
p9149
aS'a[925]'
p9150
aS'a[5748]'
p9151
aS'a[5860]'
p9152
aS'a[4403]'
p9153
aS'a[1831]'
p9154
aS'a[620]'
p9155
aS'a[4021]'
p9156
aS'a[743]'
p9157
aS'a[8267]'
p9158
aS'a[6693]'
p9159
aS'a[194]'
p9160
aS'a[6]'
p9161
aS'a[7181]'
p9162
aS'a[925]'
p9163
aS'a[8750]'
p9164
aS'a[392]'
p9165
aS'a[1756]'
p9166
aS'a[3192]'
p9167
aS'a[1624]'
p9168
aS'a[4866]'
p9169
aS'a[5773]'
p9170
aS'a[743]'
p9171
aS'a[208]'
p9172
aS'a[113]'
p9173
aS'a[1225]'
p9174
aS'a[842]'
p9175
aS'a[4056]'
p9176
aS'a[123]'
p9177
aS'a[5188]'
p9178
aS'a[445]'
p9179
aS'a[194]'
p9180
aS'a[580]'
p9181
aS'a[3883]'
p9182
aS'a[3063]'
p9183
aS'a[851]'
p9184
aS'a[8141]'
p9185
aS'a[1264]'
p9186
aS'a[6930]'
p9187
aS'a[382]'
p9188
aS'a[714]'
p9189
aS'a[52]'
p9190
aS'a[8380]'
p9191
aS'a[860]'
p9192
aS'a[2188]'
p9193
aS'a[8080]'
p9194
aS'a[875]'
p9195
aS'a[7136]'
p9196
aS'a[2240]'
p9197
aS'a[223]'
p9198
aS'a[1676]'
p9199
aS'a[3313]'
p9200
aS'a[67]'
p9201
aS'a[5871]'
p9202
aS'a[441]'
p9203
aS'a[8253]'
p9204
aS'a[2233]'
p9205
aS'a[7921]'
p9206
aS'a[8096]'
p9207
aS'a[1505]'
p9208
aS'a[1048]'
p9209
aS'a[0]'
p9210
aS'a[1624]'
p9211
aS'a[170]'
p9212
aS'a[5208]'
p9213
aS'a[5040]'
p9214
aS'a[4382]'
p9215
aS'a[1227]'
p9216
aS'a[7657]'
p9217
aS'a[743]'
p9218
aS'a[32]'
p9219
aS'a[2757]'
p9220
aS'a[907]'
p9221
aS'a[3050]'
p9222
aS'a[5615]'
p9223
aS'a[4087]'
p9224
aS'a[536]'
p9225
aS'a[4984]'
p9226
aS'a[194]'
p9227
aS'a[4151]'
p9228
aS'a[4347]'
p9229
aS'a[4151]'
p9230
aS'a[3430]'
p9231
aS'a[1056]'
p9232
aS'a[5365]'
p9233
aS'a[5289]'
p9234
aS'a[580]'
p9235
aS'a[3162]'
p9236
aS'a[6125]'
p9237
aS'a[6981]'
p9238
aS'a[6321]'
p9239
aS'a[8442]'
p9240
aS'a[566]'
p9241
aS'a[123]'
p9242
aS'a[9124]'
p9243
aS'a[7978]'
p9244
aS'a[789]'
p9245
aS'a[5373]'
p9246
aS'a[5318]'
p9247
aS'a[897]'
p9248
aS'a[244]'
p9249
aS'a[6763]'
p9250
aS'a[6071]'
p9251
aS'a[162]'
p9252
aS'a[1411]'
p9253
aS'a[6401]'
p9254
aS'a[5290]'
p9255
aS'a[6306]'
p9256
aS'a[1056]'
p9257
aS'a[5101]'
p9258
aS'a[491]'
p9259
aS'a[5682]'
p9260
aS'a[5101]'
p9261
aS'a[8240]'
p9262
aS'a[1756]'
p9263
aS'a[1756]'
p9264
aS'a[3918]'
p9265
aS'a[2374]'
p9266
aS'a[0]'
p9267
aS'a[1432]'
p9268
aS'a[566]'
p9269
aS'a[875]'
p9270
aS'a[2355]'
p9271
aS'a[9012]'
p9272
aS'a[566]'
p9273
aS'a[3192]'
p9274
aS'a[5604]'
p9275
aS'a[2006]'
p9276
aS'a[6]'
p9277
aS'a[6423]'
p9278
aS'a[5948]'
p9279
aS'a[202]'
p9280
aS'a[8781]'
p9281
aS'a[5910]'
p9282
aS'a[4541]'
p9283
aS'a[1612]'
p9284
aS'a[3307]'
p9285
aS'a[8018]'
p9286
aS'a[433]'
p9287
aS'a[1960]'
p9288
aS'a[399]'
p9289
aS'a[96]'
p9290
aS'a[890]'
p9291
aS'a[1727]'
p9292
aS'a[696]'
p9293
aS'a[817]'
p9294
aS'a[5947]'
p9295
aS'a[1441]'
p9296
aS'a[9048]'
p9297
aS'a[6449]'
p9298
aS'a[4087]'
p9299
aS'a[817]'
p9300
aS'a[6558]'
p9301
aS'a[714]'
p9302
aS'a[5290]'
p9303
aS'a[4610]'
p9304
aS'a[1997]'
p9305
aS'a[3443]'
p9306
aS'a[1676]'
p9307
aS'a[7769]'
p9308
aS'a[4093]'
p9309
aS'a[7483]'
p9310
aS'a[441]'
p9311
aS'a[3199]'
p9312
aS'a[714]'
p9313
aS'a[7998]'
p9314
aS'a[5373]'
p9315
aS'a[1676]'
p9316
aS'a[3162]'
p9317
aS'a[1612]'
p9318
aS'a[5747]'
p9319
aS'a[7354]'
p9320
aS'a[399]'
p9321
aS'a[4056]'
p9322
aS'a[3005]'
p9323
aS'a[8797]'
p9324
aS'a[1117]'
p9325
aS'a[1427]'
p9326
aS'a[3965]'
p9327
aS'a[3102]'
p9328
aS'a[310]'
p9329
aS'a[96]'
p9330
aS'a[3536]'
p9331
aS'a[208]'
p9332
aS'a[123]'
p9333
aS'a[2793]'
p9334
aS'a[399]'
p9335
aS'a[5643]'
p9336
aS'a[5158]'
p9337
aS'a[1348]'
p9338
aS'a[6332]'
p9339
aS'a[5943]'
p9340
aS'a[7264]'
p9341
aS'a[67]'
p9342
aS'a[1612]'
p9343
aS'a[890]'
p9344
aS'a[7592]'
p9345
aS'a[399]'
p9346
aS'a[3918]'
p9347
aS'a[2070]'
p9348
aS'a[6853]'
p9349
aS'a[897]'
p9350
aS'a[445]'
p9351
aS'a[817]'
p9352
aS'a[806]'
p9353
aS'a[141]'
p9354
aS'a[1159]'
p9355
aS'a[4239]'
p9356
aS'a[4056]'
p9357
aS'a[6212]'
p9358
aS'a[897]'
p9359
aS'a[2612]'
p9360
aS'a[897]'
p9361
aS'a[2410]'
p9362
aS'a[8419]'
p9363
aS'a[418]'
p9364
aS'a[3786]'
p9365
aS'a[5748]'
p9366
aS'a[4655]'
p9367
aS'a[194]'
p9368
aS'a[5469]'
p9369
aS'a[7978]'
p9370
aS'a[2934]'
p9371
aS'a[1427]'
p9372
aS'a[6814]'
p9373
aS'a[491]'
p9374
aS'a[506]'
p9375
aS'a[1612]'
p9376
aS'a[3543]'
p9377
aS'a[842]'
p9378
aS'a[96]'
p9379
aS'a[5373]'
p9380
aS'a[4354]'
p9381
aS'a[1676]'
p9382
aS'a[3162]'
p9383
aS'a[790]'
p9384
aS'a[1365]'
p9385
aS'a[105]'
p9386
aS'a[5292]'
p9387
aS'a[1056]'
p9388
aS'a[2903]'
p9389
aS'a[8653]'
p9390
aS'a[3053]'
p9391
aS'a[6595]'
p9392
aS'a[4623]'
p9393
aS'a[8181]'
p9394
aS'a[620]'
p9395
aS'a[811]'
p9396
aS'a[445]'
p9397
aS'a[399]'
p9398
aS'a[890]'
p9399
aS'a[2739]'
p9400
aS'a[3162]'
p9401
aS'a[7383]'
p9402
aS'a[9147]'
p9403
aS'a[9106]'
p9404
aS'a[91]'
p9405
aS'a[7674]'
p9406
aS'a[6186]'
p9407
aS'a[8739]'
p9408
aS'a[6193]'
p9409
aS'a[806]'
p9410
aS'a[162]'
p9411
aS'a[890]'
p9412
aS'a[790]'
p9413
aS'a[3918]'
p9414
aS'a[1262]'
p9415
aS'a[875]'
p9416
aS'a[851]'
p9417
aS'a[5719]'
p9418
aS'a[5290]'
p9419
aS'a[208]'
p9420
aS'a[2192]'
p9421
aS'a[3276]'
p9422
aS'a[2985]'
p9423
aS'a[121]'
p9424
aS'a[6588]'
p9425
aS'a[790]'
p9426
aS'a[5826]'
p9427
aS'a[4289]'
p9428
aS'a[5319]'
p9429
aS'a[0]'
p9430
aS'a[8748]'
p9431
aS'a[2793]'
p9432
aS'a[4047]'
p9433
aS'a[4151]'
p9434
aS'a[2793]'
p9435
aS'a[1889]'
p9436
aS'a[5633]'
p9437
aS'a[4868]'
p9438
aS'a[1262]'
p9439
aS'a[0]'
p9440
aS'a[5610]'
p9441
aS'a[2778]'
p9442
aS'a[5373]'
p9443
aS'a[9029]'
p9444
aS'a[7264]'
p9445
aS'a[3468]'
p9446
aS'a[441]'
p9447
aS'a[223]'
p9448
aS'a[851]'
p9449
aS'a[714]'
p9450
aS'a[206]'
p9451
aS'a[5781]'
p9452
aS'a[1262]'
p9453
aS'a[2821]'
p9454
aS'a[4522]'
p9455
aS'a[5176]'
p9456
aS'a[4822]'
p9457
aS'a[7978]'
p9458
aS'a[6]'
p9459
aS'a[714]'
p9460
aS'a[202]'
p9461
aS'a[277]'
p9462
aS'a[3277]'
p9463
aS'a[3795]'
p9464
aS'a[4289]'
p9465
aS'a[806]'
p9466
aS'a[7401]'
p9467
aS'a[8753]'
p9468
aS'a[4146]'
p9469
aS'a[536]'
p9470
aS'a[6890]'
p9471
aS'a[1676]'
p9472
aS'a[0]'
p9473
aS'a[8269]'
p9474
aS'a[6333]'
p9475
aS'a[6]'
p9476
aS'a[3554]'
p9477
aS'a[1964]'
p9478
aS'a[576]'
p9479
aS'a[1056]'
p9480
aS'a[2059]'
p9481
aS'a[3332]'
p9482
aS'a[9228]'
p9483
aS'a[4279]'
p9484
aS'a[790]'
p9485
aS'a[2549]'
p9486
aS'a[1906]'
p9487
aS'a[566]'
p9488
aS'a[3965]'
p9489
aS'a[1889]'
p9490
aS'a[3162]'
p9491
aS'a[1441]'
p9492
aS'a[4833]'
p9493
aS'a[925]'
p9494
aS'a[806]'
p9495
aS'a[842]'
p9496
aS'a[2254]'
p9497
aS'a[6122]'
p9498
aS'a[1056]'
p9499
aS'a[52]'
p9500
aS'a[206]'
p9501
aS'a[5294]'
p9502
aS'a[121]'
p9503
aS'a[842]'
p9504
aS'a[9050]'
p9505
aS'a[491]'
p9506
aS'a[206]'
p9507
aS'a[5748]'
p9508
aS'a[8696]'
p9509
aS'a[7351]'
p9510
aS'a[170]'
p9511
aS'a[464]'
p9512
aS'a[8333]'
p9513
aS'a[3273]'
p9514
aS'a[536]'
p9515
aS'a[4087]'
p9516
aS'a[5138]'
p9517
aS'a[4423]'
p9518
aS'a[8815]'
p9519
aS'a[121]'
p9520
aS'a[5430]'
p9521
aS'a[5695]'
p9522
aS'a[6474]'
p9523
aS'a[536]'
p9524
aS'a[790]'
p9525
aS'a[1159]'
p9526
aS'a[1971]'
p9527
aS'a[7137]'
p9528
aS'a[5480]'
p9529
aS'a[3273]'
p9530
aS'a[382]'
p9531
aS'a[936]'
p9532
aS'a[4822]'
p9533
aS'a[620]'
p9534
aS'a[714]'
p9535
aS'a[4151]'
p9536
aS'a[5336]'
p9537
aS'a[1564]'
p9538
aS'a[3005]'
p9539
aS'a[4056]'
p9540
aS'a[6676]'
p9541
aS'a[1251]'
p9542
aS'a[4087]'
p9543
aS'a[6074]'
p9544
aS'a[1676]'
p9545
aS'a[6614]'
p9546
aS'a[4048]'
p9547
aS'a[4076]'
p9548
aS'a[5290]'
p9549
aS'a[2345]'
p9550
aS'a[790]'
p9551
aS'a[875]'
p9552
aS'a[6000]'
p9553
aS'a[2760]'
p9554
aS'a[595]'
p9555
aS'a[96]'
p9556
aS'a[7554]'
p9557
aS'a[925]'
p9558
aS'a[4822]'
p9559
aS'a[890]'
p9560
aS'a[3162]'
p9561
aS'a[52]'
p9562
aS'a[2374]'
p9563
aS'a[1612]'
p9564
aS'a[5353]'
p9565
aS'a[7164]'
p9566
aS'a[3793]'
p9567
aS'a[4534]'
p9568
aS'a[880]'
p9569
aS'a[3868]'
p9570
aS'a[96]'
p9571
aS'a[67]'
p9572
aS'a[206]'
p9573
aS'a[1566]'
p9574
aS'a[223]'
p9575
aS'a[4957]'
p9576
aS'a[5658]'
p9577
aS'a[1624]'
p9578
aS'a[1612]'
p9579
aS'a[399]'
p9580
aS'a[7187]'
p9581
aS'a[1676]'
p9582
aS'a[809]'
p9583
aS'a[2006]'
p9584
aS'a[6969]'
p9585
aS'a[1678]'
p9586
aS'a[1676]'
p9587
aS'a[860]'
p9588
aS'a[2665]'
p9589
aS'a[4289]'
p9590
aS'a[223]'
p9591
aS'a[123]'
p9592
aS'a[8572]'
p9593
aS'a[4056]'
p9594
aS'a[208]'
p9595
aS'a[880]'
p9596
aS'a[3005]'
p9597
aS'a[194]'
p9598
aS'a[7000]'
p9599
aS'a[5373]'
p9600
aS'a[3918]'
p9601
aS'a[399]'
p9602
aS'a[67]'
p9603
aS'a[3868]'
p9604
aS'a[875]'
p9605
aS'a[1866]'
p9606
aS'a[875]'
p9607
aS'a[8869]'
p9608
aS'a[5290]'
p9609
aS'a[6630]'
p9610
aS'a[5299]'
p9611
aS'a[223]'
p9612
aS'a[0]'
p9613
aS'a[4056]'
p9614
aS'a[7774]'
p9615
aS'a[8534]'
p9616
aS'a[580]'
p9617
aS'a[890]'
p9618
aS'a[860]'
p9619
aS'a[7265]'
p9620
aS'a[5305]'
p9621
aS'a[5075]'
p9622
aS'a[5101]'
p9623
aS'a[1506]'
p9624
aS'a[714]'
p9625
aS'a[8484]'
p9626
aS'a[7848]'
p9627
aS'a[0]'
p9628
aS'a[1159]'
p9629
aS'a[566]'
p9630
aS'a[673]'
p9631
aS'a[5573]'
p9632
aS'a[1262]'
p9633
aS'a[7650]'
p9634
aS'a[875]'
p9635
aS'a[2198]'
p9636
aS'a[1676]'
p9637
aS'a[32]'
p9638
aS'a[538]'
p9639
aS'a[1269]'
p9640
aS'a[67]'
p9641
aS'a[714]'
p9642
aS'a[1504]'
p9643
aS'a[3868]'
p9644
aS'a[7762]'
p9645
aS'a[7998]'
p9646
aS'a[372]'
p9647
aS'a[3131]'
p9648
aS'a[1121]'
p9649
aS'a[5292]'
p9650
aS'a[445]'
p9651
aS'a[123]'
p9652
aS'a[1056]'
p9653
aS'a[105]'
p9654
aS'a[6190]'
p9655
aS'a[7563]'
p9656
aS'a[3273]'
p9657
aS'a[153]'
p9658
aS'a[1506]'
p9659
aS'a[2651]'
p9660
aS'a[714]'
p9661
aS'a[382]'
p9662
aS'a[580]'
p9663
aS'a[3001]'
p9664
aS'a[681]'
p9665
aS'a[1048]'
p9666
aS'a[674]'
p9667
aS'a[2936]'
p9668
aS'a[3569]'
p9669
aS'a[4865]'
p9670
aS'a[153]'
p9671
aS'a[7131]'
p9672
aS'a[8060]'
p9673
aS'a[5241]'
p9674
aS'a[897]'
p9675
aS'a[4434]'
p9676
aS'a[471]'
p9677
aS'a[1056]'
p9678
aS'a[7465]'
p9679
aS'a[441]'
p9680
aS'a[2707]'
p9681
aS'a[8888]'
p9682
aS'a[1852]'
p9683
aS'a[4087]'
p9684
aS'a[206]'
p9685
aS'a[121]'
p9686
aS'a[6471]'
p9687
aS'a[594]'
p9688
aS'a[2793]'
p9689
aS'a[162]'
p9690
aS'a[757]'
p9691
aS'a[1564]'
p9692
aS'a[1889]'
p9693
aS'a[620]'
p9694
aS'a[4147]'
p9695
aS'a[875]'
p9696
aS'a[3162]'
p9697
aS'a[141]'
p9698
aS'a[3005]'
p9699
aS'a[1676]'
p9700
aS'a[3282]'
p9701
aS'a[194]'
p9702
aS'a[1427]'
p9703
aS'a[3444]'
p9704
aS'a[5332]'
p9705
aS'a[223]'
p9706
aS'a[4151]'
p9707
aS'a[1756]'
p9708
aS'a[2374]'
p9709
aS'a[1836]'
p9710
aS'a[3273]'
p9711
aS'a[7900]'
p9712
aS'a[3005]'
p9713
aS'a[1200]'
p9714
aS'a[4056]'
p9715
aS'a[506]'
p9716
aS'a[0]'
p9717
aS'a[7138]'
p9718
aS'a[194]'
p9719
aS'a[4596]'
p9720
aS'a[6]'
p9721
aS'a[9193]'
p9722
aS'a[806]'
p9723
aS'a[7264]'
p9724
aS'a[4986]'
p9725
aS'a[1225]'
p9726
aS'a[506]'
p9727
aS'a[6090]'
p9728
aS'a[202]'
p9729
aS'a[7683]'
p9730
aS'a[875]'
p9731
aS'a[2149]'
p9732
aS'a[7004]'
p9733
aS'a[536]'
p9734
aS'a[32]'
p9735
aS'a[790]'
p9736
aS'a[1172]'
p9737
aS'a[397]'
p9738
aS'a[1866]'
p9739
aS'a[3918]'
p9740
aS'a[1612]'
p9741
aS'a[1987]'
p9742
aS'a[7461]'
p9743
aS'a[755]'
p9744
aS'a[4702]'
p9745
aS'a[595]'
p9746
aS'a[5748]'
p9747
aS'a[1564]'
p9748
aS'a[267]'
p9749
aS'a[332]'
p9750
aS'a[4967]'
p9751
aS'a[817]'
p9752
aS'a[3138]'
p9753
aS'a[897]'
p9754
aS'a[7252]'
p9755
aS'a[178]'
p9756
aS'a[897]'
p9757
aS'a[3329]'
p9758
aS'a[743]'
p9759
aS'a[441]'
p9760
aS'a[1962]'
p9761
aS'a[4056]'
p9762
aS'a[67]'
p9763
aS'a[3536]'
p9764
aS'a[56]'
p9765
aS'a[5250]'
p9766
aS'a[361]'
p9767
aS'a[4992]'
p9768
aS'a[2410]'
p9769
aS'a[2410]'
p9770
aS'a[399]'
p9771
aS'a[3868]'
p9772
aS'a[7389]'
p9773
aS'a[7834]'
p9774
aS'a[4056]'
p9775
aS'a[1756]'
p9776
aS'a[32]'
p9777
aS'a[6204]'
p9778
aS'a[7177]'
p9779
aS'a[3298]'
p9780
aS'a[0]'
p9781
aS'a[1090]'
p9782
aS'a[3192]'
p9783
aS'a[9037]'
p9784
aS'a[7998]'
p9785
aS'a[6611]'
p9786
aS'a[4412]'
p9787
aS'a[1048]'
p9788
aS'a[696]'
p9789
aS'a[956]'
p9790
aS'a[52]'
p9791
aS'a[1612]'
p9792
aS'a[5002]'
p9793
aS'a[5290]'
p9794
aS'a[300]'
p9795
aS'a[897]'
p9796
aS'a[5610]'
p9797
aS'a[3162]'
p9798
aS'a[67]'
p9799
aS'a[382]'
p9800
aS'a[580]'
p9801
aS'a[4851]'
p9802
aS'a[0]'
p9803
aS'a[65]'
p9804
aS'a[925]'
p9805
aS'a[536]'
p9806
aS'a[3572]'
p9807
aS'a[194]'
p9808
aS'a[3050]'
p9809
aS'a[536]'
p9810
aS'a[714]'
p9811
aS'a[1868]'
p9812
aS'a[687]'
p9813
aS'a[2910]'
p9814
aS'a[3993]'
p9815
aS'a[2201]'
p9816
aS'a[824]'
p9817
aS'a[4181]'
p9818
aS'a[620]'
p9819
aS'a[0]'
p9820
aS'a[327]'
p9821
aS'a[714]'
p9822
aS'a[5828]'
p9823
aS'a[5748]'
p9824
aS'a[5610]'
p9825
aS'a[2838]'
p9826
aS'a[1048]'
p9827
aS'a[6270]'
p9828
aS'a[595]'
p9829
aS'a[5967]'
p9830
aS'a[5198]'
p9831
aS'a[790]'
p9832
aS'a[4451]'
p9833
aS'a[563]'
p9834
aS'a[1506]'
p9835
aS'a[8764]'
p9836
aS'a[3050]'
p9837
aS'a[4151]'
p9838
aS'a[2451]'
p9839
aS'a[580]'
p9840
aS'a[287]'
p9841
aS'a[576]'
p9842
aS'a[1206]'
p9843
aS'a[513]'
p9844
aS'a[5619]'
p9845
aS'a[3978]'
p9846
aS'a[162]'
p9847
aS'a[6104]'
p9848
aS'a[153]'
p9849
aS'a[1823]'
p9850
aS'a[696]'
p9851
aS'a[897]'
p9852
aS'a[0]'
p9853
aS'a[6483]'
p9854
aS'a[9146]'
p9855
aS'a[6242]'
p9856
aS'a[5101]'
p9857
aS'a[4496]'
p9858
aS'a[2626]'
p9859
aS'a[1756]'
p9860
aS'a[1624]'
p9861
aS'a[1272]'
p9862
aS'a[5309]'
p9863
aS'a[67]'
p9864
aS'a[5754]'
p9865
aS'a[1343]'
p9866
aS'a[3477]'
p9867
aS'a[596]'
p9868
aS'a[2027]'
p9869
aS'a[3162]'
p9870
aS'a[4057]'
p9871
aS'a[7039]'
p9872
aS'a[0]'
p9873
aS'a[7978]'
p9874
aS'a[970]'
p9875
aS'a[2612]'
p9876
aS'a[1048]'
p9877
aS'a[6865]'
p9878
aS'a[851]'
p9879
aS'a[714]'
p9880
aS'a[1441]'
p9881
aS'a[9025]'
p9882
aS'a[4087]'
p9883
aS'a[897]'
p9884
aS'a[9238]'
p9885
aS'a[7264]'
p9886
aS'a[7280]'
p9887
aS'a[506]'
p9888
aS'a[773]'
p9889
aS'a[244]'
p9890
aS'a[8998]'
p9891
aS'a[1264]'
p9892
aS'a[3443]'
p9893
aS'a[8219]'
p9894
aS'a[3918]'
p9895
aS'a[223]'
p9896
aS'a[806]'
p9897
aS'a[3400]'
p9898
aS'a[2793]'
p9899
aS'a[4517]'
p9900
aS'a[4164]'
p9901
aS'a[4052]'
p9902
aS'a[6531]'
p9903
aS'a[1137]'
p9904
aS'a[399]'
p9905
aS'a[3225]'
p9906
aS'a[5780]'
p9907
aS'a[153]'
p9908
aS'a[3552]'
p9909
aS'a[829]'
p9910
aS'a[4936]'
p9911
aS'a[7655]'
p9912
aS'a[4151]'
p9913
aS'a[5759]'
p9914
aS'a[5653]'
p9915
aS'a[155]'
p9916
aS'a[6257]'
p9917
aS'a[1756]'
p9918
aS'a[1676]'
p9919
aS'a[505]'
p9920
aS'a[1465]'
p9921
aS'a[714]'
p9922
aS'a[5586]'
p9923
aS'a[0]'
p9924
aS'a[202]'
p9925
aS'a[8906]'
p9926
aS'a[696]'
p9927
aS'a[880]'
p9928
aS'a[3284]'
p9929
aS'a[3868]'
p9930
aS'a[2744]'
p9931
aS'a[441]'
p9932
aS'a[7808]'
p9933
aS'a[1619]'
p9934
aS'a[4116]'
p9935
aS'a[194]'
p9936
aS'a[714]'
p9937
aS'a[755]'
p9938
aS'a[566]'
p9939
aS'a[208]'
p9940
aS'a[121]'
p9941
aS'a[4045]'
p9942
aS'a[5884]'
p9943
aS'a[8273]'
p9944
aS'a[1624]'
p9945
aS'a[7517]'
p9946
aS'a[5290]'
p9947
aS'a[1676]'
p9948
aS'a[4822]'
p9949
aS'a[96]'
p9950
aS'a[6805]'
p9951
aS'a[1756]'
p9952
aS'a[897]'
p9953
aS'a[4151]'
p9954
aS'a[6315]'
p9955
aS'a[566]'
p9956
aS'a[153]'
p9957
aS'a[162]'
p9958
aS'a[1612]'
p9959
aS'a[842]'
p9960
aS'a[105]'
p9961
aS'a[206]'
p9962
aS'a[1852]'
p9963
aS'a[913]'
p9964
aS'a[580]'
p9965
aS'a[5292]'
p9966
aS'a[3873]'
p9967
aS'a[3868]'
p9968
aS'a[1938]'
p9969
aS'a[851]'
p9970
aS'a[3918]'
p9971
aS'a[7978]'
p9972
aS'a[1052]'
p9973
aS'a[4642]'
p9974
aS'a[5287]'
p9975
aS'a[5290]'
p9976
aS'a[206]'
p9977
aS'a[6611]'
p9978
aS'a[4473]'
p9979
aS'a[0]'
p9980
aS'a[5101]'
p9981
aS'a[1676]'
p9982
aS'a[7000]'
p9983
aS'a[743]'
p9984
aS'a[162]'
p9985
aS'a[603]'
p9986
aS'a[506]'
p9987
aS'a[96]'
p9988
aS'a[3329]'
p9989
aS'a[1056]'
p9990
aS'a[3192]'
p9991
aS'a[3303]'
p9992
aS'a[582]'
p9993
aS'a[5178]'
p9994
aS'a[96]'
p9995
aS'a[4984]'
p9996
aS'a[5156]'
p9997
aS'a[4970]'
p9998
aS'a[1048]'
p9999
aS'a[141]'
p10000
a.