(lp0
S'a[7101]'
p1
aS'a[6124]'
p2
aS'a[2261]'
p3
aS'a[67]'
p4
aS'a[7734]'
p5
aS'a[6297]'
p6
aS'a[1130]'
p7
aS'a[223]'
p8
aS'a[913]'
p9
aS'a[3731]'
p10
aS'a[4]'
p11
aS'a[3162]'
p12
aS'a[711]'
p13
aS'a[5634]'
p14
aS'a[35]'
p15
aS'a[956]'
p16
aS'a[3731]'
p17
aS'a[71]'
p18
aS'a[5106]'
p19
aS'a[3049]'
p20
aS'a[3926]'
p21
aS'a[8371]'
p22
aS'a[458]'
p23
aS'a[6666]'
p24
aS'a[928]'
p25
aS'a[1]'
p26
aS'a[5106]'
p27
aS'a[1585]'
p28
aS'a[2583]'
p29
aS'a[8978]'
p30
aS'a[3761]'
p31
aS'a[3502]'
p32
aS'a[24]'
p33
aS'a[139]'
p34
aS'a[3070]'
p35
aS'a[1585]'
p36
aS'a[24]'
p37
aS'a[4]'
p38
aS'a[3908]'
p39
aS'a[8953]'
p40
aS'a[6308]'
p41
aS'a[136]'
p42
aS'a[1468]'
p43
aS'a[4134]'
p44
aS'a[4023]'
p45
aS'a[2089]'
p46
aS'a[956]'
p47
aS'a[1112]'
p48
aS'a[3072]'
p49
aS'a[1301]'
p50
aS'a[8479]'
p51
aS'a[3270]'
p52
aS'a[62]'
p53
aS'a[2083]'
p54
aS'a[1]'
p55
aS'a[1541]'
p56
aS'a[18]'
p57
aS'a[3072]'
p58
aS'a[155]'
p59
aS'a[2300]'
p60
aS'a[970]'
p61
aS'a[223]'
p62
aS'a[3162]'
p63
aS'a[56]'
p64
aS'a[6798]'
p65
aS'a[618]'
p66
aS'a[6382]'
p67
aS'a[243]'
p68
aS'a[2683]'
p69
aS'a[8268]'
p70
aS'a[291]'
p71
aS'a[2565]'
p72
aS'a[24]'
p73
aS'a[4639]'
p74
aS'a[14]'
p75
aS'a[35]'
p76
aS'a[1233]'
p77
aS'a[1130]'
p78
aS'a[5401]'
p79
aS'a[351]'
p80
aS'a[4]'
p81
aS'a[139]'
p82
aS'a[555]'
p83
aS'a[7354]'
p84
aS'a[1016]'
p85
aS'a[258]'
p86
aS'a[24]'
p87
aS'a[1429]'
p88
aS'a[243]'
p89
aS'a[4]'
p90
aS'a[647]'
p91
aS'a[24]'
p92
aS'a[8038]'
p93
aS'a[1808]'
p94
aS'a[24]'
p95
aS'a[3070]'
p96
aS'a[2319]'
p97
aS'a[223]'
p98
aS'a[5249]'
p99
aS'a[605]'
p100
aS'a[2199]'
p101
aS'a[7010]'
p102
aS'a[4639]'
p103
aS'a[4074]'
p104
aS'a[8783]'
p105
aS'a[4529]'
p106
aS'a[24]'
p107
aS'a[3544]'
p108
aS'a[2442]'
p109
aS'a[5106]'
p110
aS'a[458]'
p111
aS'a[2410]'
p112
aS'a[5764]'
p113
aS'a[310]'
p114
aS'a[3395]'
p115
aS'a[243]'
p116
aS'a[5249]'
p117
aS'a[359]'
p118
aS'a[3615]'
p119
aS'a[201]'
p120
aS'a[5106]'
p121
aS'a[749]'
p122
aS'a[6325]'
p123
aS'a[52]'
p124
aS'a[61]'
p125
aS'a[6425]'
p126
aS'a[1580]'
p127
aS'a[4025]'
p128
aS'a[24]'
p129
aS'a[3435]'
p130
aS'a[838]'
p131
aS'a[8853]'
p132
aS'a[3203]'
p133
aS'a[1130]'
p134
aS'a[2400]'
p135
aS'a[191]'
p136
aS'a[618]'
p137
aS'a[5629]'
p138
aS'a[24]'
p139
aS'a[3]'
p140
aS'a[168]'
p141
aS'a[3]'
p142
aS'a[124]'
p143
aS'a[62]'
p144
aS'a[34]'
p145
aS'a[1201]'
p146
aS'a[5634]'
p147
aS'a[35]'
p148
aS'a[6283]'
p149
aS'a[1092]'
p150
aS'a[618]'
p151
aS'a[100]'
p152
aS'a[321]'
p153
aS'a[2049]'
p154
aS'a[3]'
p155
aS'a[1585]'
p156
aS'a[3695]'
p157
aS'a[71]'
p158
aS'a[155]'
p159
aS'a[8425]'
p160
aS'a[4745]'
p161
aS'a[6933]'
p162
aS'a[301]'
p163
aS'a[46]'
p164
aS'a[24]'
p165
aS'a[5249]'
p166
aS'a[2357]'
p167
aS'a[223]'
p168
aS'a[2993]'
p169
aS'a[455]'
p170
aS'a[231]'
p171
aS'a[1105]'
p172
aS'a[7962]'
p173
aS'a[3]'
p174
aS'a[2521]'
p175
aS'a[4181]'
p176
aS'a[8831]'
p177
aS'a[4120]'
p178
aS'a[18]'
p179
aS'a[22]'
p180
aS'a[5634]'
p181
aS'a[24]'
p182
aS'a[24]'
p183
aS'a[34]'
p184
aS'a[24]'
p185
aS'a[23]'
p186
aS'a[5284]'
p187
aS'a[100]'
p188
aS'a[3072]'
p189
aS'a[2675]'
p190
aS'a[6769]'
p191
aS'a[168]'
p192
aS'a[3615]'
p193
aS'a[4]'
p194
aS'a[956]'
p195
aS'a[3072]'
p196
aS'a[5106]'
p197
aS'a[243]'
p198
aS'a[2521]'
p199
aS'a[2683]'
p200
aS'a[24]'
p201
aS'a[548]'
p202
aS'a[4211]'
p203
aS'a[24]'
p204
aS'a[6843]'
p205
aS'a[3928]'
p206
aS'a[2130]'
p207
aS'a[618]'
p208
aS'a[605]'
p209
aS'a[228]'
p210
aS'a[8108]'
p211
aS'a[8038]'
p212
aS'a[5249]'
p213
aS'a[3928]'
p214
aS'a[4500]'
p215
aS'a[291]'
p216
aS'a[183]'
p217
aS'a[4935]'
p218
aS'a[3549]'
p219
aS'a[1130]'
p220
aS'a[4639]'
p221
aS'a[618]'
p222
aS'a[1450]'
p223
aS'a[414]'
p224
aS'a[621]'
p225
aS'a[7952]'
p226
aS'a[4028]'
p227
aS'a[33]'
p228
aS'a[8441]'
p229
aS'a[694]'
p230
aS'a[3615]'
p231
aS'a[223]'
p232
aS'a[8009]'
p233
aS'a[5106]'
p234
aS'a[201]'
p235
aS'a[0]'
p236
aS'a[8547]'
p237
aS'a[2939]'
p238
aS'a[46]'
p239
aS'a[1192]'
p240
aS'a[135]'
p241
aS'a[46]'
p242
aS'a[1332]'
p243
aS'a[4935]'
p244
aS'a[168]'
p245
aS'a[310]'
p246
aS'a[1082]'
p247
aS'a[168]'
p248
aS'a[1263]'
p249
aS'a[5638]'
p250
aS'a[2891]'
p251
aS'a[682]'
p252
aS'a[1151]'
p253
aS'a[5150]'
p254
aS'a[8009]'
p255
aS'a[1585]'
p256
aS'a[4639]'
p257
aS'a[988]'
p258
aS'a[1340]'
p259
aS'a[155]'
p260
aS'a[5185]'
p261
aS'a[414]'
p262
aS'a[1680]'
p263
aS'a[5903]'
p264
aS'a[267]'
p265
aS'a[699]'
p266
aS'a[1174]'
p267
aS'a[1897]'
p268
aS'a[2521]'
p269
aS'a[18]'
p270
aS'a[3]'
p271
aS'a[5040]'
p272
aS'a[3485]'
p273
aS'a[2486]'
p274
aS'a[5033]'
p275
aS'a[62]'
p276
aS'a[2540]'
p277
aS'a[6452]'
p278
aS'a[4729]'
p279
aS'a[310]'
p280
aS'a[291]'
p281
aS'a[2426]'
p282
aS'a[956]'
p283
aS'a[3615]'
p284
aS'a[1385]'
p285
aS'a[9056]'
p286
aS'a[3]'
p287
aS'a[135]'
p288
aS'a[4935]'
p289
aS'a[2372]'
p290
aS'a[7308]'
p291
aS'a[1477]'
p292
aS'a[4077]'
p293
aS'a[555]'
p294
aS'a[4529]'
p295
aS'a[8104]'
p296
aS'a[8434]'
p297
aS'a[2300]'
p298
aS'a[9048]'
p299
aS'a[189]'
p300
aS'a[350]'
p301
aS'a[2498]'
p302
aS'a[3502]'
p303
aS'a[1092]'
p304
aS'a[1153]'
p305
aS'a[62]'
p306
aS'a[1557]'
p307
aS'a[6616]'
p308
aS'a[2862]'
p309
aS'a[1130]'
p310
aS'a[414]'
p311
aS'a[8568]'
p312
aS'a[699]'
p313
aS'a[4562]'
p314
aS'a[605]'
p315
aS'a[7183]'
p316
aS'a[5242]'
p317
aS'a[64]'
p318
aS'a[618]'
p319
aS'a[1]'
p320
aS'a[4]'
p321
aS'a[4770]'
p322
aS'a[139]'
p323
aS'a[555]'
p324
aS'a[749]'
p325
aS'a[341]'
p326
aS'a[24]'
p327
aS'a[4278]'
p328
aS'a[3419]'
p329
aS'a[3878]'
p330
aS'a[1886]'
p331
aS'a[3]'
p332
aS'a[8462]'
p333
aS'a[291]'
p334
aS'a[618]'
p335
aS'a[2889]'
p336
aS'a[2130]'
p337
aS'a[2675]'
p338
aS'a[3817]'
p339
aS'a[1585]'
p340
aS'a[258]'
p341
aS'a[24]'
p342
aS'a[956]'
p343
aS'a[52]'
p344
aS'a[458]'
p345
aS'a[3736]'
p346
aS'a[71]'
p347
aS'a[7736]'
p348
aS'a[7080]'
p349
aS'a[2939]'
p350
aS'a[24]'
p351
aS'a[350]'
p352
aS'a[8685]'
p353
aS'a[6352]'
p354
aS'a[24]'
p355
aS'a[2300]'
p356
aS'a[6145]'
p357
aS'a[1935]'
p358
aS'a[9055]'
p359
aS'a[35]'
p360
aS'a[4745]'
p361
aS'a[555]'
p362
aS'a[1477]'
p363
aS'a[24]'
p364
aS'a[7477]'
p365
aS'a[690]'
p366
aS'a[14]'
p367
aS'a[749]'
p368
aS'a[1696]'
p369
aS'a[4529]'
p370
aS'a[3802]'
p371
aS'a[1045]'
p372
aS'a[189]'
p373
aS'a[7262]'
p374
aS'a[1]'
p375
aS'a[1081]'
p376
aS'a[6508]'
p377
aS'a[3776]'
p378
aS'a[24]'
p379
aS'a[52]'
p380
aS'a[3]'
p381
aS'a[2498]'
p382
aS'a[35]'
p383
aS'a[61]'
p384
aS'a[5683]'
p385
aS'a[1834]'
p386
aS'a[6787]'
p387
aS'a[7914]'
p388
aS'a[2655]'
p389
aS'a[4616]'
p390
aS'a[6860]'
p391
aS'a[1897]'
p392
aS'a[351]'
p393
aS'a[24]'
p394
aS'a[3]'
p395
aS'a[7886]'
p396
aS'a[52]'
p397
aS'a[749]'
p398
aS'a[4629]'
p399
aS'a[1040]'
p400
aS'a[0]'
p401
aS'a[1013]'
p402
aS'a[8103]'
p403
aS'a[4300]'
p404
aS'a[1897]'
p405
aS'a[1865]'
p406
aS'a[4578]'
p407
aS'a[1576]'
p408
aS'a[56]'
p409
aS'a[5214]'
p410
aS'a[3]'
p411
aS'a[647]'
p412
aS'a[8396]'
p413
aS'a[135]'
p414
aS'a[301]'
p415
aS'a[351]'
p416
aS'a[3956]'
p417
aS'a[5923]'
p418
aS'a[8586]'
p419
aS'a[956]'
p420
aS'a[5249]'
p421
aS'a[1696]'
p422
aS'a[8427]'
p423
aS'a[8011]'
p424
aS'a[35]'
p425
aS'a[3928]'
p426
aS'a[2410]'
p427
aS'a[3070]'
p428
aS'a[18]'
p429
aS'a[1935]'
p430
aS'a[4097]'
p431
aS'a[8619]'
p432
aS'a[7380]'
p433
aS'a[2300]'
p434
aS'a[3]'
p435
aS'a[1263]'
p436
aS'a[298]'
p437
aS'a[24]'
p438
aS'a[682]'
p439
aS'a[1257]'
p440
aS'a[1034]'
p441
aS'a[7157]'
p442
aS'a[7156]'
p443
aS'a[4810]'
p444
aS'a[3886]'
p445
aS'a[4529]'
p446
aS'a[667]'
p447
aS'a[967]'
p448
aS'a[56]'
p449
aS'a[2683]'
p450
aS'a[2683]'
p451
aS'a[6245]'
p452
aS'a[5764]'
p453
aS'a[749]'
p454
aS'a[845]'
p455
aS'a[1423]'
p456
aS'a[2300]'
p457
aS'a[100]'
p458
aS'a[3615]'
p459
aS'a[7148]'
p460
aS'a[2501]'
p461
aS'a[9055]'
p462
aS'a[2300]'
p463
aS'a[9033]'
p464
aS'a[1858]'
p465
aS'a[3928]'
p466
aS'a[3615]'
p467
aS'a[8009]'
p468
aS'a[740]'
p469
aS'a[1744]'
p470
aS'a[1081]'
p471
aS'a[8799]'
p472
aS'a[267]'
p473
aS'a[5106]'
p474
aS'a[2170]'
p475
aS'a[6502]'
p476
aS'a[842]'
p477
aS'a[4529]'
p478
aS'a[4529]'
p479
aS'a[2300]'
p480
aS'a[18]'
p481
aS'a[1339]'
p482
aS'a[6558]'
p483
aS'a[2939]'
p484
aS'a[46]'
p485
aS'a[6570]'
p486
aS'a[4845]'
p487
aS'a[1935]'
p488
aS'a[6850]'
p489
aS'a[23]'
p490
aS'a[2671]'
p491
aS'a[618]'
p492
aS'a[8241]'
p493
aS'a[5415]'
p494
aS'a[3928]'
p495
aS'a[72]'
p496
aS'a[267]'
p497
aS'a[740]'
p498
aS'a[8617]'
p499
aS'a[8264]'
p500
aS'a[4001]'
p501
aS'a[1]'
p502
aS'a[267]'
p503
aS'a[189]'
p504
aS'a[124]'
p505
aS'a[438]'
p506
aS'a[1130]'
p507
aS'a[5]'
p508
aS'a[2475]'
p509
aS'a[8038]'
p510
aS'a[3946]'
p511
aS'a[71]'
p512
aS'a[155]'
p513
aS'a[6454]'
p514
aS'a[35]'
p515
aS'a[2939]'
p516
aS'a[223]'
p517
aS'a[593]'
p518
aS'a[223]'
p519
aS'a[6265]'
p520
aS'a[5106]'
p521
aS'a[3]'
p522
aS'a[4928]'
p523
aS'a[3660]'
p524
aS'a[7270]'
p525
aS'a[4172]'
p526
aS'a[6399]'
p527
aS'a[5997]'
p528
aS'a[2683]'
p529
aS'a[223]'
p530
aS'a[71]'
p531
aS'a[3162]'
p532
aS'a[22]'
p533
aS'a[201]'
p534
aS'a[4935]'
p535
aS'a[1399]'
p536
aS'a[18]'
p537
aS'a[4687]'
p538
aS'a[3595]'
p539
aS'a[458]'
p540
aS'a[61]'
p541
aS'a[135]'
p542
aS'a[414]'
p543
aS'a[5707]'
p544
aS'a[2675]'
p545
aS'a[2498]'
p546
aS'a[9055]'
p547
aS'a[4639]'
p548
aS'a[458]'
p549
aS'a[4935]'
p550
aS'a[1]'
p551
aS'a[2939]'
p552
aS'a[1585]'
p553
aS'a[8692]'
p554
aS'a[2581]'
p555
aS'a[2416]'
p556
aS'a[2300]'
p557
aS'a[3]'
p558
aS'a[8054]'
p559
aS'a[2645]'
p560
aS'a[555]'
p561
aS'a[3]'
p562
aS'a[24]'
p563
aS'a[24]'
p564
aS'a[8685]'
p565
aS'a[1541]'
p566
aS'a[6329]'
p567
aS'a[3615]'
p568
aS'a[168]'
p569
aS'a[1]'
p570
aS'a[3731]'
p571
aS'a[1585]'
p572
aS'a[769]'
p573
aS'a[1339]'
p574
aS'a[6316]'
p575
aS'a[3161]'
p576
aS'a[92]'
p577
aS'a[3330]'
p578
aS'a[155]'
p579
aS'a[24]'
p580
aS'a[301]'
p581
aS'a[1081]'
p582
aS'a[198]'
p583
aS'a[92]'
p584
aS'a[1091]'
p585
aS'a[8009]'
p586
aS'a[7716]'
p587
aS'a[2885]'
p588
aS'a[555]'
p589
aS'a[52]'
p590
aS'a[5823]'
p591
aS'a[535]'
p592
aS'a[1541]'
p593
aS'a[14]'
p594
aS'a[7024]'
p595
aS'a[3502]'
p596
aS'a[351]'
p597
aS'a[3238]'
p598
aS'a[2675]'
p599
aS'a[2683]'
p600
aS'a[8103]'
p601
aS'a[1696]'
p602
aS'a[1477]'
p603
aS'a[2675]'
p604
aS'a[92]'
p605
aS'a[6323]'
p606
aS'a[62]'
p607
aS'a[1]'
p608
aS'a[56]'
p609
aS'a[24]'
p610
aS'a[267]'
p611
aS'a[2655]'
p612
aS'a[3272]'
p613
aS'a[608]'
p614
aS'a[3490]'
p615
aS'a[1696]'
p616
aS'a[3063]'
p617
aS'a[350]'
p618
aS'a[8876]'
p619
aS'a[720]'
p620
aS'a[35]'
p621
aS'a[33]'
p622
aS'a[3502]'
p623
aS'a[24]'
p624
aS'a[1913]'
p625
aS'a[2655]'
p626
aS'a[2300]'
p627
aS'a[858]'
p628
aS'a[155]'
p629
aS'a[8941]'
p630
aS'a[5320]'
p631
aS'a[5226]'
p632
aS'a[1606]'
p633
aS'a[414]'
p634
aS'a[1]'
p635
aS'a[3]'
p636
aS'a[168]'
p637
aS'a[46]'
p638
aS'a[1583]'
p639
aS'a[301]'
p640
aS'a[616]'
p641
aS'a[92]'
p642
aS'a[2683]'
p643
aS'a[3640]'
p644
aS'a[5387]'
p645
aS'a[24]'
p646
aS'a[8782]'
p647
aS'a[3459]'
p648
aS'a[189]'
p649
aS'a[8602]'
p650
aS'a[45]'
p651
aS'a[2098]'
p652
aS'a[1]'
p653
aS'a[2283]'
p654
aS'a[3731]'
p655
aS'a[5249]'
p656
aS'a[699]'
p657
aS'a[5106]'
p658
aS'a[371]'
p659
aS'a[4704]'
p660
aS'a[3063]'
p661
aS'a[605]'
p662
aS'a[2675]'
p663
aS'a[35]'
p664
aS'a[7566]'
p665
aS'a[2908]'
p666
aS'a[5572]'
p667
aS'a[685]'
p668
aS'a[223]'
p669
aS'a[1424]'
p670
aS'a[5246]'
p671
aS'a[956]'
p672
aS'a[5872]'
p673
aS'a[458]'
p674
aS'a[3927]'
p675
aS'a[12]'
p676
aS'a[3971]'
p677
aS'a[4]'
p678
aS'a[7423]'
p679
aS'a[1696]'
p680
aS'a[0]'
p681
aS'a[792]'
p682
aS'a[24]'
p683
aS'a[4935]'
p684
aS'a[532]'
p685
aS'a[958]'
p686
aS'a[258]'
p687
aS'a[8038]'
p688
aS'a[2675]'
p689
aS'a[0]'
p690
aS'a[1935]'
p691
aS'a[5339]'
p692
aS'a[1541]'
p693
aS'a[6922]'
p694
aS'a[4288]'
p695
aS'a[235]'
p696
aS'a[301]'
p697
aS'a[1807]'
p698
aS'a[4018]'
p699
aS'a[243]'
p700
aS'a[24]'
p701
aS'a[1445]'
p702
aS'a[8365]'
p703
aS'a[6400]'
p704
aS'a[4018]'
p705
aS'a[2675]'
p706
aS'a[6201]'
p707
aS'a[3]'
p708
aS'a[168]'
p709
aS'a[124]'
p710
aS'a[8879]'
p711
aS'a[4861]'
p712
aS'a[647]'
p713
aS'a[1935]'
p714
aS'a[8385]'
p715
aS'a[8518]'
p716
aS'a[168]'
p717
aS'a[7893]'
p718
aS'a[4203]'
p719
aS'a[8685]'
p720
aS'a[291]'
p721
aS'a[8820]'
p722
aS'a[1541]'
p723
aS'a[135]'
p724
aS'a[682]'
p725
aS'a[2939]'
p726
aS'a[956]'
p727
aS'a[2868]'
p728
aS'a[555]'
p729
aS'a[189]'
p730
aS'a[34]'
p731
aS'a[1555]'
p732
aS'a[682]'
p733
aS'a[647]'
p734
aS'a[23]'
p735
aS'a[4711]'
p736
aS'a[4583]'
p737
aS'a[6422]'
p738
aS'a[2838]'
p739
aS'a[62]'
p740
aS'a[1935]'
p741
aS'a[1585]'
p742
aS'a[4604]'
p743
aS'a[3908]'
p744
aS'a[5844]'
p745
aS'a[155]'
p746
aS'a[5644]'
p747
aS'a[310]'
p748
aS'a[2675]'
p749
aS'a[8038]'
p750
aS'a[189]'
p751
aS'a[214]'
p752
aS'a[3731]'
p753
aS'a[3928]'
p754
aS'a[2300]'
p755
aS'a[3502]'
p756
aS'a[3411]'
p757
aS'a[4989]'
p758
aS'a[711]'
p759
aS'a[6660]'
p760
aS'a[310]'
p761
aS'a[3769]'
p762
aS'a[5847]'
p763
aS'a[23]'
p764
aS'a[4]'
p765
aS'a[4529]'
p766
aS'a[5086]'
p767
aS'a[4939]'
p768
aS'a[2683]'
p769
aS'a[1096]'
p770
aS'a[5358]'
p771
aS'a[223]'
p772
aS'a[193]'
p773
aS'a[291]'
p774
aS'a[135]'
p775
aS'a[699]'
p776
aS'a[2939]'
p777
aS'a[8103]'
p778
aS'a[4456]'
p779
aS'a[135]'
p780
aS'a[301]'
p781
aS'a[2079]'
p782
aS'a[2855]'
p783
aS'a[303]'
p784
aS'a[0]'
p785
aS'a[201]'
p786
aS'a[0]'
p787
aS'a[267]'
p788
aS'a[3650]'
p789
aS'a[301]'
p790
aS'a[301]'
p791
aS'a[189]'
p792
aS'a[4276]'
p793
aS'a[749]'
p794
aS'a[2300]'
p795
aS'a[198]'
p796
aS'a[1858]'
p797
aS'a[7420]'
p798
aS'a[2675]'
p799
aS'a[7102]'
p800
aS'a[605]'
p801
aS'a[8470]'
p802
aS'a[1477]'
p803
aS'a[24]'
p804
aS'a[1585]'
p805
aS'a[52]'
p806
aS'a[223]'
p807
aS'a[301]'
p808
aS'a[7132]'
p809
aS'a[3776]'
p810
aS'a[735]'
p811
aS'a[135]'
p812
aS'a[2498]'
p813
aS'a[46]'
p814
aS'a[0]'
p815
aS'a[1]'
p816
aS'a[223]'
p817
aS'a[3387]'
p818
aS'a[1831]'
p819
aS'a[9028]'
p820
aS'a[3089]'
p821
aS'a[3301]'
p822
aS'a[350]'
p823
aS'a[5870]'
p824
aS'a[8510]'
p825
aS'a[3325]'
p826
aS'a[6610]'
p827
aS'a[1477]'
p828
aS'a[61]'
p829
aS'a[8110]'
p830
aS'a[1130]'
p831
aS'a[7389]'
p832
aS'a[71]'
p833
aS'a[34]'
p834
aS'a[8038]'
p835
aS'a[5106]'
p836
aS'a[100]'
p837
aS'a[198]'
p838
aS'a[191]'
p839
aS'a[267]'
p840
aS'a[4370]'
p841
aS'a[168]'
p842
aS'a[1858]'
p843
aS'a[2334]'
p844
aS'a[61]'
p845
aS'a[267]'
p846
aS'a[3321]'
p847
aS'a[3615]'
p848
aS'a[18]'
p849
aS'a[3639]'
p850
aS'a[3850]'
p851
aS'a[1935]'
p852
aS'a[124]'
p853
aS'a[371]'
p854
aS'a[35]'
p855
aS'a[155]'
p856
aS'a[135]'
p857
aS'a[618]'
p858
aS'a[3615]'
p859
aS'a[3072]'
p860
aS'a[8539]'
p861
aS'a[618]'
p862
aS'a[159]'
p863
aS'a[5634]'
p864
aS'a[749]'
p865
aS'a[24]'
p866
aS'a[1263]'
p867
aS'a[3502]'
p868
aS'a[3]'
p869
aS'a[5249]'
p870
aS'a[1617]'
p871
aS'a[24]'
p872
aS'a[1477]'
p873
aS'a[6093]'
p874
aS'a[267]'
p875
aS'a[3072]'
p876
aS'a[458]'
p877
aS'a[8038]'
p878
aS'a[3127]'
p879
aS'a[1192]'
p880
aS'a[18]'
p881
aS'a[7117]'
p882
aS'a[647]'
p883
aS'a[532]'
p884
aS'a[1703]'
p885
aS'a[5778]'
p886
aS'a[3070]'
p887
aS'a[4585]'
p888
aS'a[5247]'
p889
aS'a[139]'
p890
aS'a[3615]'
p891
aS'a[638]'
p892
aS'a[5723]'
p893
aS'a[286]'
p894
aS'a[267]'
p895
aS'a[3114]'
p896
aS'a[1541]'
p897
aS'a[618]'
p898
aS'a[62]'
p899
aS'a[35]'
p900
aS'a[6555]'
p901
aS'a[699]'
p902
aS'a[158]'
p903
aS'a[5574]'
p904
aS'a[4159]'
p905
aS'a[310]'
p906
aS'a[4]'
p907
aS'a[6468]'
p908
aS'a[4835]'
p909
aS'a[647]'
p910
aS'a[7246]'
p911
aS'a[3526]'
p912
aS'a[8038]'
p913
aS'a[2655]'
p914
aS'a[24]'
p915
aS'a[33]'
p916
aS'a[291]'
p917
aS'a[52]'
p918
aS'a[749]'
p919
aS'a[310]'
p920
aS'a[618]'
p921
aS'a[1092]'
p922
aS'a[555]'
p923
aS'a[749]'
p924
aS'a[5390]'
p925
aS'a[3419]'
p926
aS'a[8165]'
p927
aS'a[3]'
p928
aS'a[2261]'
p929
aS'a[124]'
p930
aS'a[371]'
p931
aS'a[4634]'
p932
aS'a[139]'
p933
aS'a[61]'
p934
aS'a[532]'
p935
aS'a[2410]'
p936
aS'a[401]'
p937
aS'a[1343]'
p938
aS'a[3928]'
p939
aS'a[2683]'
p940
aS'a[52]'
p941
aS'a[8103]'
p942
aS'a[2683]'
p943
aS'a[1092]'
p944
aS'a[5777]'
p945
aS'a[2264]'
p946
aS'a[6466]'
p947
aS'a[3776]'
p948
aS'a[740]'
p949
aS'a[301]'
p950
aS'a[458]'
p951
aS'a[2319]'
p952
aS'a[45]'
p953
aS'a[7319]'
p954
aS'a[92]'
p955
aS'a[5106]'
p956
aS'a[8974]'
p957
aS'a[6698]'
p958
aS'a[34]'
p959
aS'a[92]'
p960
aS'a[1846]'
p961
aS'a[665]'
p962
aS'a[2320]'
p963
aS'a[2498]'
p964
aS'a[2653]'
p965
aS'a[1867]'
p966
aS'a[2050]'
p967
aS'a[8325]'
p968
aS'a[61]'
p969
aS'a[3421]'
p970
aS'a[1858]'
p971
aS'a[1257]'
p972
aS'a[8411]'
p973
aS'a[4259]'
p974
aS'a[3063]'
p975
aS'a[5971]'
p976
aS'a[1135]'
p977
aS'a[1257]'
p978
aS'a[1255]'
p979
aS'a[2988]'
p980
aS'a[3072]'
p981
aS'a[2683]'
p982
aS'a[1858]'
p983
aS'a[6948]'
p984
aS'a[5726]'
p985
aS'a[56]'
p986
aS'a[301]'
p987
aS'a[4529]'
p988
aS'a[1472]'
p989
aS'a[1980]'
p990
aS'a[4506]'
p991
aS'a[1935]'
p992
aS'a[3]'
p993
aS'a[92]'
p994
aS'a[956]'
p995
aS'a[9155]'
p996
aS'a[7720]'
p997
aS'a[291]'
p998
aS'a[7455]'
p999
aS'a[243]'
p1000
aS'a[3675]'
p1001
aS'a[1081]'
p1002
aS'a[14]'
p1003
aS'a[8685]'
p1004
aS'a[24]'
p1005
aS'a[9007]'
p1006
aS'a[6641]'
p1007
aS'a[24]'
p1008
aS'a[301]'
p1009
aS'a[2675]'
p1010
aS'a[2683]'
p1011
aS'a[155]'
p1012
aS'a[2851]'
p1013
aS'a[3]'
p1014
aS'a[7285]'
p1015
aS'a[351]'
p1016
aS'a[23]'
p1017
aS'a[124]'
p1018
aS'a[258]'
p1019
aS'a[351]'
p1020
aS'a[2683]'
p1021
aS'a[8685]'
p1022
aS'a[1696]'
p1023
aS'a[52]'
p1024
aS'a[1480]'
p1025
aS'a[6218]'
p1026
aS'a[159]'
p1027
aS'a[5249]'
p1028
aS'a[267]'
p1029
aS'a[3615]'
p1030
aS'a[4018]'
p1031
aS'a[4278]'
p1032
aS'a[4521]'
p1033
aS'a[7014]'
p1034
aS'a[711]'
p1035
aS'a[3]'
p1036
aS'a[2300]'
p1037
aS'a[2939]'
p1038
aS'a[3072]'
p1039
aS'a[4367]'
p1040
aS'a[71]'
p1041
aS'a[2939]'
p1042
aS'a[62]'
p1043
aS'a[71]'
p1044
aS'a[458]'
p1045
aS'a[2683]'
p1046
aS'a[24]'
p1047
aS'a[4772]'
p1048
aS'a[4935]'
p1049
aS'a[3399]'
p1050
aS'a[4985]'
p1051
aS'a[8663]'
p1052
aS'a[791]'
p1053
aS'a[35]'
p1054
aS'a[2939]'
p1055
aS'a[6128]'
p1056
aS'a[4639]'
p1057
aS'a[846]'
p1058
aS'a[3063]'
p1059
aS'a[3344]'
p1060
aS'a[4240]'
p1061
aS'a[2720]'
p1062
aS'a[135]'
p1063
aS'a[4041]'
p1064
aS'a[7410]'
p1065
aS'a[8773]'
p1066
aS'a[2412]'
p1067
aS'a[2939]'
p1068
aS'a[9056]'
p1069
aS'a[1935]'
p1070
aS'a[8993]'
p1071
aS'a[260]'
p1072
aS'a[4771]'
p1073
aS'a[1096]'
p1074
aS'a[988]'
p1075
aS'a[8009]'
p1076
aS'a[310]'
p1077
aS'a[1]'
p1078
aS'a[189]'
p1079
aS'a[168]'
p1080
aS'a[100]'
p1081
aS'a[1945]'
p1082
aS'a[223]'
p1083
aS'a[5634]'
p1084
aS'a[605]'
p1085
aS'a[2939]'
p1086
aS'a[8009]'
p1087
aS'a[3908]'
p1088
aS'a[3230]'
p1089
aS'a[8519]'
p1090
aS'a[52]'
p1091
aS'a[5071]'
p1092
aS'a[1130]'
p1093
aS'a[4828]'
p1094
aS'a[5980]'
p1095
aS'a[4513]'
p1096
aS'a[4579]'
p1097
aS'a[24]'
p1098
aS'a[1935]'
p1099
aS'a[198]'
p1100
aS'a[301]'
p1101
aS'a[1477]'
p1102
aS'a[1585]'
p1103
aS'a[7684]'
p1104
aS'a[532]'
p1105
aS'a[3063]'
p1106
aS'a[1513]'
p1107
aS'a[7990]'
p1108
aS'a[2253]'
p1109
aS'a[5517]'
p1110
aS'a[135]'
p1111
aS'a[2493]'
p1112
aS'a[56]'
p1113
aS'a[24]'
p1114
aS'a[682]'
p1115
aS'a[0]'
p1116
aS'a[5106]'
p1117
aS'a[711]'
p1118
aS'a[124]'
p1119
aS'a[2675]'
p1120
aS'a[884]'
p1121
aS'a[1625]'
p1122
aS'a[4241]'
p1123
aS'a[6266]'
p1124
aS'a[1]'
p1125
aS'a[135]'
p1126
aS'a[298]'
p1127
aS'a[999]'
p1128
aS'a[605]'
p1129
aS'a[3451]'
p1130
aS'a[135]'
p1131
aS'a[18]'
p1132
aS'a[4639]'
p1133
aS'a[92]'
p1134
aS'a[0]'
p1135
aS'a[3615]'
p1136
aS'a[1961]'
p1137
aS'a[2582]'
p1138
aS'a[33]'
p1139
aS'a[711]'
p1140
aS'a[3105]'
p1141
aS'a[67]'
p1142
aS'a[24]'
p1143
aS'a[3072]'
p1144
aS'a[350]'
p1145
aS'a[2419]'
p1146
aS'a[135]'
p1147
aS'a[1580]'
p1148
aS'a[2091]'
p1149
aS'a[7580]'
p1150
aS'a[4127]'
p1151
aS'a[2042]'
p1152
aS'a[3]'
p1153
aS'a[1206]'
p1154
aS'a[2521]'
p1155
aS'a[3731]'
p1156
aS'a[458]'
p1157
aS'a[6749]'
p1158
aS'a[4877]'
p1159
aS'a[350]'
p1160
aS'a[3076]'
p1161
aS'a[168]'
p1162
aS'a[35]'
p1163
aS'a[435]'
p1164
aS'a[3920]'
p1165
aS'a[3486]'
p1166
aS'a[7519]'
p1167
aS'a[8038]'
p1168
aS'a[7896]'
p1169
aS'a[1585]'
p1170
aS'a[4444]'
p1171
aS'a[124]'
p1172
aS'a[1897]'
p1173
aS'a[6871]'
p1174
aS'a[2939]'
p1175
aS'a[1]'
p1176
aS'a[7445]'
p1177
aS'a[34]'
p1178
aS'a[2365]'
p1179
aS'a[3908]'
p1180
aS'a[4162]'
p1181
aS'a[321]'
p1182
aS'a[1300]'
p1183
aS'a[24]'
p1184
aS'a[45]'
p1185
aS'a[71]'
p1186
aS'a[9135]'
p1187
aS'a[6832]'
p1188
aS'a[155]'
p1189
aS'a[4324]'
p1190
aS'a[3162]'
p1191
aS'a[392]'
p1192
aS'a[531]'
p1193
aS'a[6416]'
p1194
aS'a[6368]'
p1195
aS'a[1935]'
p1196
aS'a[2775]'
p1197
aS'a[24]'
p1198
aS'a[4370]'
p1199
aS'a[6586]'
p1200
aS'a[3072]'
p1201
aS'a[2410]'
p1202
aS'a[4077]'
p1203
aS'a[7645]'
p1204
aS'a[1]'
p1205
aS'a[1696]'
p1206
aS'a[189]'
p1207
aS'a[22]'
p1208
aS'a[796]'
p1209
aS'a[4005]'
p1210
aS'a[1028]'
p1211
aS'a[267]'
p1212
aS'a[2300]'
p1213
aS'a[6847]'
p1214
aS'a[8038]'
p1215
aS'a[7015]'
p1216
aS'a[4018]'
p1217
aS'a[6428]'
p1218
aS'a[4239]'
p1219
aS'a[1585]'
p1220
aS'a[2683]'
p1221
aS'a[24]'
p1222
aS'a[3776]'
p1223
aS'a[841]'
p1224
aS'a[3700]'
p1225
aS'a[337]'
p1226
aS'a[2675]'
p1227
aS'a[0]'
p1228
aS'a[3545]'
p1229
aS'a[5481]'
p1230
aS'a[2130]'
p1231
aS'a[2321]'
p1232
aS'a[4783]'
p1233
aS'a[271]'
p1234
aS'a[682]'
p1235
aS'a[291]'
p1236
aS'a[2375]'
p1237
aS'a[52]'
p1238
aS'a[5384]'
p1239
aS'a[62]'
p1240
aS'a[1858]'
p1241
aS'a[4030]'
p1242
aS'a[8103]'
p1243
aS'a[2300]'
p1244
aS'a[351]'
p1245
aS'a[6804]'
p1246
aS'a[4935]'
p1247
aS'a[6146]'
p1248
aS'a[8103]'
p1249
aS'a[198]'
p1250
aS'a[155]'
p1251
aS'a[351]'
p1252
aS'a[0]'
p1253
aS'a[3]'
p1254
aS'a[7217]'
p1255
aS'a[1092]'
p1256
aS'a[7304]'
p1257
aS'a[8860]'
p1258
aS'a[2018]'
p1259
aS'a[168]'
p1260
aS'a[34]'
p1261
aS'a[82]'
p1262
aS'a[18]'
p1263
aS'a[2675]'
p1264
aS'a[3731]'
p1265
aS'a[291]'
p1266
aS'a[298]'
p1267
aS'a[4773]'
p1268
aS'a[24]'
p1269
aS'a[155]'
p1270
aS'a[5106]'
p1271
aS'a[7534]'
p1272
aS'a[24]'
p1273
aS'a[2315]'
p1274
aS'a[135]'
p1275
aS'a[301]'
p1276
aS'a[7036]'
p1277
aS'a[578]'
p1278
aS'a[2521]'
p1279
aS'a[2410]'
p1280
aS'a[2454]'
p1281
aS'a[35]'
p1282
aS'a[3737]'
p1283
aS'a[532]'
p1284
aS'a[351]'
p1285
aS'a[0]'
p1286
aS'a[1]'
p1287
aS'a[46]'
p1288
aS'a[3070]'
p1289
aS'a[24]'
p1290
aS'a[2653]'
p1291
aS'a[4899]'
p1292
aS'a[24]'
p1293
aS'a[0]'
p1294
aS'a[301]'
p1295
aS'a[71]'
p1296
aS'a[52]'
p1297
aS'a[201]'
p1298
aS'a[390]'
p1299
aS'a[8103]'
p1300
aS'a[2803]'
p1301
aS'a[1]'
p1302
aS'a[1313]'
p1303
aS'a[988]'
p1304
aS'a[4010]'
p1305
aS'a[5634]'
p1306
aS'a[22]'
p1307
aS'a[139]'
p1308
aS'a[683]'
p1309
aS'a[7459]'
p1310
aS'a[1585]'
p1311
aS'a[4115]'
p1312
aS'a[52]'
p1313
aS'a[4039]'
p1314
aS'a[351]'
p1315
aS'a[792]'
p1316
aS'a[1897]'
p1317
aS'a[4415]'
p1318
aS'a[5282]'
p1319
aS'a[5149]'
p1320
aS'a[5249]'
p1321
aS'a[2607]'
p1322
aS'a[6129]'
p1323
aS'a[711]'
p1324
aS'a[7720]'
p1325
aS'a[3070]'
p1326
aS'a[24]'
p1327
aS'a[155]'
p1328
aS'a[6519]'
p1329
aS'a[1585]'
p1330
aS'a[1263]'
p1331
aS'a[301]'
p1332
aS'a[4639]'
p1333
aS'a[5557]'
p1334
aS'a[4384]'
p1335
aS'a[8685]'
p1336
aS'a[14]'
p1337
aS'a[699]'
p1338
aS'a[7189]'
p1339
aS'a[3072]'
p1340
aS'a[4273]'
p1341
aS'a[1257]'
p1342
aS'a[8146]'
p1343
aS'a[62]'
p1344
aS'a[4639]'
p1345
aS'a[3408]'
p1346
aS'a[14]'
p1347
aS'a[4440]'
p1348
aS'a[34]'
p1349
aS'a[350]'
p1350
aS'a[2056]'
p1351
aS'a[24]'
p1352
aS'a[7211]'
p1353
aS'a[135]'
p1354
aS'a[24]'
p1355
aS'a[8685]'
p1356
aS'a[3502]'
p1357
aS'a[56]'
p1358
aS'a[18]'
p1359
aS'a[2196]'
p1360
aS'a[124]'
p1361
aS'a[3070]'
p1362
aS'a[7411]'
p1363
aS'a[8103]'
p1364
aS'a[1096]'
p1365
aS'a[1130]'
p1366
aS'a[1935]'
p1367
aS'a[7999]'
p1368
aS'a[351]'
p1369
aS'a[301]'
p1370
aS'a[4294]'
p1371
aS'a[458]'
p1372
aS'a[956]'
p1373
aS'a[6042]'
p1374
aS'a[1807]'
p1375
aS'a[301]'
p1376
aS'a[5921]'
p1377
aS'a[155]'
p1378
aS'a[414]'
p1379
aS'a[18]'
p1380
aS'a[23]'
p1381
aS'a[642]'
p1382
aS'a[6663]'
p1383
aS'a[223]'
p1384
aS'a[8945]'
p1385
aS'a[1897]'
p1386
aS'a[3]'
p1387
aS'a[35]'
p1388
aS'a[618]'
p1389
aS'a[135]'
p1390
aS'a[1096]'
p1391
aS'a[1696]'
p1392
aS'a[4]'
p1393
aS'a[3173]'
p1394
aS'a[1257]'
p1395
aS'a[71]'
p1396
aS'a[22]'
p1397
aS'a[201]'
p1398
aS'a[7365]'
p1399
aS'a[7758]'
p1400
aS'a[3070]'
p1401
aS'a[2939]'
p1402
aS'a[291]'
p1403
aS'a[2410]'
p1404
aS'a[2831]'
p1405
aS'a[3502]'
p1406
aS'a[350]'
p1407
aS'a[79]'
p1408
aS'a[24]'
p1409
aS'a[630]'
p1410
aS'a[5702]'
p1411
aS'a[52]'
p1412
aS'a[7893]'
p1413
aS'a[24]'
p1414
aS'a[458]'
p1415
aS'a[8685]'
p1416
aS'a[555]'
p1417
aS'a[125]'
p1418
aS'a[4687]'
p1419
aS'a[3176]'
p1420
aS'a[3]'
p1421
aS'a[4062]'
p1422
aS'a[6674]'
p1423
aS'a[92]'
p1424
aS'a[267]'
p1425
aS'a[414]'
p1426
aS'a[8781]'
p1427
aS'a[6302]'
p1428
aS'a[34]'
p1429
aS'a[3776]'
p1430
aS'a[5055]'
p1431
aS'a[5249]'
p1432
aS'a[1477]'
p1433
aS'a[618]'
p1434
aS'a[24]'
p1435
aS'a[22]'
p1436
aS'a[135]'
p1437
aS'a[4270]'
p1438
aS'a[680]'
p1439
aS'a[4935]'
p1440
aS'a[988]'
p1441
aS'a[0]'
p1442
aS'a[61]'
p1443
aS'a[35]'
p1444
aS'a[155]'
p1445
aS'a[438]'
p1446
aS'a[34]'
p1447
aS'a[8906]'
p1448
aS'a[8038]'
p1449
aS'a[1585]'
p1450
aS'a[4367]'
p1451
aS'a[6885]'
p1452
aS'a[1715]'
p1453
aS'a[260]'
p1454
aS'a[3072]'
p1455
aS'a[8866]'
p1456
aS'a[7475]'
p1457
aS'a[2424]'
p1458
aS'a[988]'
p1459
aS'a[1066]'
p1460
aS'a[24]'
p1461
aS'a[4529]'
p1462
aS'a[3720]'
p1463
aS'a[4]'
p1464
aS'a[5249]'
p1465
aS'a[1257]'
p1466
aS'a[7605]'
p1467
aS'a[532]'
p1468
aS'a[135]'
p1469
aS'a[8956]'
p1470
aS'a[1081]'
p1471
aS'a[135]'
p1472
aS'a[3993]'
p1473
aS'a[458]'
p1474
aS'a[2115]'
p1475
aS'a[159]'
p1476
aS'a[3939]'
p1477
aS'a[35]'
p1478
aS'a[371]'
p1479
aS'a[24]'
p1480
aS'a[5382]'
p1481
aS'a[458]'
p1482
aS'a[7660]'
p1483
aS'a[310]'
p1484
aS'a[7719]'
p1485
aS'a[605]'
p1486
aS'a[2939]'
p1487
aS'a[5010]'
p1488
aS'a[223]'
p1489
aS'a[618]'
p1490
aS'a[2669]'
p1491
aS'a[61]'
p1492
aS'a[135]'
p1493
aS'a[5151]'
p1494
aS'a[728]'
p1495
aS'a[5634]'
p1496
aS'a[7054]'
p1497
aS'a[5717]'
p1498
aS'a[618]'
p1499
aS'a[8103]'
p1500
aS'a[5244]'
p1501
aS'a[135]'
p1502
aS'a[92]'
p1503
aS'a[2939]'
p1504
aS'a[3300]'
p1505
aS'a[2675]'
p1506
aS'a[438]'
p1507
aS'a[2655]'
p1508
aS'a[605]'
p1509
aS'a[371]'
p1510
aS'a[7755]'
p1511
aS'a[24]'
p1512
aS'a[3094]'
p1513
aS'a[2655]'
p1514
aS'a[71]'
p1515
aS'a[310]'
p1516
aS'a[1138]'
p1517
aS'a[8252]'
p1518
aS'a[35]'
p1519
aS'a[2130]'
p1520
aS'a[8562]'
p1521
aS'a[4052]'
p1522
aS'a[191]'
p1523
aS'a[3072]'
p1524
aS'a[3402]'
p1525
aS'a[1]'
p1526
aS'a[1096]'
p1527
aS'a[2491]'
p1528
aS'a[1]'
p1529
aS'a[24]'
p1530
aS'a[267]'
p1531
aS'a[303]'
p1532
aS'a[1585]'
p1533
aS'a[2118]'
p1534
aS'a[2160]'
p1535
aS'a[243]'
p1536
aS'a[3]'
p1537
aS'a[740]'
p1538
aS'a[8000]'
p1539
aS'a[3615]'
p1540
aS'a[1935]'
p1541
aS'a[1108]'
p1542
aS'a[3731]'
p1543
aS'a[4944]'
p1544
aS'a[1585]'
p1545
aS'a[1082]'
p1546
aS'a[6724]'
p1547
aS'a[71]'
p1548
aS'a[458]'
p1549
aS'a[124]'
p1550
aS'a[2939]'
p1551
aS'a[291]'
p1552
aS'a[687]'
p1553
aS'a[1092]'
p1554
aS'a[18]'
p1555
aS'a[1676]'
p1556
aS'a[682]'
p1557
aS'a[303]'
p1558
aS'a[34]'
p1559
aS'a[8038]'
p1560
aS'a[682]'
p1561
aS'a[1257]'
p1562
aS'a[414]'
p1563
aS'a[966]'
p1564
aS'a[458]'
p1565
aS'a[5595]'
p1566
aS'a[24]'
p1567
aS'a[2498]'
p1568
aS'a[9105]'
p1569
aS'a[2113]'
p1570
aS'a[1092]'
p1571
aS'a[2221]'
p1572
aS'a[24]'
p1573
aS'a[2300]'
p1574
aS'a[1858]'
p1575
aS'a[4867]'
p1576
aS'a[310]'
p1577
aS'a[2521]'
p1578
aS'a[711]'
p1579
aS'a[35]'
p1580
aS'a[3865]'
p1581
aS'a[4353]'
p1582
aS'a[1580]'
p1583
aS'a[2609]'
p1584
aS'a[3812]'
p1585
aS'a[2300]'
p1586
aS'a[267]'
p1587
aS'a[139]'
p1588
aS'a[4409]'
p1589
aS'a[3944]'
p1590
aS'a[458]'
p1591
aS'a[3776]'
p1592
aS'a[291]'
p1593
aS'a[8103]'
p1594
aS'a[1081]'
p1595
aS'a[4935]'
p1596
aS'a[2316]'
p1597
aS'a[189]'
p1598
aS'a[1585]'
p1599
aS'a[988]'
p1600
aS'a[6259]'
p1601
aS'a[4490]'
p1602
aS'a[4529]'
p1603
aS'a[1488]'
p1604
aS'a[618]'
p1605
aS'a[5760]'
p1606
aS'a[2693]'
p1607
aS'a[3]'
p1608
aS'a[472]'
p1609
aS'a[189]'
p1610
aS'a[56]'
p1611
aS'a[1]'
p1612
aS'a[2675]'
p1613
aS'a[6132]'
p1614
aS'a[71]'
p1615
aS'a[618]'
p1616
aS'a[4529]'
p1617
aS'a[100]'
p1618
aS'a[1696]'
p1619
aS'a[414]'
p1620
aS'a[1541]'
p1621
aS'a[14]'
p1622
aS'a[14]'
p1623
aS'a[8169]'
p1624
aS'a[0]'
p1625
aS'a[916]'
p1626
aS'a[6902]'
p1627
aS'a[310]'
p1628
aS'a[1734]'
p1629
aS'a[5590]'
p1630
aS'a[3615]'
p1631
aS'a[5894]'
p1632
aS'a[3063]'
p1633
aS'a[1477]'
p1634
aS'a[8905]'
p1635
aS'a[260]'
p1636
aS'a[303]'
p1637
aS'a[1830]'
p1638
aS'a[3]'
p1639
aS'a[618]'
p1640
aS'a[555]'
p1641
aS'a[335]'
p1642
aS'a[1858]'
p1643
aS'a[877]'
p1644
aS'a[4265]'
p1645
aS'a[3220]'
p1646
aS'a[711]'
p1647
aS'a[1257]'
p1648
aS'a[223]'
p1649
aS'a[2218]'
p1650
aS'a[198]'
p1651
aS'a[8251]'
p1652
aS'a[24]'
p1653
aS'a[1263]'
p1654
aS'a[52]'
p1655
aS'a[3]'
p1656
aS'a[33]'
p1657
aS'a[699]'
p1658
aS'a[6867]'
p1659
aS'a[618]'
p1660
aS'a[168]'
p1661
aS'a[5106]'
p1662
aS'a[7648]'
p1663
aS'a[52]'
p1664
aS'a[2423]'
p1665
aS'a[3615]'
p1666
aS'a[4581]'
p1667
aS'a[62]'
p1668
aS'a[7131]'
p1669
aS'a[2675]'
p1670
aS'a[201]'
p1671
aS'a[1585]'
p1672
aS'a[7599]'
p1673
aS'a[1362]'
p1674
aS'a[7951]'
p1675
aS'a[1]'
p1676
aS'a[5351]'
p1677
aS'a[139]'
p1678
aS'a[139]'
p1679
aS'a[5634]'
p1680
aS'a[2939]'
p1681
aS'a[1130]'
p1682
aS'a[8103]'
p1683
aS'a[699]'
p1684
aS'a[711]'
p1685
aS'a[831]'
p1686
aS'a[1541]'
p1687
aS'a[3428]'
p1688
aS'a[2576]'
p1689
aS'a[35]'
p1690
aS'a[496]'
p1691
aS'a[3324]'
p1692
aS'a[5249]'
p1693
aS'a[1585]'
p1694
aS'a[201]'
p1695
aS'a[2682]'
p1696
aS'a[8653]'
p1697
aS'a[3173]'
p1698
aS'a[92]'
p1699
aS'a[8103]'
p1700
aS'a[92]'
p1701
aS'a[8559]'
p1702
aS'a[8541]'
p1703
aS'a[198]'
p1704
aS'a[2455]'
p1705
aS'a[1081]'
p1706
aS'a[2154]'
p1707
aS'a[6856]'
p1708
aS'a[33]'
p1709
aS'a[2683]'
p1710
aS'a[159]'
p1711
aS'a[1]'
p1712
aS'a[8103]'
p1713
aS'a[3510]'
p1714
aS'a[6871]'
p1715
aS'a[1585]'
p1716
aS'a[5851]'
p1717
aS'a[711]'
p1718
aS'a[3615]'
p1719
aS'a[8685]'
p1720
aS'a[8038]'
p1721
aS'a[1205]'
p1722
aS'a[566]'
p1723
aS'a[740]'
p1724
aS'a[7617]'
p1725
aS'a[1423]'
p1726
aS'a[3928]'
p1727
aS'a[2451]'
p1728
aS'a[155]'
p1729
aS'a[3502]'
p1730
aS'a[1092]'
p1731
aS'a[35]'
p1732
aS'a[1585]'
p1733
aS'a[2826]'
p1734
aS'a[2300]'
p1735
aS'a[6660]'
p1736
aS'a[310]'
p1737
aS'a[699]'
p1738
aS'a[24]'
p1739
aS'a[1964]'
p1740
aS'a[3072]'
p1741
aS'a[7854]'
p1742
aS'a[7625]'
p1743
aS'a[139]'
p1744
aS'a[3162]'
p1745
aS'a[6599]'
p1746
aS'a[2939]'
p1747
aS'a[589]'
p1748
aS'a[176]'
p1749
aS'a[2130]'
p1750
aS'a[1222]'
p1751
aS'a[9005]'
p1752
aS'a[5634]'
p1753
aS'a[23]'
p1754
aS'a[6194]'
p1755
aS'a[2939]'
p1756
aS'a[3776]'
p1757
aS'a[198]'
p1758
aS'a[647]'
p1759
aS'a[1092]'
p1760
aS'a[310]'
p1761
aS'a[7838]'
p1762
aS'a[1092]'
p1763
aS'a[956]'
p1764
aS'a[62]'
p1765
aS'a[8435]'
p1766
aS'a[0]'
p1767
aS'a[1696]'
p1768
aS'a[260]'
p1769
aS'a[8414]'
p1770
aS'a[4529]'
p1771
aS'a[258]'
p1772
aS'a[2335]'
p1773
aS'a[168]'
p1774
aS'a[699]'
p1775
aS'a[578]'
p1776
aS'a[22]'
p1777
aS'a[8123]'
p1778
aS'a[1]'
p1779
aS'a[1585]'
p1780
aS'a[1]'
p1781
aS'a[3063]'
p1782
aS'a[4529]'
p1783
aS'a[3]'
p1784
aS'a[8774]'
p1785
aS'a[3455]'
p1786
aS'a[9012]'
p1787
aS'a[605]'
p1788
aS'a[168]'
p1789
aS'a[5249]'
p1790
aS'a[8009]'
p1791
aS'a[3928]'
p1792
aS'a[3167]'
p1793
aS'a[7891]'
p1794
aS'a[155]'
p1795
aS'a[258]'
p1796
aS'a[301]'
p1797
aS'a[8038]'
p1798
aS'a[0]'
p1799
aS'a[8213]'
p1800
aS'a[1964]'
p1801
aS'a[253]'
p1802
aS'a[2818]'
p1803
aS'a[124]'
p1804
aS'a[711]'
p1805
aS'a[1082]'
p1806
aS'a[3928]'
p1807
aS'a[5106]'
p1808
aS'a[7158]'
p1809
aS'a[24]'
p1810
aS'a[2521]'
p1811
aS'a[4456]'
p1812
aS'a[1858]'
p1813
aS'a[8103]'
p1814
aS'a[957]'
p1815
aS'a[291]'
p1816
aS'a[303]'
p1817
aS'a[6255]'
p1818
aS'a[7998]'
p1819
aS'a[2222]'
p1820
aS'a[135]'
p1821
aS'a[2675]'
p1822
aS'a[1858]'
p1823
aS'a[6387]'
p1824
aS'a[155]'
p1825
aS'a[711]'
p1826
aS'a[46]'
p1827
aS'a[6627]'
p1828
aS'a[956]'
p1829
aS'a[1696]'
p1830
aS'a[0]'
p1831
aS'a[24]'
p1832
aS'a[0]'
p1833
aS'a[1257]'
p1834
aS'a[9060]'
p1835
aS'a[1]'
p1836
aS'a[6862]'
p1837
aS'a[155]'
p1838
aS'a[1081]'
p1839
aS'a[45]'
p1840
aS'a[8038]'
p1841
aS'a[6985]'
p1842
aS'a[8103]'
p1843
aS'a[2939]'
p1844
aS'a[1]'
p1845
aS'a[1155]'
p1846
aS'a[5412]'
p1847
aS'a[1935]'
p1848
aS'a[3]'
p1849
aS'a[2498]'
p1850
aS'a[3161]'
p1851
aS'a[168]'
p1852
aS'a[2915]'
p1853
aS'a[3112]'
p1854
aS'a[24]'
p1855
aS'a[4545]'
p1856
aS'a[4469]'
p1857
aS'a[2683]'
p1858
aS'a[303]'
p1859
aS'a[7365]'
p1860
aS'a[2300]'
p1861
aS'a[6152]'
p1862
aS'a[6806]'
p1863
aS'a[412]'
p1864
aS'a[1269]'
p1865
aS'a[260]'
p1866
aS'a[223]'
p1867
aS'a[4268]'
p1868
aS'a[3615]'
p1869
aS'a[2300]'
p1870
aS'a[2675]'
p1871
aS'a[2651]'
p1872
aS'a[301]'
p1873
aS'a[682]'
p1874
aS'a[2509]'
p1875
aS'a[3070]'
p1876
aS'a[35]'
p1877
aS'a[310]'
p1878
aS'a[350]'
p1879
aS'a[18]'
p1880
aS'a[3318]'
p1881
aS'a[2130]'
p1882
aS'a[1457]'
p1883
aS'a[24]'
p1884
aS'a[1341]'
p1885
aS'a[1081]'
p1886
aS'a[458]'
p1887
aS'a[1096]'
p1888
aS'a[4091]'
p1889
aS'a[7981]'
p1890
aS'a[61]'
p1891
aS'a[4157]'
p1892
aS'a[35]'
p1893
aS'a[350]'
p1894
aS'a[201]'
p1895
aS'a[4751]'
p1896
aS'a[517]'
p1897
aS'a[5689]'
p1898
aS'a[24]'
p1899
aS'a[682]'
p1900
aS'a[351]'
p1901
aS'a[62]'
p1902
aS'a[6181]'
p1903
aS'a[3130]'
p1904
aS'a[1921]'
p1905
aS'a[4775]'
p1906
aS'a[0]'
p1907
aS'a[2939]'
p1908
aS'a[2104]'
p1909
aS'a[176]'
p1910
aS'a[8023]'
p1911
aS'a[6566]'
p1912
aS'a[1058]'
p1913
aS'a[7718]'
p1914
aS'a[956]'
p1915
aS'a[46]'
p1916
aS'a[1]'
p1917
aS'a[1696]'
p1918
aS'a[3161]'
p1919
aS'a[749]'
p1920
aS'a[465]'
p1921
aS'a[8685]'
p1922
aS'a[3161]'
p1923
aS'a[6002]'
p1924
aS'a[3876]'
p1925
aS'a[821]'
p1926
aS'a[4674]'
p1927
aS'a[1494]'
p1928
aS'a[8955]'
p1929
aS'a[5884]'
p1930
aS'a[2129]'
p1931
aS'a[2655]'
p1932
aS'a[8683]'
p1933
aS'a[198]'
p1934
aS'a[23]'
p1935
aS'a[1130]'
p1936
aS'a[23]'
p1937
aS'a[24]'
p1938
aS'a[7622]'
p1939
aS'a[2683]'
p1940
aS'a[223]'
p1941
aS'a[168]'
p1942
aS'a[4529]'
p1943
aS'a[3070]'
p1944
aS'a[198]'
p1945
aS'a[1953]'
p1946
aS'a[1130]'
p1947
aS'a[711]'
p1948
aS'a[7840]'
p1949
aS'a[2300]'
p1950
aS'a[2000]'
p1951
aS'a[6108]'
p1952
aS'a[267]'
p1953
aS'a[8367]'
p1954
aS'a[4003]'
p1955
aS'a[191]'
p1956
aS'a[647]'
p1957
aS'a[3776]'
p1958
aS'a[1897]'
p1959
aS'a[310]'
p1960
aS'a[71]'
p1961
aS'a[6412]'
p1962
aS'a[8508]'
p1963
aS'a[8103]'
p1964
aS'a[6330]'
p1965
aS'a[1096]'
p1966
aS'a[2300]'
p1967
aS'a[4420]'
p1968
aS'a[531]'
p1969
aS'a[8420]'
p1970
aS'a[24]'
p1971
aS'a[5634]'
p1972
aS'a[605]'
p1973
aS'a[4058]'
p1974
aS'a[2888]'
p1975
aS'a[155]'
p1976
aS'a[56]'
p1977
aS'a[3095]'
p1978
aS'a[35]'
p1979
aS'a[3729]'
p1980
aS'a[18]'
p1981
aS'a[22]'
p1982
aS'a[0]'
p1983
aS'a[52]'
p1984
aS'a[4935]'
p1985
aS'a[45]'
p1986
aS'a[201]'
p1987
aS'a[3127]'
p1988
aS'a[1580]'
p1989
aS'a[808]'
p1990
aS'a[24]'
p1991
aS'a[5535]'
p1992
aS'a[33]'
p1993
aS'a[2939]'
p1994
aS'a[301]'
p1995
aS'a[62]'
p1996
aS'a[8783]'
p1997
aS'a[2857]'
p1998
aS'a[135]'
p1999
aS'a[1233]'
p2000
aS'a[8670]'
p2001
aS'a[8264]'
p2002
aS'a[6453]'
p2003
aS'a[988]'
p2004
aS'a[711]'
p2005
aS'a[3615]'
p2006
aS'a[22]'
p2007
aS'a[2683]'
p2008
aS'a[1]'
p2009
aS'a[6615]'
p2010
aS'a[7896]'
p2011
aS'a[8708]'
p2012
aS'a[4018]'
p2013
aS'a[2683]'
p2014
aS'a[2939]'
p2015
aS'a[605]'
p2016
aS'a[62]'
p2017
aS'a[732]'
p2018
aS'a[2300]'
p2019
aS'a[34]'
p2020
aS'a[23]'
p2021
aS'a[5044]'
p2022
aS'a[124]'
p2023
aS'a[4]'
p2024
aS'a[6837]'
p2025
aS'a[2177]'
p2026
aS'a[4318]'
p2027
aS'a[24]'
p2028
aS'a[5765]'
p2029
aS'a[6445]'
p2030
aS'a[3]'
p2031
aS'a[35]'
p2032
aS'a[1096]'
p2033
aS'a[62]'
p2034
aS'a[1]'
p2035
aS'a[618]'
p2036
aS'a[24]'
p2037
aS'a[3]'
p2038
aS'a[291]'
p2039
aS'a[8759]'
p2040
aS'a[9174]'
p2041
aS'a[682]'
p2042
aS'a[5306]'
p2043
aS'a[3070]'
p2044
aS'a[7293]'
p2045
aS'a[996]'
p2046
aS'a[2498]'
p2047
aS'a[3731]'
p2048
aS'a[1]'
p2049
aS'a[8863]'
p2050
aS'a[139]'
p2051
aS'a[18]'
p2052
aS'a[8009]'
p2053
aS'a[1082]'
p2054
aS'a[3063]'
p2055
aS'a[198]'
p2056
aS'a[35]'
p2057
aS'a[5234]'
p2058
aS'a[4018]'
p2059
aS'a[4]'
p2060
aS'a[1462]'
p2061
aS'a[35]'
p2062
aS'a[4847]'
p2063
aS'a[8579]'
p2064
aS'a[2939]'
p2065
aS'a[1732]'
p2066
aS'a[1807]'
p2067
aS'a[2410]'
p2068
aS'a[605]'
p2069
aS'a[892]'
p2070
aS'a[3908]'
p2071
aS'a[2232]'
p2072
aS'a[3010]'
p2073
aS'a[3502]'
p2074
aS'a[7157]'
p2075
aS'a[5249]'
p2076
aS'a[3]'
p2077
aS'a[5285]'
p2078
aS'a[198]'
p2079
aS'a[1571]'
p2080
aS'a[267]'
p2081
aS'a[3502]'
p2082
aS'a[24]'
p2083
aS'a[24]'
p2084
aS'a[8693]'
p2085
aS'a[5126]'
p2086
aS'a[3502]'
p2087
aS'a[201]'
p2088
aS'a[8253]'
p2089
aS'a[7273]'
p2090
aS'a[1585]'
p2091
aS'a[198]'
p2092
aS'a[8685]'
p2093
aS'a[618]'
p2094
aS'a[3070]'
p2095
aS'a[6166]'
p2096
aS'a[7869]'
p2097
aS'a[3928]'
p2098
aS'a[243]'
p2099
aS'a[1858]'
p2100
aS'a[6172]'
p2101
aS'a[458]'
p2102
aS'a[1182]'
p2103
aS'a[458]'
p2104
aS'a[6662]'
p2105
aS'a[475]'
p2106
aS'a[3]'
p2107
aS'a[8747]'
p2108
aS'a[985]'
p2109
aS'a[7476]'
p2110
aS'a[5249]'
p2111
aS'a[5245]'
p2112
aS'a[14]'
p2113
aS'a[298]'
p2114
aS'a[3780]'
p2115
aS'a[5249]'
p2116
aS'a[24]'
p2117
aS'a[6044]'
p2118
aS'a[2130]'
p2119
aS'a[1696]'
p2120
aS'a[7281]'
p2121
aS'a[24]'
p2122
aS'a[45]'
p2123
aS'a[6248]'
p2124
aS'a[1935]'
p2125
aS'a[5386]'
p2126
aS'a[33]'
p2127
aS'a[1092]'
p2128
aS'a[3849]'
p2129
aS'a[2683]'
p2130
aS'a[189]'
p2131
aS'a[1092]'
p2132
aS'a[7599]'
p2133
aS'a[5264]'
p2134
aS'a[3106]'
p2135
aS'a[3822]'
p2136
aS'a[3072]'
p2137
aS'a[5616]'
p2138
aS'a[3770]'
p2139
aS'a[1]'
p2140
aS'a[6484]'
p2141
aS'a[24]'
p2142
aS'a[71]'
p2143
aS'a[6506]'
p2144
aS'a[682]'
p2145
aS'a[2410]'
p2146
aS'a[139]'
p2147
aS'a[430]'
p2148
aS'a[298]'
p2149
aS'a[7186]'
p2150
aS'a[267]'
p2151
aS'a[223]'
p2152
aS'a[3063]'
p2153
aS'a[3162]'
p2154
aS'a[1]'
p2155
aS'a[2675]'
p2156
aS'a[1620]'
p2157
aS'a[2675]'
p2158
aS'a[0]'
p2159
aS'a[2675]'
p2160
aS'a[3161]'
p2161
aS'a[3415]'
p2162
aS'a[1081]'
p2163
aS'a[0]'
p2164
aS'a[234]'
p2165
aS'a[3072]'
p2166
aS'a[303]'
p2167
aS'a[2702]'
p2168
aS'a[755]'
p2169
aS'a[1148]'
p2170
aS'a[2655]'
p2171
aS'a[4529]'
p2172
aS'a[8685]'
p2173
aS'a[2611]'
p2174
aS'a[8270]'
p2175
aS'a[65]'
p2176
aS'a[6689]'
p2177
aS'a[24]'
p2178
aS'a[6866]'
p2179
aS'a[45]'
p2180
aS'a[1212]'
p2181
aS'a[414]'
p2182
aS'a[2445]'
p2183
aS'a[2675]'
p2184
aS'a[5622]'
p2185
aS'a[8685]'
p2186
aS'a[9072]'
p2187
aS'a[5764]'
p2188
aS'a[3063]'
p2189
aS'a[371]'
p2190
aS'a[24]'
p2191
aS'a[56]'
p2192
aS'a[3]'
p2193
aS'a[3927]'
p2194
aS'a[956]'
p2195
aS'a[850]'
p2196
aS'a[371]'
p2197
aS'a[3052]'
p2198
aS'a[2939]'
p2199
aS'a[5249]'
p2200
aS'a[8502]'
p2201
aS'a[24]'
p2202
aS'a[3772]'
p2203
aS'a[1580]'
p2204
aS'a[1]'
p2205
aS'a[3072]'
p2206
aS'a[5364]'
p2207
aS'a[2410]'
p2208
aS'a[574]'
p2209
aS'a[5944]'
p2210
aS'a[1674]'
p2211
aS'a[6506]'
p2212
aS'a[4158]'
p2213
aS'a[191]'
p2214
aS'a[2130]'
p2215
aS'a[8685]'
p2216
aS'a[4858]'
p2217
aS'a[5474]'
p2218
aS'a[35]'
p2219
aS'a[351]'
p2220
aS'a[8038]'
p2221
aS'a[2498]'
p2222
aS'a[804]'
p2223
aS'a[4853]'
p2224
aS'a[5558]'
p2225
aS'a[2939]'
p2226
aS'a[71]'
p2227
aS'a[5067]'
p2228
aS'a[4033]'
p2229
aS'a[266]'
p2230
aS'a[18]'
p2231
aS'a[0]'
p2232
aS'a[155]'
p2233
aS'a[3977]'
p2234
aS'a[45]'
p2235
aS'a[5249]'
p2236
aS'a[350]'
p2237
aS'a[135]'
p2238
aS'a[1096]'
p2239
aS'a[159]'
p2240
aS'a[1081]'
p2241
aS'a[18]'
p2242
aS'a[204]'
p2243
aS'a[24]'
p2244
aS'a[5106]'
p2245
aS'a[3908]'
p2246
aS'a[1]'
p2247
aS'a[2171]'
p2248
aS'a[303]'
p2249
aS'a[135]'
p2250
aS'a[7100]'
p2251
aS'a[1905]'
p2252
aS'a[699]'
p2253
aS'a[24]'
p2254
aS'a[8103]'
p2255
aS'a[5249]'
p2256
aS'a[5835]'
p2257
aS'a[201]'
p2258
aS'a[45]'
p2259
aS'a[3776]'
p2260
aS'a[2939]'
p2261
aS'a[666]'
p2262
aS'a[775]'
p2263
aS'a[4387]'
p2264
aS'a[149]'
p2265
aS'a[3615]'
p2266
aS'a[6248]'
p2267
aS'a[8809]'
p2268
aS'a[46]'
p2269
aS'a[56]'
p2270
aS'a[23]'
p2271
aS'a[258]'
p2272
aS'a[6691]'
p2273
aS'a[8685]'
p2274
aS'a[370]'
p2275
aS'a[3928]'
p2276
aS'a[2443]'
p2277
aS'a[2799]'
p2278
aS'a[956]'
p2279
aS'a[5106]'
p2280
aS'a[438]'
p2281
aS'a[2431]'
p2282
aS'a[2300]'
p2283
aS'a[618]'
p2284
aS'a[258]'
p2285
aS'a[1]'
p2286
aS'a[24]'
p2287
aS'a[2675]'
p2288
aS'a[35]'
p2289
aS'a[4018]'
p2290
aS'a[3162]'
p2291
aS'a[24]'
p2292
aS'a[1858]'
p2293
aS'a[7976]'
p2294
aS'a[8367]'
p2295
aS'a[4143]'
p2296
aS'a[310]'
p2297
aS'a[1257]'
p2298
aS'a[6285]'
p2299
aS'a[1092]'
p2300
aS'a[3908]'
p2301
aS'a[2385]'
p2302
aS'a[1541]'
p2303
aS'a[35]'
p2304
aS'a[4354]'
p2305
aS'a[726]'
p2306
aS'a[258]'
p2307
aS'a[3908]'
p2308
aS'a[4648]'
p2309
aS'a[3063]'
p2310
aS'a[4935]'
p2311
aS'a[24]'
p2312
aS'a[133]'
p2313
aS'a[1569]'
p2314
aS'a[4743]'
p2315
aS'a[155]'
p2316
aS'a[4154]'
p2317
aS'a[8464]'
p2318
aS'a[2363]'
p2319
aS'a[424]'
p2320
aS'a[14]'
p2321
aS'a[682]'
p2322
aS'a[2130]'
p2323
aS'a[56]'
p2324
aS'a[34]'
p2325
aS'a[4639]'
p2326
aS'a[2665]'
p2327
aS'a[3]'
p2328
aS'a[7714]'
p2329
aS'a[605]'
p2330
aS'a[1471]'
p2331
aS'a[2269]'
p2332
aS'a[92]'
p2333
aS'a[419]'
p2334
aS'a[532]'
p2335
aS'a[24]'
p2336
aS'a[4676]'
p2337
aS'a[9179]'
p2338
aS'a[2683]'
p2339
aS'a[92]'
p2340
aS'a[2683]'
p2341
aS'a[298]'
p2342
aS'a[2683]'
p2343
aS'a[2459]'
p2344
aS'a[155]'
p2345
aS'a[740]'
p2346
aS'a[139]'
p2347
aS'a[2675]'
p2348
aS'a[100]'
p2349
aS'a[6643]'
p2350
aS'a[6162]'
p2351
aS'a[458]'
p2352
aS'a[5106]'
p2353
aS'a[9121]'
p2354
aS'a[100]'
p2355
aS'a[8685]'
p2356
aS'a[1696]'
p2357
aS'a[2521]'
p2358
aS'a[1]'
p2359
aS'a[301]'
p2360
aS'a[7786]'
p2361
aS'a[5634]'
p2362
aS'a[33]'
p2363
aS'a[458]'
p2364
aS'a[1696]'
p2365
aS'a[1082]'
p2366
aS'a[100]'
p2367
aS'a[3952]'
p2368
aS'a[8524]'
p2369
aS'a[5201]'
p2370
aS'a[6508]'
p2371
aS'a[1580]'
p2372
aS'a[1807]'
p2373
aS'a[2566]'
p2374
aS'a[2642]'
p2375
aS'a[3801]'
p2376
aS'a[740]'
p2377
aS'a[62]'
p2378
aS'a[1480]'
p2379
aS'a[16]'
p2380
aS'a[3490]'
p2381
aS'a[1096]'
p2382
aS'a[740]'
p2383
aS'a[155]'
p2384
aS'a[3781]'
p2385
aS'a[1]'
p2386
aS'a[6377]'
p2387
aS'a[3286]'
p2388
aS'a[1]'
p2389
aS'a[1580]'
p2390
aS'a[2683]'
p2391
aS'a[2975]'
p2392
aS'a[191]'
p2393
aS'a[1035]'
p2394
aS'a[62]'
p2395
aS'a[2814]'
p2396
aS'a[7159]'
p2397
aS'a[5891]'
p2398
aS'a[3615]'
p2399
aS'a[24]'
p2400
aS'a[2130]'
p2401
aS'a[5312]'
p2402
aS'a[3537]'
p2403
aS'a[52]'
p2404
aS'a[8565]'
p2405
aS'a[61]'
p2406
aS'a[2683]'
p2407
aS'a[2485]'
p2408
aS'a[6165]'
p2409
aS'a[189]'
p2410
aS'a[3]'
p2411
aS'a[459]'
p2412
aS'a[417]'
p2413
aS'a[2039]'
p2414
aS'a[3260]'
p2415
aS'a[18]'
p2416
aS'a[267]'
p2417
aS'a[3928]'
p2418
aS'a[528]'
p2419
aS'a[4593]'
p2420
aS'a[4227]'
p2421
aS'a[3]'
p2422
aS'a[647]'
p2423
aS'a[4404]'
p2424
aS'a[5533]'
p2425
aS'a[3471]'
p2426
aS'a[749]'
p2427
aS'a[5408]'
p2428
aS'a[5829]'
p2429
aS'a[2337]'
p2430
aS'a[682]'
p2431
aS'a[8506]'
p2432
aS'a[1588]'
p2433
aS'a[5469]'
p2434
aS'a[1897]'
p2435
aS'a[438]'
p2436
aS'a[651]'
p2437
aS'a[682]'
p2438
aS'a[699]'
p2439
aS'a[3928]'
p2440
aS'a[155]'
p2441
aS'a[34]'
p2442
aS'a[62]'
p2443
aS'a[9163]'
p2444
aS'a[3063]'
p2445
aS'a[532]'
p2446
aS'a[6956]'
p2447
aS'a[4344]'
p2448
aS'a[8069]'
p2449
aS'a[301]'
p2450
aS'a[135]'
p2451
aS'a[46]'
p2452
aS'a[1]'
p2453
aS'a[682]'
p2454
aS'a[1082]'
p2455
aS'a[3908]'
p2456
aS'a[7099]'
p2457
aS'a[3042]'
p2458
aS'a[8605]'
p2459
aS'a[3731]'
p2460
aS'a[8009]'
p2461
aS'a[2655]'
p2462
aS'a[1585]'
p2463
aS'a[168]'
p2464
aS'a[2939]'
p2465
aS'a[532]'
p2466
aS'a[5662]'
p2467
aS'a[258]'
p2468
aS'a[1674]'
p2469
aS'a[35]'
p2470
aS'a[4639]'
p2471
aS'a[124]'
p2472
aS'a[834]'
p2473
aS'a[201]'
p2474
aS'a[2683]'
p2475
aS'a[2078]'
p2476
aS'a[2300]'
p2477
aS'a[2939]'
p2478
aS'a[24]'
p2479
aS'a[9166]'
p2480
aS'a[3609]'
p2481
aS'a[2675]'
p2482
aS'a[6108]'
p2483
aS'a[8852]'
p2484
aS'a[7919]'
p2485
aS'a[1184]'
p2486
aS'a[0]'
p2487
aS'a[2675]'
p2488
aS'a[2655]'
p2489
aS'a[2410]'
p2490
aS'a[740]'
p2491
aS'a[5634]'
p2492
aS'a[1696]'
p2493
aS'a[1]'
p2494
aS'a[92]'
p2495
aS'a[1225]'
p2496
aS'a[24]'
p2497
aS'a[24]'
p2498
aS'a[682]'
p2499
aS'a[5645]'
p2500
aS'a[4644]'
p2501
aS'a[4833]'
p2502
aS'a[5522]'
p2503
aS'a[2939]'
p2504
aS'a[3776]'
p2505
aS'a[3072]'
p2506
aS'a[647]'
p2507
aS'a[3908]'
p2508
aS'a[23]'
p2509
aS'a[2745]'
p2510
aS'a[1506]'
p2511
aS'a[682]'
p2512
aS'a[9115]'
p2513
aS'a[3590]'
p2514
aS'a[5800]'
p2515
aS'a[2068]'
p2516
aS'a[3485]'
p2517
aS'a[4125]'
p2518
aS'a[8470]'
p2519
aS'a[4639]'
p2520
aS'a[24]'
p2521
aS'a[1571]'
p2522
aS'a[4234]'
p2523
aS'a[8012]'
p2524
aS'a[1485]'
p2525
aS'a[2498]'
p2526
aS'a[1]'
p2527
aS'a[3]'
p2528
aS'a[4018]'
p2529
aS'a[6862]'
p2530
aS'a[1257]'
p2531
aS'a[3365]'
p2532
aS'a[6556]'
p2533
aS'a[682]'
p2534
aS'a[8103]'
p2535
aS'a[6092]'
p2536
aS'a[2498]'
p2537
aS'a[18]'
p2538
aS'a[56]'
p2539
aS'a[189]'
p2540
aS'a[1]'
p2541
aS'a[291]'
p2542
aS'a[956]'
p2543
aS'a[2300]'
p2544
aS'a[8009]'
p2545
aS'a[1096]'
p2546
aS'a[23]'
p2547
aS'a[5269]'
p2548
aS'a[3280]'
p2549
aS'a[3161]'
p2550
aS'a[243]'
p2551
aS'a[4529]'
p2552
aS'a[3697]'
p2553
aS'a[1082]'
p2554
aS'a[3162]'
p2555
aS'a[35]'
p2556
aS'a[3063]'
p2557
aS'a[682]'
p2558
aS'a[4077]'
p2559
aS'a[260]'
p2560
aS'a[4585]'
p2561
aS'a[5369]'
p2562
aS'a[3162]'
p2563
aS'a[2841]'
p2564
aS'a[4]'
p2565
aS'a[4869]'
p2566
aS'a[7328]'
p2567
aS'a[8102]'
p2568
aS'a[168]'
p2569
aS'a[555]'
p2570
aS'a[3502]'
p2571
aS'a[961]'
p2572
aS'a[2662]'
p2573
aS'a[34]'
p2574
aS'a[458]'
p2575
aS'a[52]'
p2576
aS'a[6074]'
p2577
aS'a[6725]'
p2578
aS'a[3162]'
p2579
aS'a[4917]'
p2580
aS'a[6973]'
p2581
aS'a[24]'
p2582
aS'a[92]'
p2583
aS'a[30]'
p2584
aS'a[3]'
p2585
aS'a[2675]'
p2586
aS'a[34]'
p2587
aS'a[2874]'
p2588
aS'a[139]'
p2589
aS'a[135]'
p2590
aS'a[2675]'
p2591
aS'a[682]'
p2592
aS'a[35]'
p2593
aS'a[243]'
p2594
aS'a[1]'
p2595
aS'a[4639]'
p2596
aS'a[4106]'
p2597
aS'a[1935]'
p2598
aS'a[8918]'
p2599
aS'a[155]'
p2600
aS'a[2675]'
p2601
aS'a[1580]'
p2602
aS'a[1541]'
p2603
aS'a[1096]'
p2604
aS'a[310]'
p2605
aS'a[3731]'
p2606
aS'a[2410]'
p2607
aS'a[740]'
p2608
aS'a[389]'
p2609
aS'a[5106]'
p2610
aS'a[476]'
p2611
aS'a[8201]'
p2612
aS'a[555]'
p2613
aS'a[14]'
p2614
aS'a[3072]'
p2615
aS'a[71]'
p2616
aS'a[2769]'
p2617
aS'a[2300]'
p2618
aS'a[2683]'
p2619
aS'a[34]'
p2620
aS'a[3928]'
p2621
aS'a[267]'
p2622
aS'a[5194]'
p2623
aS'a[2683]'
p2624
aS'a[4935]'
p2625
aS'a[8965]'
p2626
aS'a[663]'
p2627
aS'a[7194]'
p2628
aS'a[1580]'
p2629
aS'a[458]'
p2630
aS'a[4070]'
p2631
aS'a[6433]'
p2632
aS'a[155]'
p2633
aS'a[23]'
p2634
aS'a[4483]'
p2635
aS'a[303]'
p2636
aS'a[1585]'
p2637
aS'a[1580]'
p2638
aS'a[6297]'
p2639
aS'a[301]'
p2640
aS'a[201]'
p2641
aS'a[18]'
p2642
aS'a[34]'
p2643
aS'a[3375]'
p2644
aS'a[35]'
p2645
aS'a[2521]'
p2646
aS'a[2655]'
p2647
aS'a[2129]'
p2648
aS'a[3072]'
p2649
aS'a[2557]'
p2650
aS'a[24]'
p2651
aS'a[4482]'
p2652
aS'a[46]'
p2653
aS'a[863]'
p2654
aS'a[722]'
p2655
aS'a[62]'
p2656
aS'a[8038]'
p2657
aS'a[458]'
p2658
aS'a[1081]'
p2659
aS'a[458]'
p2660
aS'a[7224]'
p2661
aS'a[438]'
p2662
aS'a[3161]'
p2663
aS'a[1]'
p2664
aS'a[2939]'
p2665
aS'a[62]'
p2666
aS'a[46]'
p2667
aS'a[6841]'
p2668
aS'a[4857]'
p2669
aS'a[1585]'
p2670
aS'a[4350]'
p2671
aS'a[3]'
p2672
aS'a[8254]'
p2673
aS'a[2677]'
p2674
aS'a[6241]'
p2675
aS'a[3942]'
p2676
aS'a[18]'
p2677
aS'a[8556]'
p2678
aS'a[997]'
p2679
aS'a[159]'
p2680
aS'a[24]'
p2681
aS'a[1897]'
p2682
aS'a[3]'
p2683
aS'a[6644]'
p2684
aS'a[2717]'
p2685
aS'a[3800]'
p2686
aS'a[62]'
p2687
aS'a[645]'
p2688
aS'a[1092]'
p2689
aS'a[7369]'
p2690
aS'a[3072]'
p2691
aS'a[2238]'
p2692
aS'a[46]'
p2693
aS'a[2521]'
p2694
aS'a[260]'
p2695
aS'a[1585]'
p2696
aS'a[1]'
p2697
aS'a[7428]'
p2698
aS'a[7158]'
p2699
aS'a[4529]'
p2700
aS'a[2521]'
p2701
aS'a[62]'
p2702
aS'a[8685]'
p2703
aS'a[682]'
p2704
aS'a[6042]'
p2705
aS'a[8103]'
p2706
aS'a[124]'
p2707
aS'a[3776]'
p2708
aS'a[1906]'
p2709
aS'a[18]'
p2710
aS'a[1096]'
p2711
aS'a[7914]'
p2712
aS'a[3]'
p2713
aS'a[61]'
p2714
aS'a[458]'
p2715
aS'a[555]'
p2716
aS'a[6812]'
p2717
aS'a[124]'
p2718
aS'a[2088]'
p2719
aS'a[500]'
p2720
aS'a[3644]'
p2721
aS'a[1580]'
p2722
aS'a[2683]'
p2723
aS'a[4807]'
p2724
aS'a[3]'
p2725
aS'a[24]'
p2726
aS'a[298]'
p2727
aS'a[3657]'
p2728
aS'a[46]'
p2729
aS'a[3148]'
p2730
aS'a[2410]'
p2731
aS'a[5560]'
p2732
aS'a[371]'
p2733
aS'a[24]'
p2734
aS'a[2939]'
p2735
aS'a[3908]'
p2736
aS'a[5233]'
p2737
aS'a[5106]'
p2738
aS'a[7040]'
p2739
aS'a[3584]'
p2740
aS'a[3]'
p2741
aS'a[4749]'
p2742
aS'a[5853]'
p2743
aS'a[723]'
p2744
aS'a[46]'
p2745
aS'a[3070]'
p2746
aS'a[622]'
p2747
aS'a[4248]'
p2748
aS'a[1891]'
p2749
aS'a[3776]'
p2750
aS'a[7369]'
p2751
aS'a[1897]'
p2752
aS'a[3765]'
p2753
aS'a[24]'
p2754
aS'a[3671]'
p2755
aS'a[1962]'
p2756
aS'a[618]'
p2757
aS'a[3763]'
p2758
aS'a[8076]'
p2759
aS'a[4529]'
p2760
aS'a[2568]'
p2761
aS'a[168]'
p2762
aS'a[2939]'
p2763
aS'a[4694]'
p2764
aS'a[4037]'
p2765
aS'a[3072]'
p2766
aS'a[3502]'
p2767
aS'a[5242]'
p2768
aS'a[6690]'
p2769
aS'a[647]'
p2770
aS'a[2598]'
p2771
aS'a[52]'
p2772
aS'a[2675]'
p2773
aS'a[0]'
p2774
aS'a[5760]'
p2775
aS'a[8256]'
p2776
aS'a[3216]'
p2777
aS'a[501]'
p2778
aS'a[1082]'
p2779
aS'a[155]'
p2780
aS'a[1807]'
p2781
aS'a[4724]'
p2782
aS'a[3731]'
p2783
aS'a[1]'
p2784
aS'a[7630]'
p2785
aS'a[6797]'
p2786
aS'a[3]'
p2787
aS'a[124]'
p2788
aS'a[5634]'
p2789
aS'a[2134]'
p2790
aS'a[8345]'
p2791
aS'a[155]'
p2792
aS'a[310]'
p2793
aS'a[155]'
p2794
aS'a[46]'
p2795
aS'a[3465]'
p2796
aS'a[4271]'
p2797
aS'a[1935]'
p2798
aS'a[2975]'
p2799
aS'a[400]'
p2800
aS'a[350]'
p2801
aS'a[3385]'
p2802
aS'a[1092]'
p2803
aS'a[2633]'
p2804
aS'a[8009]'
p2805
aS'a[1287]'
p2806
aS'a[267]'
p2807
aS'a[1096]'
p2808
aS'a[4639]'
p2809
aS'a[1010]'
p2810
aS'a[5724]'
p2811
aS'a[3615]'
p2812
aS'a[35]'
p2813
aS'a[135]'
p2814
aS'a[2675]'
p2815
aS'a[3731]'
p2816
aS'a[8685]'
p2817
aS'a[61]'
p2818
aS'a[4715]'
p2819
aS'a[168]'
p2820
aS'a[1263]'
p2821
aS'a[7847]'
p2822
aS'a[4389]'
p2823
aS'a[24]'
p2824
aS'a[22]'
p2825
aS'a[2079]'
p2826
aS'a[2130]'
p2827
aS'a[18]'
p2828
aS'a[2028]'
p2829
aS'a[6835]'
p2830
aS'a[71]'
p2831
aS'a[3]'
p2832
aS'a[2382]'
p2833
aS'a[3167]'
p2834
aS'a[3072]'
p2835
aS'a[3072]'
p2836
aS'a[605]'
p2837
aS'a[8685]'
p2838
aS'a[5525]'
p2839
aS'a[5106]'
p2840
aS'a[8281]'
p2841
aS'a[5249]'
p2842
aS'a[301]'
p2843
aS'a[8872]'
p2844
aS'a[267]'
p2845
aS'a[6816]'
p2846
aS'a[5030]'
p2847
aS'a[1541]'
p2848
aS'a[5551]'
p2849
aS'a[8459]'
p2850
aS'a[3908]'
p2851
aS'a[1541]'
p2852
aS'a[4529]'
p2853
aS'a[350]'
p2854
aS'a[4529]'
p2855
aS'a[1935]'
p2856
aS'a[267]'
p2857
aS'a[699]'
p2858
aS'a[8168]'
p2859
aS'a[3615]'
p2860
aS'a[1019]'
p2861
aS'a[3070]'
p2862
aS'a[6432]'
p2863
aS'a[155]'
p2864
aS'a[717]'
p2865
aS'a[191]'
p2866
aS'a[7015]'
p2867
aS'a[34]'
p2868
aS'a[682]'
p2869
aS'a[4]'
p2870
aS'a[988]'
p2871
aS'a[332]'
p2872
aS'a[4306]'
p2873
aS'a[0]'
p2874
aS'a[4437]'
p2875
aS'a[1844]'
p2876
aS'a[3300]'
p2877
aS'a[135]'
p2878
aS'a[663]'
p2879
aS'a[23]'
p2880
aS'a[2460]'
p2881
aS'a[1257]'
p2882
aS'a[3908]'
p2883
aS'a[2410]'
p2884
aS'a[618]'
p2885
aS'a[2683]'
p2886
aS'a[3682]'
p2887
aS'a[3]'
p2888
aS'a[371]'
p2889
aS'a[1749]'
p2890
aS'a[5497]'
p2891
aS'a[1807]'
p2892
aS'a[168]'
p2893
aS'a[2130]'
p2894
aS'a[3]'
p2895
aS'a[2683]'
p2896
aS'a[2521]'
p2897
aS'a[3070]'
p2898
aS'a[8103]'
p2899
aS'a[62]'
p2900
aS'a[1696]'
p2901
aS'a[291]'
p2902
aS'a[541]'
p2903
aS'a[2130]'
p2904
aS'a[2935]'
p2905
aS'a[555]'
p2906
aS'a[3615]'
p2907
aS'a[3439]'
p2908
aS'a[2675]'
p2909
aS'a[2130]'
p2910
aS'a[2392]'
p2911
aS'a[155]'
p2912
aS'a[45]'
p2913
aS'a[1426]'
p2914
aS'a[7744]'
p2915
aS'a[24]'
p2916
aS'a[3490]'
p2917
aS'a[310]'
p2918
aS'a[198]'
p2919
aS'a[8797]'
p2920
aS'a[4163]'
p2921
aS'a[350]'
p2922
aS'a[5082]'
p2923
aS'a[5610]'
p2924
aS'a[4018]'
p2925
aS'a[1935]'
p2926
aS'a[18]'
p2927
aS'a[9178]'
p2928
aS'a[532]'
p2929
aS'a[371]'
p2930
aS'a[7113]'
p2931
aS'a[1580]'
p2932
aS'a[2675]'
p2933
aS'a[2887]'
p2934
aS'a[4935]'
p2935
aS'a[2130]'
p2936
aS'a[489]'
p2937
aS'a[3776]'
p2938
aS'a[4000]'
p2939
aS'a[267]'
p2940
aS'a[4522]'
p2941
aS'a[458]'
p2942
aS'a[4639]'
p2943
aS'a[18]'
p2944
aS'a[0]'
p2945
aS'a[139]'
p2946
aS'a[350]'
p2947
aS'a[1296]'
p2948
aS'a[1897]'
p2949
aS'a[2498]'
p2950
aS'a[18]'
p2951
aS'a[18]'
p2952
aS'a[4529]'
p2953
aS'a[18]'
p2954
aS'a[458]'
p2955
aS'a[5634]'
p2956
aS'a[496]'
p2957
aS'a[168]'
p2958
aS'a[5058]'
p2959
aS'a[2137]'
p2960
aS'a[1263]'
p2961
aS'a[1263]'
p2962
aS'a[8836]'
p2963
aS'a[1]'
p2964
aS'a[8038]'
p2965
aS'a[9130]'
p2966
aS'a[38]'
p2967
aS'a[2798]'
p2968
aS'a[3986]'
p2969
aS'a[2410]'
p2970
aS'a[1754]'
p2971
aS'a[7064]'
p2972
aS'a[1858]'
p2973
aS'a[1858]'
p2974
aS'a[34]'
p2975
aS'a[682]'
p2976
aS'a[5106]'
p2977
aS'a[301]'
p2978
aS'a[7774]'
p2979
aS'a[3908]'
p2980
aS'a[8829]'
p2981
aS'a[2683]'
p2982
aS'a[371]'
p2983
aS'a[1506]'
p2984
aS'a[1092]'
p2985
aS'a[8025]'
p2986
aS'a[8708]'
p2987
aS'a[3731]'
p2988
aS'a[4567]'
p2989
aS'a[3928]'
p2990
aS'a[4935]'
p2991
aS'a[1082]'
p2992
aS'a[0]'
p2993
aS'a[135]'
p2994
aS'a[1805]'
p2995
aS'a[0]'
p2996
aS'a[8919]'
p2997
aS'a[1410]'
p2998
aS'a[6187]'
p2999
aS'a[3601]'
p3000
aS'a[5249]'
p3001
aS'a[956]'
p3002
aS'a[5634]'
p3003
aS'a[5106]'
p3004
aS'a[1558]'
p3005
aS'a[8782]'
p3006
aS'a[1585]'
p3007
aS'a[311]'
p3008
aS'a[5634]'
p3009
aS'a[2521]'
p3010
aS'a[92]'
p3011
aS'a[4779]'
p3012
aS'a[3719]'
p3013
aS'a[258]'
p3014
aS'a[2809]'
p3015
aS'a[1541]'
p3016
aS'a[2683]'
p3017
aS'a[0]'
p3018
aS'a[168]'
p3019
aS'a[3928]'
p3020
aS'a[3072]'
p3021
aS'a[4323]'
p3022
aS'a[6203]'
p3023
aS'a[298]'
p3024
aS'a[9085]'
p3025
aS'a[3615]'
p3026
aS'a[3776]'
p3027
aS'a[22]'
p3028
aS'a[310]'
p3029
aS'a[1016]'
p3030
aS'a[24]'
p3031
aS'a[258]'
p3032
aS'a[62]'
p3033
aS'a[414]'
p3034
aS'a[149]'
p3035
aS'a[647]'
p3036
aS'a[7142]'
p3037
aS'a[350]'
p3038
aS'a[8173]'
p3039
aS'a[5917]'
p3040
aS'a[647]'
p3041
aS'a[8883]'
p3042
aS'a[139]'
p3043
aS'a[988]'
p3044
aS'a[2683]'
p3045
aS'a[223]'
p3046
aS'a[2241]'
p3047
aS'a[92]'
p3048
aS'a[5109]'
p3049
aS'a[4619]'
p3050
aS'a[711]'
p3051
aS'a[6356]'
p3052
aS'a[371]'
p3053
aS'a[24]'
p3054
aS'a[3]'
p3055
aS'a[159]'
p3056
aS'a[4061]'
p3057
aS'a[6039]'
p3058
aS'a[8685]'
p3059
aS'a[24]'
p3060
aS'a[8048]'
p3061
aS'a[5634]'
p3062
aS'a[7952]'
p3063
aS'a[3908]'
p3064
aS'a[682]'
p3065
aS'a[2939]'
p3066
aS'a[301]'
p3067
aS'a[2939]'
p3068
aS'a[1]'
p3069
aS'a[46]'
p3070
aS'a[8103]'
p3071
aS'a[8721]'
p3072
aS'a[5231]'
p3073
aS'a[7725]'
p3074
aS'a[618]'
p3075
aS'a[1]'
p3076
aS'a[682]'
p3077
aS'a[8245]'
p3078
aS'a[682]'
p3079
aS'a[532]'
p3080
aS'a[100]'
p3081
aS'a[135]'
p3082
aS'a[8769]'
p3083
aS'a[749]'
p3084
aS'a[62]'
p3085
aS'a[5984]'
p3086
aS'a[350]'
p3087
aS'a[6524]'
p3088
aS'a[5908]'
p3089
aS'a[1541]'
p3090
aS'a[35]'
p3091
aS'a[2394]'
p3092
aS'a[62]'
p3093
aS'a[8824]'
p3094
aS'a[5825]'
p3095
aS'a[7923]'
p3096
aS'a[2300]'
p3097
aS'a[56]'
p3098
aS'a[3070]'
p3099
aS'a[24]'
p3100
aS'a[1585]'
p3101
aS'a[3674]'
p3102
aS'a[6230]'
p3103
aS'a[618]'
p3104
aS'a[2300]'
p3105
aS'a[3]'
p3106
aS'a[14]'
p3107
aS'a[5234]'
p3108
aS'a[4935]'
p3109
aS'a[0]'
p3110
aS'a[3908]'
p3111
aS'a[8038]'
p3112
aS'a[4180]'
p3113
aS'a[2738]'
p3114
aS'a[3776]'
p3115
aS'a[4878]'
p3116
aS'a[5249]'
p3117
aS'a[7867]'
p3118
aS'a[100]'
p3119
aS'a[880]'
p3120
aS'a[34]'
p3121
aS'a[8605]'
p3122
aS'a[618]'
p3123
aS'a[1]'
p3124
aS'a[399]'
p3125
aS'a[6355]'
p3126
aS'a[52]'
p3127
aS'a[8103]'
p3128
aS'a[555]'
p3129
aS'a[3651]'
p3130
aS'a[160]'
p3131
aS'a[618]'
p3132
aS'a[1]'
p3133
aS'a[124]'
p3134
aS'a[8451]'
p3135
aS'a[24]'
p3136
aS'a[4687]'
p3137
aS'a[8009]'
p3138
aS'a[5301]'
p3139
aS'a[3]'
p3140
aS'a[92]'
p3141
aS'a[8009]'
p3142
aS'a[189]'
p3143
aS'a[4935]'
p3144
aS'a[3455]'
p3145
aS'a[4018]'
p3146
aS'a[291]'
p3147
aS'a[5133]'
p3148
aS'a[92]'
p3149
aS'a[22]'
p3150
aS'a[682]'
p3151
aS'a[310]'
p3152
aS'a[647]'
p3153
aS'a[267]'
p3154
aS'a[1915]'
p3155
aS'a[8317]'
p3156
aS'a[8338]'
p3157
aS'a[2939]'
p3158
aS'a[3731]'
p3159
aS'a[766]'
p3160
aS'a[2634]'
p3161
aS'a[62]'
p3162
aS'a[8103]'
p3163
aS'a[3750]'
p3164
aS'a[5634]'
p3165
aS'a[2130]'
p3166
aS'a[5809]'
p3167
aS'a[2847]'
p3168
aS'a[24]'
p3169
aS'a[8009]'
p3170
aS'a[3720]'
p3171
aS'a[8685]'
p3172
aS'a[8620]'
p3173
aS'a[5473]'
p3174
aS'a[6444]'
p3175
aS'a[4639]'
p3176
aS'a[14]'
p3177
aS'a[3558]'
p3178
aS'a[2300]'
p3179
aS'a[24]'
p3180
aS'a[6899]'
p3181
aS'a[8970]'
p3182
aS'a[2395]'
p3183
aS'a[1897]'
p3184
aS'a[6846]'
p3185
aS'a[4020]'
p3186
aS'a[7313]'
p3187
aS'a[3837]'
p3188
aS'a[4529]'
p3189
aS'a[4903]'
p3190
aS'a[1897]'
p3191
aS'a[34]'
p3192
aS'a[8855]'
p3193
aS'a[2300]'
p3194
aS'a[7041]'
p3195
aS'a[258]'
p3196
aS'a[18]'
p3197
aS'a[1858]'
p3198
aS'a[6613]'
p3199
aS'a[3]'
p3200
aS'a[5409]'
p3201
aS'a[1082]'
p3202
aS'a[2411]'
p3203
aS'a[159]'
p3204
aS'a[5248]'
p3205
aS'a[6067]'
p3206
aS'a[6510]'
p3207
aS'a[298]'
p3208
aS'a[3072]'
p3209
aS'a[24]'
p3210
aS'a[22]'
p3211
aS'a[458]'
p3212
aS'a[3]'
p3213
aS'a[1858]'
p3214
aS'a[1]'
p3215
aS'a[381]'
p3216
aS'a[956]'
p3217
aS'a[2300]'
p3218
aS'a[2053]'
p3219
aS'a[310]'
p3220
aS'a[6857]'
p3221
aS'a[2498]'
p3222
aS'a[438]'
p3223
aS'a[34]'
p3224
aS'a[988]'
p3225
aS'a[3]'
p3226
aS'a[7511]'
p3227
aS'a[310]'
p3228
aS'a[7595]'
p3229
aS'a[4222]'
p3230
aS'a[1585]'
p3231
aS'a[2939]'
p3232
aS'a[749]'
p3233
aS'a[243]'
p3234
aS'a[301]'
p3235
aS'a[2698]'
p3236
aS'a[988]'
p3237
aS'a[2521]'
p3238
aS'a[341]'
p3239
aS'a[168]'
p3240
aS'a[731]'
p3241
aS'a[5182]'
p3242
aS'a[23]'
p3243
aS'a[351]'
p3244
aS'a[4529]'
p3245
aS'a[291]'
p3246
aS'a[46]'
p3247
aS'a[301]'
p3248
aS'a[532]'
p3249
aS'a[52]'
p3250
aS'a[267]'
p3251
aS'a[5943]'
p3252
aS'a[414]'
p3253
aS'a[135]'
p3254
aS'a[3]'
p3255
aS'a[18]'
p3256
aS'a[4045]'
p3257
aS'a[45]'
p3258
aS'a[4529]'
p3259
aS'a[2824]'
p3260
aS'a[682]'
p3261
aS'a[243]'
p3262
aS'a[24]'
p3263
aS'a[1897]'
p3264
aS'a[699]'
p3265
aS'a[1975]'
p3266
aS'a[3502]'
p3267
aS'a[3072]'
p3268
aS'a[2353]'
p3269
aS'a[3928]'
p3270
aS'a[1541]'
p3271
aS'a[2683]'
p3272
aS'a[8905]'
p3273
aS'a[2218]'
p3274
aS'a[1]'
p3275
aS'a[8832]'
p3276
aS'a[4018]'
p3277
aS'a[8989]'
p3278
aS'a[2130]'
p3279
aS'a[2711]'
p3280
aS'a[4935]'
p3281
aS'a[484]'
p3282
aS'a[7441]'
p3283
aS'a[1490]'
p3284
aS'a[6067]'
p3285
aS'a[1076]'
p3286
aS'a[740]'
p3287
aS'a[35]'
p3288
aS'a[8103]'
p3289
aS'a[24]'
p3290
aS'a[5918]'
p3291
aS'a[682]'
p3292
aS'a[5536]'
p3293
aS'a[35]'
p3294
aS'a[7596]'
p3295
aS'a[618]'
p3296
aS'a[4219]'
p3297
aS'a[618]'
p3298
aS'a[1096]'
p3299
aS'a[33]'
p3300
aS'a[291]'
p3301
aS'a[3776]'
p3302
aS'a[682]'
p3303
aS'a[350]'
p3304
aS'a[147]'
p3305
aS'a[3]'
p3306
aS'a[4956]'
p3307
aS'a[3]'
p3308
aS'a[618]'
p3309
aS'a[5549]'
p3310
aS'a[647]'
p3311
aS'a[24]'
p3312
aS'a[24]'
p3313
aS'a[5766]'
p3314
aS'a[7202]'
p3315
aS'a[1747]'
p3316
aS'a[1477]'
p3317
aS'a[1082]'
p3318
aS'a[139]'
p3319
aS'a[2939]'
p3320
aS'a[1081]'
p3321
aS'a[1]'
p3322
aS'a[135]'
p3323
aS'a[647]'
p3324
aS'a[3072]'
p3325
aS'a[22]'
p3326
aS'a[1604]'
p3327
aS'a[267]'
p3328
aS'a[8103]'
p3329
aS'a[6133]'
p3330
aS'a[3183]'
p3331
aS'a[2675]'
p3332
aS'a[52]'
p3333
aS'a[5397]'
p3334
aS'a[6562]'
p3335
aS'a[298]'
p3336
aS'a[34]'
p3337
aS'a[8522]'
p3338
aS'a[3]'
p3339
aS'a[3]'
p3340
aS'a[3161]'
p3341
aS'a[2506]'
p3342
aS'a[749]'
p3343
aS'a[7121]'
p3344
aS'a[2683]'
p3345
aS'a[6458]'
p3346
aS'a[56]'
p3347
aS'a[24]'
p3348
aS'a[2013]'
p3349
aS'a[532]'
p3350
aS'a[301]'
p3351
aS'a[38]'
p3352
aS'a[3070]'
p3353
aS'a[371]'
p3354
aS'a[1082]'
p3355
aS'a[682]'
p3356
aS'a[4381]'
p3357
aS'a[8009]'
p3358
aS'a[291]'
p3359
aS'a[35]'
p3360
aS'a[198]'
p3361
aS'a[3502]'
p3362
aS'a[100]'
p3363
aS'a[2939]'
p3364
aS'a[634]'
p3365
aS'a[18]'
p3366
aS'a[33]'
p3367
aS'a[5634]'
p3368
aS'a[1341]'
p3369
aS'a[5460]'
p3370
aS'a[14]'
p3371
aS'a[52]'
p3372
aS'a[6596]'
p3373
aS'a[6163]'
p3374
aS'a[4467]'
p3375
aS'a[35]'
p3376
aS'a[961]'
p3377
aS'a[4]'
p3378
aS'a[2525]'
p3379
aS'a[18]'
p3380
aS'a[61]'
p3381
aS'a[4782]'
p3382
aS'a[198]'
p3383
aS'a[647]'
p3384
aS'a[3253]'
p3385
aS'a[532]'
p3386
aS'a[3037]'
p3387
aS'a[682]'
p3388
aS'a[0]'
p3389
aS'a[92]'
p3390
aS'a[1477]'
p3391
aS'a[8445]'
p3392
aS'a[139]'
p3393
aS'a[3615]'
p3394
aS'a[4207]'
p3395
aS'a[34]'
p3396
aS'a[7996]'
p3397
aS'a[7068]'
p3398
aS'a[2451]'
p3399
aS'a[6702]'
p3400
aS'a[5539]'
p3401
aS'a[24]'
p3402
aS'a[6640]'
p3403
aS'a[1223]'
p3404
aS'a[0]'
p3405
aS'a[34]'
p3406
aS'a[159]'
p3407
aS'a[2758]'
p3408
aS'a[62]'
p3409
aS'a[3072]'
p3410
aS'a[618]'
p3411
aS'a[310]'
p3412
aS'a[5830]'
p3413
aS'a[2486]'
p3414
aS'a[198]'
p3415
aS'a[4639]'
p3416
aS'a[1807]'
p3417
aS'a[682]'
p3418
aS'a[7983]'
p3419
aS'a[4062]'
p3420
aS'a[61]'
p3421
aS'a[258]'
p3422
aS'a[46]'
p3423
aS'a[63]'
p3424
aS'a[3]'
p3425
aS'a[291]'
p3426
aS'a[367]'
p3427
aS'a[5543]'
p3428
aS'a[7343]'
p3429
aS'a[35]'
p3430
aS'a[5106]'
p3431
aS'a[3593]'
p3432
aS'a[3836]'
p3433
aS'a[2675]'
p3434
aS'a[1334]'
p3435
aS'a[1696]'
p3436
aS'a[105]'
p3437
aS'a[3070]'
p3438
aS'a[2521]'
p3439
aS'a[3677]'
p3440
aS'a[2583]'
p3441
aS'a[35]'
p3442
aS'a[3063]'
p3443
aS'a[2272]'
p3444
aS'a[8800]'
p3445
aS'a[651]'
p3446
aS'a[8233]'
p3447
aS'a[2234]'
p3448
aS'a[3072]'
p3449
aS'a[3]'
p3450
aS'a[6152]'
p3451
aS'a[682]'
p3452
aS'a[1096]'
p3453
aS'a[605]'
p3454
aS'a[2683]'
p3455
aS'a[3908]'
p3456
aS'a[5121]'
p3457
aS'a[301]'
p3458
aS'a[711]'
p3459
aS'a[4639]'
p3460
aS'a[22]'
p3461
aS'a[740]'
p3462
aS'a[445]'
p3463
aS'a[458]'
p3464
aS'a[168]'
p3465
aS'a[4935]'
p3466
aS'a[0]'
p3467
aS'a[3330]'
p3468
aS'a[1081]'
p3469
aS'a[5932]'
p3470
aS'a[899]'
p3471
aS'a[4709]'
p3472
aS'a[189]'
p3473
aS'a[458]'
p3474
aS'a[6007]'
p3475
aS'a[7360]'
p3476
aS'a[272]'
p3477
aS'a[3]'
p3478
aS'a[9050]'
p3479
aS'a[52]'
p3480
aS'a[749]'
p3481
aS'a[1096]'
p3482
aS'a[34]'
p3483
aS'a[62]'
p3484
aS'a[2521]'
p3485
aS'a[2313]'
p3486
aS'a[7831]'
p3487
aS'a[3519]'
p3488
aS'a[8560]'
p3489
aS'a[3895]'
p3490
aS'a[201]'
p3491
aS'a[438]'
p3492
aS'a[223]'
p3493
aS'a[24]'
p3494
aS'a[711]'
p3495
aS'a[62]'
p3496
aS'a[7753]'
p3497
aS'a[3867]'
p3498
aS'a[8083]'
p3499
aS'a[6326]'
p3500
aS'a[52]'
p3501
aS'a[4289]'
p3502
aS'a[8009]'
p3503
aS'a[4138]'
p3504
aS'a[4935]'
p3505
aS'a[2939]'
p3506
aS'a[2939]'
p3507
aS'a[3072]'
p3508
aS'a[3615]'
p3509
aS'a[6312]'
p3510
aS'a[532]'
p3511
aS'a[3278]'
p3512
aS'a[2675]'
p3513
aS'a[744]'
p3514
aS'a[1257]'
p3515
aS'a[351]'
p3516
aS'a[24]'
p3517
aS'a[14]'
p3518
aS'a[2130]'
p3519
aS'a[7828]'
p3520
aS'a[691]'
p3521
aS'a[7335]'
p3522
aS'a[291]'
p3523
aS'a[6110]'
p3524
aS'a[350]'
p3525
aS'a[2655]'
p3526
aS'a[124]'
p3527
aS'a[3161]'
p3528
aS'a[3080]'
p3529
aS'a[310]'
p3530
aS'a[772]'
p3531
aS'a[0]'
p3532
aS'a[310]'
p3533
aS'a[6168]'
p3534
aS'a[2498]'
p3535
aS'a[6493]'
p3536
aS'a[267]'
p3537
aS'a[46]'
p3538
aS'a[1428]'
p3539
aS'a[1130]'
p3540
aS'a[46]'
p3541
aS'a[1081]'
p3542
aS'a[8620]'
p3543
aS'a[185]'
p3544
aS'a[2498]'
p3545
aS'a[1858]'
p3546
aS'a[1080]'
p3547
aS'a[45]'
p3548
aS'a[5360]'
p3549
aS'a[56]'
p3550
aS'a[3161]'
p3551
aS'a[749]'
p3552
aS'a[699]'
p3553
aS'a[8952]'
p3554
aS'a[2300]'
p3555
aS'a[1828]'
p3556
aS'a[4806]'
p3557
aS'a[1]'
p3558
aS'a[6086]'
p3559
aS'a[4005]'
p3560
aS'a[24]'
p3561
aS'a[6905]'
p3562
aS'a[62]'
p3563
aS'a[882]'
p3564
aS'a[6699]'
p3565
aS'a[258]'
p3566
aS'a[5634]'
p3567
aS'a[0]'
p3568
aS'a[682]'
p3569
aS'a[301]'
p3570
aS'a[1092]'
p3571
aS'a[1935]'
p3572
aS'a[1580]'
p3573
aS'a[8009]'
p3574
aS'a[4639]'
p3575
aS'a[100]'
p3576
aS'a[7051]'
p3577
aS'a[376]'
p3578
aS'a[350]'
p3579
aS'a[23]'
p3580
aS'a[24]'
p3581
aS'a[532]'
p3582
aS'a[749]'
p3583
aS'a[1897]'
p3584
aS'a[1580]'
p3585
aS'a[4855]'
p3586
aS'a[1858]'
p3587
aS'a[2683]'
p3588
aS'a[855]'
p3589
aS'a[682]'
p3590
aS'a[4163]'
p3591
aS'a[3428]'
p3592
aS'a[92]'
p3593
aS'a[301]'
p3594
aS'a[24]'
p3595
aS'a[92]'
p3596
aS'a[6258]'
p3597
aS'a[3908]'
p3598
aS'a[1355]'
p3599
aS'a[7015]'
p3600
aS'a[24]'
p3601
aS'a[267]'
p3602
aS'a[33]'
p3603
aS'a[201]'
p3604
aS'a[2300]'
p3605
aS'a[56]'
p3606
aS'a[3396]'
p3607
aS'a[3731]'
p3608
aS'a[26]'
p3609
aS'a[6707]'
p3610
aS'a[618]'
p3611
aS'a[2918]'
p3612
aS'a[8009]'
p3613
aS'a[5505]'
p3614
aS'a[1541]'
p3615
aS'a[6808]'
p3616
aS'a[2705]'
p3617
aS'a[5634]'
p3618
aS'a[6695]'
p3619
aS'a[24]'
p3620
aS'a[1]'
p3621
aS'a[3405]'
p3622
aS'a[6512]'
p3623
aS'a[618]'
p3624
aS'a[532]'
p3625
aS'a[618]'
p3626
aS'a[1081]'
p3627
aS'a[3]'
p3628
aS'a[135]'
p3629
aS'a[5152]'
p3630
aS'a[7874]'
p3631
aS'a[2498]'
p3632
aS'a[458]'
p3633
aS'a[291]'
p3634
aS'a[3063]'
p3635
aS'a[1858]'
p3636
aS'a[23]'
p3637
aS'a[46]'
p3638
aS'a[1096]'
p3639
aS'a[2130]'
p3640
aS'a[33]'
p3641
aS'a[1198]'
p3642
aS'a[23]'
p3643
aS'a[3928]'
p3644
aS'a[84]'
p3645
aS'a[351]'
p3646
aS'a[5459]'
p3647
aS'a[3731]'
p3648
aS'a[8696]'
p3649
aS'a[1092]'
p3650
aS'a[815]'
p3651
aS'a[7405]'
p3652
aS'a[783]'
p3653
aS'a[2068]'
p3654
aS'a[1866]'
p3655
aS'a[5433]'
p3656
aS'a[5491]'
p3657
aS'a[5457]'
p3658
aS'a[532]'
p3659
aS'a[62]'
p3660
aS'a[3701]'
p3661
aS'a[5104]'
p3662
aS'a[1263]'
p3663
aS'a[7112]'
p3664
aS'a[34]'
p3665
aS'a[710]'
p3666
aS'a[22]'
p3667
aS'a[24]'
p3668
aS'a[3171]'
p3669
aS'a[532]'
p3670
aS'a[532]'
p3671
aS'a[740]'
p3672
aS'a[5050]'
p3673
aS'a[618]'
p3674
aS'a[159]'
p3675
aS'a[1689]'
p3676
aS'a[6227]'
p3677
aS'a[3]'
p3678
aS'a[7559]'
p3679
aS'a[1]'
p3680
aS'a[351]'
p3681
aS'a[458]'
p3682
aS'a[310]'
p3683
aS'a[2382]'
p3684
aS'a[618]'
p3685
aS'a[46]'
p3686
aS'a[4]'
p3687
aS'a[4529]'
p3688
aS'a[2675]'
p3689
aS'a[1477]'
p3690
aS'a[5728]'
p3691
aS'a[4127]'
p3692
aS'a[135]'
p3693
aS'a[6751]'
p3694
aS'a[4747]'
p3695
aS'a[18]'
p3696
aS'a[1541]'
p3697
aS'a[3072]'
p3698
aS'a[7531]'
p3699
aS'a[298]'
p3700
aS'a[155]'
p3701
aS'a[7415]'
p3702
aS'a[33]'
p3703
aS'a[3741]'
p3704
aS'a[34]'
p3705
aS'a[301]'
p3706
aS'a[4765]'
p3707
aS'a[6052]'
p3708
aS'a[6944]'
p3709
aS'a[6305]'
p3710
aS'a[574]'
p3711
aS'a[3615]'
p3712
aS'a[5249]'
p3713
aS'a[24]'
p3714
aS'a[4935]'
p3715
aS'a[1]'
p3716
aS'a[45]'
p3717
aS'a[2683]'
p3718
aS'a[740]'
p3719
aS'a[3615]'
p3720
aS'a[35]'
p3721
aS'a[1580]'
p3722
aS'a[1585]'
p3723
aS'a[988]'
p3724
aS'a[7162]'
p3725
aS'a[52]'
p3726
aS'a[191]'
p3727
aS'a[1858]'
p3728
aS'a[24]'
p3729
aS'a[4219]'
p3730
aS'a[2568]'
p3731
aS'a[8884]'
p3732
aS'a[371]'
p3733
aS'a[692]'
p3734
aS'a[8613]'
p3735
aS'a[699]'
p3736
aS'a[2939]'
p3737
aS'a[8285]'
p3738
aS'a[1585]'
p3739
aS'a[4518]'
p3740
aS'a[2384]'
p3741
aS'a[532]'
p3742
aS'a[956]'
p3743
aS'a[2675]'
p3744
aS'a[258]'
p3745
aS'a[1239]'
p3746
aS'a[1082]'
p3747
aS'a[3502]'
p3748
aS'a[1257]'
p3749
aS'a[33]'
p3750
aS'a[4018]'
p3751
aS'a[191]'
p3752
aS'a[1541]'
p3753
aS'a[555]'
p3754
aS'a[303]'
p3755
aS'a[6172]'
p3756
aS'a[682]'
p3757
aS'a[1750]'
p3758
aS'a[62]'
p3759
aS'a[168]'
p3760
aS'a[740]'
p3761
aS'a[301]'
p3762
aS'a[458]'
p3763
aS'a[24]'
p3764
aS'a[2683]'
p3765
aS'a[1257]'
p3766
aS'a[458]'
p3767
aS'a[5227]'
p3768
aS'a[155]'
p3769
aS'a[4866]'
p3770
aS'a[4693]'
p3771
aS'a[56]'
p3772
aS'a[371]'
p3773
aS'a[139]'
p3774
aS'a[4882]'
p3775
aS'a[1695]'
p3776
aS'a[8738]'
p3777
aS'a[2784]'
p3778
aS'a[310]'
p3779
aS'a[1554]'
p3780
aS'a[3006]'
p3781
aS'a[8103]'
p3782
aS'a[351]'
p3783
aS'a[6739]'
p3784
aS'a[5106]'
p3785
aS'a[1770]'
p3786
aS'a[301]'
p3787
aS'a[1696]'
p3788
aS'a[135]'
p3789
aS'a[740]'
p3790
aS'a[8714]'
p3791
aS'a[6977]'
p3792
aS'a[1082]'
p3793
aS'a[201]'
p3794
aS'a[6239]'
p3795
aS'a[3284]'
p3796
aS'a[1257]'
p3797
aS'a[7967]'
p3798
aS'a[956]'
p3799
aS'a[1473]'
p3800
aS'a[223]'
p3801
aS'a[3162]'
p3802
aS'a[1096]'
p3803
aS'a[1477]'
p3804
aS'a[4735]'
p3805
aS'a[168]'
p3806
aS'a[2919]'
p3807
aS'a[8266]'
p3808
aS'a[5106]'
p3809
aS'a[24]'
p3810
aS'a[8685]'
p3811
aS'a[711]'
p3812
aS'a[5567]'
p3813
aS'a[62]'
p3814
aS'a[124]'
p3815
aS'a[24]'
p3816
aS'a[168]'
p3817
aS'a[8009]'
p3818
aS'a[438]'
p3819
aS'a[8809]'
p3820
aS'a[71]'
p3821
aS'a[8699]'
p3822
aS'a[1]'
p3823
aS'a[310]'
p3824
aS'a[3]'
p3825
aS'a[3]'
p3826
aS'a[1081]'
p3827
aS'a[5634]'
p3828
aS'a[497]'
p3829
aS'a[4932]'
p3830
aS'a[92]'
p3831
aS'a[8086]'
p3832
aS'a[3776]'
p3833
aS'a[291]'
p3834
aS'a[1585]'
p3835
aS'a[7807]'
p3836
aS'a[2052]'
p3837
aS'a[2565]'
p3838
aS'a[5078]'
p3839
aS'a[61]'
p3840
aS'a[3462]'
p3841
aS'a[600]'
p3842
aS'a[4988]'
p3843
aS'a[1696]'
p3844
aS'a[3072]'
p3845
aS'a[2300]'
p3846
aS'a[4827]'
p3847
aS'a[6490]'
p3848
aS'a[555]'
p3849
aS'a[414]'
p3850
aS'a[18]'
p3851
aS'a[1668]'
p3852
aS'a[3932]'
p3853
aS'a[3502]'
p3854
aS'a[5241]'
p3855
aS'a[61]'
p3856
aS'a[168]'
p3857
aS'a[3]'
p3858
aS'a[2675]'
p3859
aS'a[740]'
p3860
aS'a[139]'
p3861
aS'a[5731]'
p3862
aS'a[1092]'
p3863
aS'a[8908]'
p3864
aS'a[35]'
p3865
aS'a[46]'
p3866
aS'a[168]'
p3867
aS'a[301]'
p3868
aS'a[8927]'
p3869
aS'a[24]'
p3870
aS'a[7209]'
p3871
aS'a[18]'
p3872
aS'a[4529]'
p3873
aS'a[3731]'
p3874
aS'a[2410]'
p3875
aS'a[24]'
p3876
aS'a[24]'
p3877
aS'a[1062]'
p3878
aS'a[1807]'
p3879
aS'a[2939]'
p3880
aS'a[6599]'
p3881
aS'a[1860]'
p3882
aS'a[1935]'
p3883
aS'a[3609]'
p3884
aS'a[243]'
p3885
aS'a[0]'
p3886
aS'a[4899]'
p3887
aS'a[4]'
p3888
aS'a[3162]'
p3889
aS'a[4522]'
p3890
aS'a[23]'
p3891
aS'a[3162]'
p3892
aS'a[711]'
p3893
aS'a[3976]'
p3894
aS'a[1105]'
p3895
aS'a[155]'
p3896
aS'a[56]'
p3897
aS'a[458]'
p3898
aS'a[301]'
p3899
aS'a[2655]'
p3900
aS'a[618]'
p3901
aS'a[711]'
p3902
aS'a[298]'
p3903
aS'a[206]'
p3904
aS'a[8280]'
p3905
aS'a[1935]'
p3906
aS'a[1294]'
p3907
aS'a[92]'
p3908
aS'a[2675]'
p3909
aS'a[682]'
p3910
aS'a[1935]'
p3911
aS'a[243]'
p3912
aS'a[32]'
p3913
aS'a[282]'
p3914
aS'a[1517]'
p3915
aS'a[3070]'
p3916
aS'a[3072]'
p3917
aS'a[2939]'
p3918
aS'a[4468]'
p3919
aS'a[6622]'
p3920
aS'a[4613]'
p3921
aS'a[7366]'
p3922
aS'a[711]'
p3923
aS'a[6120]'
p3924
aS'a[3162]'
p3925
aS'a[2325]'
p3926
aS'a[3070]'
p3927
aS'a[4935]'
p3928
aS'a[988]'
p3929
aS'a[62]'
p3930
aS'a[3718]'
p3931
aS'a[618]'
p3932
aS'a[3]'
p3933
aS'a[1973]'
p3934
aS'a[2300]'
p3935
aS'a[7761]'
p3936
aS'a[3044]'
p3937
aS'a[2708]'
p3938
aS'a[35]'
p3939
aS'a[2508]'
p3940
aS'a[298]'
p3941
aS'a[3891]'
p3942
aS'a[1379]'
p3943
aS'a[56]'
p3944
aS'a[155]'
p3945
aS'a[1522]'
p3946
aS'a[298]'
p3947
aS'a[6122]'
p3948
aS'a[267]'
p3949
aS'a[5634]'
p3950
aS'a[711]'
p3951
aS'a[5313]'
p3952
aS'a[7681]'
p3953
aS'a[6582]'
p3954
aS'a[3]'
p3955
aS'a[301]'
p3956
aS'a[24]'
p3957
aS'a[2521]'
p3958
aS'a[3783]'
p3959
aS'a[24]'
p3960
aS'a[1569]'
p3961
aS'a[4614]'
p3962
aS'a[749]'
p3963
aS'a[3]'
p3964
aS'a[301]'
p3965
aS'a[7081]'
p3966
aS'a[5634]'
p3967
aS'a[5249]'
p3968
aS'a[3890]'
p3969
aS'a[3089]'
p3970
aS'a[18]'
p3971
aS'a[8272]'
p3972
aS'a[3310]'
p3973
aS'a[4529]'
p3974
aS'a[1774]'
p3975
aS'a[8009]'
p3976
aS'a[34]'
p3977
aS'a[618]'
p3978
aS'a[1257]'
p3979
aS'a[2655]'
p3980
aS'a[159]'
p3981
aS'a[458]'
p3982
aS'a[3]'
p3983
aS'a[1215]'
p3984
aS'a[168]'
p3985
aS'a[159]'
p3986
aS'a[2939]'
p3987
aS'a[1807]'
p3988
aS'a[414]'
p3989
aS'a[1477]'
p3990
aS'a[1815]'
p3991
aS'a[6151]'
p3992
aS'a[24]'
p3993
aS'a[6162]'
p3994
aS'a[1]'
p3995
aS'a[191]'
p3996
aS'a[168]'
p3997
aS'a[4744]'
p3998
aS'a[4639]'
p3999
aS'a[1257]'
p4000
aS'a[5396]'
p4001
aS'a[260]'
p4002
aS'a[3072]'
p4003
aS'a[6120]'
p4004
aS'a[1263]'
p4005
aS'a[1]'
p4006
aS'a[298]'
p4007
aS'a[1]'
p4008
aS'a[100]'
p4009
aS'a[8127]'
p4010
aS'a[1858]'
p4011
aS'a[7799]'
p4012
aS'a[5939]'
p4013
aS'a[1751]'
p4014
aS'a[618]'
p4015
aS'a[1130]'
p4016
aS'a[0]'
p4017
aS'a[135]'
p4018
aS'a[2655]'
p4019
aS'a[2954]'
p4020
aS'a[7813]'
p4021
aS'a[3878]'
p4022
aS'a[7266]'
p4023
aS'a[368]'
p4024
aS'a[155]'
p4025
aS'a[5877]'
p4026
aS'a[291]'
p4027
aS'a[4818]'
p4028
aS'a[1372]'
p4029
aS'a[2675]'
p4030
aS'a[711]'
p4031
aS'a[35]'
p4032
aS'a[301]'
p4033
aS'a[6114]'
p4034
aS'a[56]'
p4035
aS'a[5634]'
p4036
aS'a[3072]'
p4037
aS'a[92]'
p4038
aS'a[5106]'
p4039
aS'a[618]'
p4040
aS'a[2683]'
p4041
aS'a[2159]'
p4042
aS'a[2354]'
p4043
aS'a[7902]'
p4044
aS'a[1580]'
p4045
aS'a[2939]'
p4046
aS'a[298]'
p4047
aS'a[191]'
p4048
aS'a[24]'
p4049
aS'a[8163]'
p4050
aS'a[1864]'
p4051
aS'a[8018]'
p4052
aS'a[298]'
p4053
aS'a[310]'
p4054
aS'a[8103]'
p4055
aS'a[46]'
p4056
aS'a[2683]'
p4057
aS'a[5227]'
p4058
aS'a[35]'
p4059
aS'a[24]'
p4060
aS'a[7171]'
p4061
aS'a[3295]'
p4062
aS'a[45]'
p4063
aS'a[6966]'
p4064
aS'a[1242]'
p4065
aS'a[4100]'
p4066
aS'a[711]'
p4067
aS'a[246]'
p4068
aS'a[3776]'
p4069
aS'a[1104]'
p4070
aS'a[6088]'
p4071
aS'a[3]'
p4072
aS'a[2962]'
p4073
aS'a[35]'
p4074
aS'a[135]'
p4075
aS'a[618]'
p4076
aS'a[1541]'
p4077
aS'a[682]'
p4078
aS'a[0]'
p4079
aS'a[124]'
p4080
aS'a[3908]'
p4081
aS'a[3615]'
p4082
aS'a[458]'
p4083
aS'a[8307]'
p4084
aS'a[2939]'
p4085
aS'a[1580]'
p4086
aS'a[5027]'
p4087
aS'a[1096]'
p4088
aS'a[7182]'
p4089
aS'a[0]'
p4090
aS'a[5997]'
p4091
aS'a[191]'
p4092
aS'a[988]'
p4093
aS'a[201]'
p4094
aS'a[2939]'
p4095
aS'a[1263]'
p4096
aS'a[135]'
p4097
aS'a[1308]'
p4098
aS'a[8038]'
p4099
aS'a[189]'
p4100
aS'a[458]'
p4101
aS'a[2300]'
p4102
aS'a[34]'
p4103
aS'a[198]'
p4104
aS'a[2521]'
p4105
aS'a[1427]'
p4106
aS'a[4733]'
p4107
aS'a[8951]'
p4108
aS'a[1696]'
p4109
aS'a[301]'
p4110
aS'a[34]'
p4111
aS'a[1929]'
p4112
aS'a[3731]'
p4113
aS'a[3615]'
p4114
aS'a[1585]'
p4115
aS'a[8789]'
p4116
aS'a[8726]'
p4117
aS'a[34]'
p4118
aS'a[3613]'
p4119
aS'a[513]'
p4120
aS'a[8640]'
p4121
aS'a[371]'
p4122
aS'a[3072]'
p4123
aS'a[458]'
p4124
aS'a[371]'
p4125
aS'a[2683]'
p4126
aS'a[3776]'
p4127
aS'a[891]'
p4128
aS'a[2683]'
p4129
aS'a[1096]'
p4130
aS'a[2655]'
p4131
aS'a[1935]'
p4132
aS'a[4552]'
p4133
aS'a[1858]'
p4134
aS'a[8847]'
p4135
aS'a[6498]'
p4136
aS'a[3252]'
p4137
aS'a[301]'
p4138
aS'a[6186]'
p4139
aS'a[5106]'
p4140
aS'a[740]'
p4141
aS'a[1]'
p4142
aS'a[2055]'
p4143
aS'a[1081]'
p4144
aS'a[291]'
p4145
aS'a[24]'
p4146
aS'a[267]'
p4147
aS'a[5880]'
p4148
aS'a[2936]'
p4149
aS'a[2683]'
p4150
aS'a[3161]'
p4151
aS'a[23]'
p4152
aS'a[7428]'
p4153
aS'a[303]'
p4154
aS'a[4935]'
p4155
aS'a[3908]'
p4156
aS'a[1130]'
p4157
aS'a[3]'
p4158
aS'a[2683]'
p4159
aS'a[24]'
p4160
aS'a[4639]'
p4161
aS'a[135]'
p4162
aS'a[458]'
p4163
aS'a[2300]'
p4164
aS'a[6020]'
p4165
aS'a[8019]'
p4166
aS'a[3092]'
p4167
aS'a[555]'
p4168
aS'a[1263]'
p4169
aS'a[6774]'
p4170
aS'a[2521]'
p4171
aS'a[3012]'
p4172
aS'a[5050]'
p4173
aS'a[8053]'
p4174
aS'a[2131]'
p4175
aS'a[3]'
p4176
aS'a[2521]'
p4177
aS'a[189]'
p4178
aS'a[711]'
p4179
aS'a[956]'
p4180
aS'a[22]'
p4181
aS'a[5545]'
p4182
aS'a[4355]'
p4183
aS'a[3072]'
p4184
aS'a[2963]'
p4185
aS'a[2675]'
p4186
aS'a[350]'
p4187
aS'a[1]'
p4188
aS'a[634]'
p4189
aS'a[189]'
p4190
aS'a[371]'
p4191
aS'a[310]'
p4192
aS'a[3070]'
p4193
aS'a[5052]'
p4194
aS'a[23]'
p4195
aS'a[4753]'
p4196
aS'a[605]'
p4197
aS'a[2939]'
p4198
aS'a[6341]'
p4199
aS'a[258]'
p4200
aS'a[3246]'
p4201
aS'a[5634]'
p4202
aS'a[3928]'
p4203
aS'a[4421]'
p4204
aS'a[329]'
p4205
aS'a[6051]'
p4206
aS'a[2153]'
p4207
aS'a[1096]'
p4208
aS'a[4335]'
p4209
aS'a[5249]'
p4210
aS'a[303]'
p4211
aS'a[3615]'
p4212
aS'a[1405]'
p4213
aS'a[35]'
p4214
aS'a[5007]'
p4215
aS'a[458]'
p4216
aS'a[458]'
p4217
aS'a[5457]'
p4218
aS'a[2675]'
p4219
aS'a[46]'
p4220
aS'a[135]'
p4221
aS'a[7042]'
p4222
aS'a[4981]'
p4223
aS'a[3908]'
p4224
aS'a[46]'
p4225
aS'a[35]'
p4226
aS'a[3502]'
p4227
aS'a[1585]'
p4228
aS'a[8032]'
p4229
aS'a[243]'
p4230
aS'a[7199]'
p4231
aS'a[8883]'
p4232
aS'a[3502]'
p4233
aS'a[35]'
p4234
aS'a[2166]'
p4235
aS'a[56]'
p4236
aS'a[8425]'
p4237
aS'a[92]'
p4238
aS'a[6933]'
p4239
aS'a[6013]'
p4240
aS'a[189]'
p4241
aS'a[198]'
p4242
aS'a[699]'
p4243
aS'a[3478]'
p4244
aS'a[1585]'
p4245
aS'a[2997]'
p4246
aS'a[647]'
p4247
aS'a[1]'
p4248
aS'a[2477]'
p4249
aS'a[1458]'
p4250
aS'a[3361]'
p4251
aS'a[2675]'
p4252
aS'a[740]'
p4253
aS'a[139]'
p4254
aS'a[4421]'
p4255
aS'a[23]'
p4256
aS'a[92]'
p4257
aS'a[1711]'
p4258
aS'a[740]'
p4259
aS'a[4903]'
p4260
aS'a[921]'
p4261
aS'a[3]'
p4262
aS'a[699]'
p4263
aS'a[988]'
p4264
aS'a[198]'
p4265
aS'a[3072]'
p4266
aS'a[5106]'
p4267
aS'a[3688]'
p4268
aS'a[350]'
p4269
aS'a[7996]'
p4270
aS'a[6611]'
p4271
aS'a[351]'
p4272
aS'a[2130]'
p4273
aS'a[1235]'
p4274
aS'a[260]'
p4275
aS'a[351]'
p4276
aS'a[6347]'
p4277
aS'a[4008]'
p4278
aS'a[46]'
p4279
aS'a[4493]'
p4280
aS'a[905]'
p4281
aS'a[24]'
p4282
aS'a[4]'
p4283
aS'a[4052]'
p4284
aS'a[6554]'
p4285
aS'a[5481]'
p4286
aS'a[6378]'
p4287
aS'a[1081]'
p4288
aS'a[2962]'
p4289
aS'a[2130]'
p4290
aS'a[4639]'
p4291
aS'a[2675]'
p4292
aS'a[351]'
p4293
aS'a[3908]'
p4294
aS'a[3697]'
p4295
aS'a[7219]'
p4296
aS'a[61]'
p4297
aS'a[8775]'
p4298
aS'a[3411]'
p4299
aS'a[62]'
p4300
aS'a[189]'
p4301
aS'a[135]'
p4302
aS'a[61]'
p4303
aS'a[301]'
p4304
aS'a[2130]'
p4305
aS'a[458]'
p4306
aS'a[62]'
p4307
aS'a[4625]'
p4308
aS'a[1406]'
p4309
aS'a[1206]'
p4310
aS'a[4639]'
p4311
aS'a[682]'
p4312
aS'a[168]'
p4313
aS'a[18]'
p4314
aS'a[1949]'
p4315
aS'a[3]'
p4316
aS'a[44]'
p4317
aS'a[8112]'
p4318
aS'a[1897]'
p4319
aS'a[3]'
p4320
aS'a[22]'
p4321
aS'a[8712]'
p4322
aS'a[5142]'
p4323
aS'a[6210]'
p4324
aS'a[8136]'
p4325
aS'a[1]'
p4326
aS'a[438]'
p4327
aS'a[61]'
p4328
aS'a[2898]'
p4329
aS'a[135]'
p4330
aS'a[8223]'
p4331
aS'a[257]'
p4332
aS'a[92]'
p4333
aS'a[6664]'
p4334
aS'a[14]'
p4335
aS'a[35]'
p4336
aS'a[4423]'
p4337
aS'a[759]'
p4338
aS'a[8366]'
p4339
aS'a[7110]'
p4340
aS'a[56]'
p4341
aS'a[1469]'
p4342
aS'a[155]'
p4343
aS'a[414]'
p4344
aS'a[5106]'
p4345
aS'a[1953]'
p4346
aS'a[18]'
p4347
aS'a[8009]'
p4348
aS'a[1935]'
p4349
aS'a[2173]'
p4350
aS'a[1081]'
p4351
aS'a[4593]'
p4352
aS'a[8708]'
p4353
aS'a[7454]'
p4354
aS'a[7258]'
p4355
aS'a[1071]'
p4356
aS'a[605]'
p4357
aS'a[62]'
p4358
aS'a[2368]'
p4359
aS'a[3072]'
p4360
aS'a[4253]'
p4361
aS'a[4233]'
p4362
aS'a[3731]'
p4363
aS'a[3161]'
p4364
aS'a[159]'
p4365
aS'a[1580]'
p4366
aS'a[2410]'
p4367
aS'a[18]'
p4368
aS'a[8484]'
p4369
aS'a[3]'
p4370
aS'a[6886]'
p4371
aS'a[34]'
p4372
aS'a[438]'
p4373
aS'a[6673]'
p4374
aS'a[198]'
p4375
aS'a[2756]'
p4376
aS'a[0]'
p4377
aS'a[35]'
p4378
aS'a[6410]'
p4379
aS'a[1972]'
p4380
aS'a[2064]'
p4381
aS'a[35]'
p4382
aS'a[2683]'
p4383
aS'a[6578]'
p4384
aS'a[8396]'
p4385
aS'a[5720]'
p4386
aS'a[2852]'
p4387
aS'a[3188]'
p4388
aS'a[4343]'
p4389
aS'a[4070]'
p4390
aS'a[6748]'
p4391
aS'a[46]'
p4392
aS'a[6801]'
p4393
aS'a[2300]'
p4394
aS'a[46]'
p4395
aS'a[168]'
p4396
aS'a[298]'
p4397
aS'a[260]'
p4398
aS'a[100]'
p4399
aS'a[1082]'
p4400
aS'a[34]'
p4401
aS'a[267]'
p4402
aS'a[2498]'
p4403
aS'a[1263]'
p4404
aS'a[3615]'
p4405
aS'a[178]'
p4406
aS'a[1541]'
p4407
aS'a[71]'
p4408
aS'a[2655]'
p4409
aS'a[225]'
p4410
aS'a[815]'
p4411
aS'a[8496]'
p4412
aS'a[3]'
p4413
aS'a[4728]'
p4414
aS'a[6537]'
p4415
aS'a[1477]'
p4416
aS'a[2939]'
p4417
aS'a[458]'
p4418
aS'a[505]'
p4419
aS'a[1108]'
p4420
aS'a[4592]'
p4421
aS'a[5634]'
p4422
aS'a[92]'
p4423
aS'a[1092]'
p4424
aS'a[135]'
p4425
aS'a[301]'
p4426
aS'a[7242]'
p4427
aS'a[2858]'
p4428
aS'a[414]'
p4429
aS'a[5981]'
p4430
aS'a[740]'
p4431
aS'a[8629]'
p4432
aS'a[9138]'
p4433
aS'a[1807]'
p4434
aS'a[3255]'
p4435
aS'a[605]'
p4436
aS'a[3]'
p4437
aS'a[711]'
p4438
aS'a[85]'
p4439
aS'a[438]'
p4440
aS'a[3971]'
p4441
aS'a[14]'
p4442
aS'a[5956]'
p4443
aS'a[6111]'
p4444
aS'a[135]'
p4445
aS'a[5106]'
p4446
aS'a[2774]'
p4447
aS'a[2300]'
p4448
aS'a[1082]'
p4449
aS'a[3688]'
p4450
aS'a[2633]'
p4451
aS'a[3481]'
p4452
aS'a[2090]'
p4453
aS'a[3898]'
p4454
aS'a[2784]'
p4455
aS'a[4639]'
p4456
aS'a[33]'
p4457
aS'a[155]'
p4458
aS'a[4451]'
p4459
aS'a[100]'
p4460
aS'a[6467]'
p4461
aS'a[1935]'
p4462
aS'a[8133]'
p4463
aS'a[682]'
p4464
aS'a[3766]'
p4465
aS'a[1585]'
p4466
aS'a[62]'
p4467
aS'a[2162]'
p4468
aS'a[8442]'
p4469
aS'a[2683]'
p4470
aS'a[2521]'
p4471
aS'a[135]'
p4472
aS'a[24]'
p4473
aS'a[371]'
p4474
aS'a[7054]'
p4475
aS'a[9037]'
p4476
aS'a[8447]'
p4477
aS'a[1884]'
p4478
aS'a[260]'
p4479
aS'a[755]'
p4480
aS'a[2686]'
p4481
aS'a[371]'
p4482
aS'a[6354]'
p4483
aS'a[5975]'
p4484
aS'a[7528]'
p4485
aS'a[532]'
p4486
aS'a[1696]'
p4487
aS'a[201]'
p4488
aS'a[8009]'
p4489
aS'a[740]'
p4490
aS'a[24]'
p4491
aS'a[267]'
p4492
aS'a[243]'
p4493
aS'a[52]'
p4494
aS'a[532]'
p4495
aS'a[56]'
p4496
aS'a[5860]'
p4497
aS'a[223]'
p4498
aS'a[3481]'
p4499
aS'a[371]'
p4500
aS'a[1205]'
p4501
aS'a[6784]'
p4502
aS'a[458]'
p4503
aS'a[2300]'
p4504
aS'a[46]'
p4505
aS'a[6272]'
p4506
aS'a[3776]'
p4507
aS'a[7242]'
p4508
aS'a[3063]'
p4509
aS'a[35]'
p4510
aS'a[2521]'
p4511
aS'a[56]'
p4512
aS'a[2130]'
p4513
aS'a[3738]'
p4514
aS'a[155]'
p4515
aS'a[5154]'
p4516
aS'a[988]'
p4517
aS'a[56]'
p4518
aS'a[3063]'
p4519
aS'a[24]'
p4520
aS'a[5160]'
p4521
aS'a[1005]'
p4522
aS'a[260]'
p4523
aS'a[1264]'
p4524
aS'a[258]'
p4525
aS'a[1696]'
p4526
aS'a[213]'
p4527
aS'a[310]'
p4528
aS'a[414]'
p4529
aS'a[4587]'
p4530
aS'a[2152]'
p4531
aS'a[8038]'
p4532
aS'a[2623]'
p4533
aS'a[7593]'
p4534
aS'a[8361]'
p4535
aS'a[1612]'
p4536
aS'a[414]'
p4537
aS'a[2675]'
p4538
aS'a[24]'
p4539
aS'a[0]'
p4540
aS'a[4639]'
p4541
aS'a[8556]'
p4542
aS'a[159]'
p4543
aS'a[532]'
p4544
aS'a[1]'
p4545
aS'a[3731]'
p4546
aS'a[8564]'
p4547
aS'a[100]'
p4548
aS'a[71]'
p4549
aS'a[2029]'
p4550
aS'a[578]'
p4551
aS'a[4233]'
p4552
aS'a[5301]'
p4553
aS'a[1]'
p4554
aS'a[9219]'
p4555
aS'a[34]'
p4556
aS'a[62]'
p4557
aS'a[7387]'
p4558
aS'a[8461]'
p4559
aS'a[2675]'
p4560
aS'a[135]'
p4561
aS'a[4354]'
p4562
aS'a[310]'
p4563
aS'a[351]'
p4564
aS'a[2410]'
p4565
aS'a[699]'
p4566
aS'a[2410]'
p4567
aS'a[92]'
p4568
aS'a[22]'
p4569
aS'a[5290]'
p4570
aS'a[1]'
p4571
aS'a[2746]'
p4572
aS'a[4089]'
p4573
aS'a[1585]'
p4574
aS'a[3427]'
p4575
aS'a[505]'
p4576
aS'a[2031]'
p4577
aS'a[2300]'
p4578
aS'a[4532]'
p4579
aS'a[1035]'
p4580
aS'a[3161]'
p4581
aS'a[1580]'
p4582
aS'a[3307]'
p4583
aS'a[4935]'
p4584
aS'a[22]'
p4585
aS'a[8706]'
p4586
aS'a[46]'
p4587
aS'a[310]'
p4588
aS'a[4712]'
p4589
aS'a[62]'
p4590
aS'a[24]'
p4591
aS'a[7133]'
p4592
aS'a[2675]'
p4593
aS'a[3422]'
p4594
aS'a[1]'
p4595
aS'a[46]'
p4596
aS'a[7469]'
p4597
aS'a[682]'
p4598
aS'a[4663]'
p4599
aS'a[682]'
p4600
aS'a[5575]'
p4601
aS'a[34]'
p4602
aS'a[35]'
p4603
aS'a[886]'
p4604
aS'a[139]'
p4605
aS'a[3]'
p4606
aS'a[5348]'
p4607
aS'a[3731]'
p4608
aS'a[3072]'
p4609
aS'a[682]'
p4610
aS'a[5106]'
p4611
aS'a[287]'
p4612
aS'a[3]'
p4613
aS'a[258]'
p4614
aS'a[3]'
p4615
aS'a[6359]'
p4616
aS'a[45]'
p4617
aS'a[4785]'
p4618
aS'a[4]'
p4619
aS'a[298]'
p4620
aS'a[8685]'
p4621
aS'a[6692]'
p4622
aS'a[3072]'
p4623
aS'a[22]'
p4624
aS'a[9170]'
p4625
aS'a[155]'
p4626
aS'a[223]'
p4627
aS'a[92]'
p4628
aS'a[6047]'
p4629
aS'a[7809]'
p4630
aS'a[618]'
p4631
aS'a[988]'
p4632
aS'a[62]'
p4633
aS'a[3072]'
p4634
aS'a[9068]'
p4635
aS'a[3693]'
p4636
aS'a[1897]'
p4637
aS'a[191]'
p4638
aS'a[618]'
p4639
aS'a[5634]'
p4640
aS'a[618]'
p4641
aS'a[189]'
p4642
aS'a[351]'
p4643
aS'a[2933]'
p4644
aS'a[24]'
p4645
aS'a[999]'
p4646
aS'a[4639]'
p4647
aS'a[4529]'
p4648
aS'a[3070]'
p4649
aS'a[159]'
p4650
aS'a[2675]'
p4651
aS'a[6387]'
p4652
aS'a[4639]'
p4653
aS'a[5657]'
p4654
aS'a[8748]'
p4655
aS'a[303]'
p4656
aS'a[1082]'
p4657
aS'a[3070]'
p4658
aS'a[61]'
p4659
aS'a[1580]'
p4660
aS'a[8781]'
p4661
aS'a[490]'
p4662
aS'a[2655]'
p4663
aS'a[8354]'
p4664
aS'a[1]'
p4665
aS'a[2683]'
p4666
aS'a[301]'
p4667
aS'a[2976]'
p4668
aS'a[1580]'
p4669
aS'a[92]'
p4670
aS'a[100]'
p4671
aS'a[260]'
p4672
aS'a[46]'
p4673
aS'a[8530]'
p4674
aS'a[1206]'
p4675
aS'a[3601]'
p4676
aS'a[711]'
p4677
aS'a[956]'
p4678
aS'a[3]'
p4679
aS'a[310]'
p4680
aS'a[5898]'
p4681
aS'a[2939]'
p4682
aS'a[188]'
p4683
aS'a[1999]'
p4684
aS'a[3731]'
p4685
aS'a[2370]'
p4686
aS'a[24]'
p4687
aS'a[3502]'
p4688
aS'a[4041]'
p4689
aS'a[2939]'
p4690
aS'a[23]'
p4691
aS'a[135]'
p4692
aS'a[45]'
p4693
aS'a[618]'
p4694
aS'a[555]'
p4695
aS'a[223]'
p4696
aS'a[2235]'
p4697
aS'a[310]'
p4698
aS'a[2506]'
p4699
aS'a[2655]'
p4700
aS'a[8994]'
p4701
aS'a[3502]'
p4702
aS'a[8652]'
p4703
aS'a[351]'
p4704
aS'a[1585]'
p4705
aS'a[3930]'
p4706
aS'a[6067]'
p4707
aS'a[223]'
p4708
aS'a[14]'
p4709
aS'a[24]'
p4710
aS'a[560]'
p4711
aS'a[682]'
p4712
aS'a[1807]'
p4713
aS'a[8477]'
p4714
aS'a[8103]'
p4715
aS'a[1257]'
p4716
aS'a[34]'
p4717
aS'a[8038]'
p4718
aS'a[168]'
p4719
aS'a[736]'
p4720
aS'a[56]'
p4721
aS'a[1849]'
p4722
aS'a[191]'
p4723
aS'a[52]'
p4724
aS'a[294]'
p4725
aS'a[1696]'
p4726
aS'a[2939]'
p4727
aS'a[458]'
p4728
aS'a[451]'
p4729
aS'a[3063]'
p4730
aS'a[4271]'
p4731
aS'a[7240]'
p4732
aS'a[990]'
p4733
aS'a[3731]'
p4734
aS'a[2939]'
p4735
aS'a[135]'
p4736
aS'a[291]'
p4737
aS'a[618]'
p4738
aS'a[1935]'
p4739
aS'a[1585]'
p4740
aS'a[189]'
p4741
aS'a[1]'
p4742
aS'a[189]'
p4743
aS'a[2410]'
p4744
aS'a[458]'
p4745
aS'a[458]'
p4746
aS'a[4834]'
p4747
aS'a[2675]'
p4748
aS'a[2675]'
p4749
aS'a[35]'
p4750
aS'a[301]'
p4751
aS'a[2683]'
p4752
aS'a[1807]'
p4753
aS'a[4935]'
p4754
aS'a[168]'
p4755
aS'a[1257]'
p4756
aS'a[555]'
p4757
aS'a[1680]'
p4758
aS'a[7211]'
p4759
aS'a[2130]'
p4760
aS'a[24]'
p4761
aS'a[24]'
p4762
aS'a[1]'
p4763
aS'a[7549]'
p4764
aS'a[1130]'
p4765
aS'a[301]'
p4766
aS'a[1897]'
p4767
aS'a[2939]'
p4768
aS'a[18]'
p4769
aS'a[414]'
p4770
aS'a[124]'
p4771
aS'a[3462]'
p4772
aS'a[7765]'
p4773
aS'a[2961]'
p4774
aS'a[6348]'
p4775
aS'a[46]'
p4776
aS'a[7008]'
p4777
aS'a[135]'
p4778
aS'a[4662]'
p4779
aS'a[8859]'
p4780
aS'a[1]'
p4781
aS'a[5195]'
p4782
aS'a[1092]'
p4783
aS'a[647]'
p4784
aS'a[3776]'
p4785
aS'a[613]'
p4786
aS'a[3731]'
p4787
aS'a[92]'
p4788
aS'a[34]'
p4789
aS'a[7605]'
p4790
aS'a[740]'
p4791
aS'a[291]'
p4792
aS'a[7595]'
p4793
aS'a[4890]'
p4794
aS'a[8129]'
p4795
aS'a[3070]'
p4796
aS'a[1082]'
p4797
aS'a[24]'
p4798
aS'a[2300]'
p4799
aS'a[8518]'
p4800
aS'a[2675]'
p4801
aS'a[258]'
p4802
aS'a[3162]'
p4803
aS'a[71]'
p4804
aS'a[3231]'
p4805
aS'a[740]'
p4806
aS'a[4538]'
p4807
aS'a[1935]'
p4808
aS'a[168]'
p4809
aS'a[458]'
p4810
aS'a[135]'
p4811
aS'a[351]'
p4812
aS'a[3063]'
p4813
aS'a[4639]'
p4814
aS'a[18]'
p4815
aS'a[5996]'
p4816
aS'a[351]'
p4817
aS'a[1263]'
p4818
aS'a[1130]'
p4819
aS'a[744]'
p4820
aS'a[168]'
p4821
aS'a[2333]'
p4822
aS'a[5368]'
p4823
aS'a[657]'
p4824
aS'a[291]'
p4825
aS'a[3161]'
p4826
aS'a[92]'
p4827
aS'a[2119]'
p4828
aS'a[4]'
p4829
aS'a[3070]'
p4830
aS'a[699]'
p4831
aS'a[5155]'
p4832
aS'a[2295]'
p4833
aS'a[555]'
p4834
aS'a[6302]'
p4835
aS'a[3063]'
p4836
aS'a[1257]'
p4837
aS'a[1263]'
p4838
aS'a[8795]'
p4839
aS'a[1580]'
p4840
aS'a[1529]'
p4841
aS'a[2683]'
p4842
aS'a[1541]'
p4843
aS'a[7847]'
p4844
aS'a[371]'
p4845
aS'a[3063]'
p4846
aS'a[1572]'
p4847
aS'a[5177]'
p4848
aS'a[956]'
p4849
aS'a[876]'
p4850
aS'a[1897]'
p4851
aS'a[2130]'
p4852
aS'a[2939]'
p4853
aS'a[3072]'
p4854
aS'a[6105]'
p4855
aS'a[438]'
p4856
aS'a[1082]'
p4857
aS'a[749]'
p4858
aS'a[647]'
p4859
aS'a[515]'
p4860
aS'a[2131]'
p4861
aS'a[8009]'
p4862
aS'a[6852]'
p4863
aS'a[303]'
p4864
aS'a[5996]'
p4865
aS'a[1585]'
p4866
aS'a[988]'
p4867
aS'a[655]'
p4868
aS'a[4251]'
p4869
aS'a[35]'
p4870
aS'a[1014]'
p4871
aS'a[35]'
p4872
aS'a[1541]'
p4873
aS'a[1696]'
p4874
aS'a[2898]'
p4875
aS'a[1585]'
p4876
aS'a[1257]'
p4877
aS'a[4783]'
p4878
aS'a[6211]'
p4879
aS'a[1585]'
p4880
aS'a[8067]'
p4881
aS'a[7887]'
p4882
aS'a[46]'
p4883
aS'a[168]'
p4884
aS'a[62]'
p4885
aS'a[1264]'
p4886
aS'a[2675]'
p4887
aS'a[440]'
p4888
aS'a[8038]'
p4889
aS'a[61]'
p4890
aS'a[3072]'
p4891
aS'a[5249]'
p4892
aS'a[3914]'
p4893
aS'a[5572]'
p4894
aS'a[4529]'
p4895
aS'a[6623]'
p4896
aS'a[34]'
p4897
aS'a[7693]'
p4898
aS'a[2072]'
p4899
aS'a[8058]'
p4900
aS'a[7081]'
p4901
aS'a[1263]'
p4902
aS'a[1092]'
p4903
aS'a[9241]'
p4904
aS'a[618]'
p4905
aS'a[2496]'
p4906
aS'a[1257]'
p4907
aS'a[9058]'
p4908
aS'a[5634]'
p4909
aS'a[3]'
p4910
aS'a[3502]'
p4911
aS'a[241]'
p4912
aS'a[1095]'
p4913
aS'a[56]'
p4914
aS'a[155]'
p4915
aS'a[532]'
p4916
aS'a[6495]'
p4917
aS'a[8708]'
p4918
aS'a[8486]'
p4919
aS'a[1518]'
p4920
aS'a[414]'
p4921
aS'a[3161]'
p4922
aS'a[46]'
p4923
aS'a[0]'
p4924
aS'a[956]'
p4925
aS'a[1585]'
p4926
aS'a[1138]'
p4927
aS'a[155]'
p4928
aS'a[1656]'
p4929
aS'a[2829]'
p4930
aS'a[33]'
p4931
aS'a[3033]'
p4932
aS'a[1654]'
p4933
aS'a[18]'
p4934
aS'a[3908]'
p4935
aS'a[291]'
p4936
aS'a[198]'
p4937
aS'a[1]'
p4938
aS'a[8644]'
p4939
aS'a[155]'
p4940
aS'a[2498]'
p4941
aS'a[8430]'
p4942
aS'a[6777]'
p4943
aS'a[1092]'
p4944
aS'a[0]'
p4945
aS'a[1105]'
p4946
aS'a[3070]'
p4947
aS'a[92]'
p4948
aS'a[303]'
p4949
aS'a[1477]'
p4950
aS'a[8666]'
p4951
aS'a[416]'
p4952
aS'a[3720]'
p4953
aS'a[2675]'
p4954
aS'a[1131]'
p4955
aS'a[1477]'
p4956
aS'a[23]'
p4957
aS'a[4018]'
p4958
aS'a[6983]'
p4959
aS'a[2300]'
p4960
aS'a[1807]'
p4961
aS'a[6191]'
p4962
aS'a[6356]'
p4963
aS'a[9150]'
p4964
aS'a[124]'
p4965
aS'a[8900]'
p4966
aS'a[1585]'
p4967
aS'a[4018]'
p4968
aS'a[2675]'
p4969
aS'a[310]'
p4970
aS'a[46]'
p4971
aS'a[1836]'
p4972
aS'a[5900]'
p4973
aS'a[62]'
p4974
aS'a[8801]'
p4975
aS'a[640]'
p4976
aS'a[1263]'
p4977
aS'a[2706]'
p4978
aS'a[100]'
p4979
aS'a[9143]'
p4980
aS'a[258]'
p4981
aS'a[1257]'
p4982
aS'a[988]'
p4983
aS'a[8456]'
p4984
aS'a[8685]'
p4985
aS'a[1102]'
p4986
aS'a[4516]'
p4987
aS'a[682]'
p4988
aS'a[8009]'
p4989
aS'a[7580]'
p4990
aS'a[5057]'
p4991
aS'a[210]'
p4992
aS'a[9114]'
p4993
aS'a[5249]'
p4994
aS'a[7777]'
p4995
aS'a[3184]'
p4996
aS'a[191]'
p4997
aS'a[1081]'
p4998
aS'a[4]'
p4999
aS'a[3162]'
p5000
aS'a[1580]'
p5001
aS'a[2733]'
p5002
aS'a[2683]'
p5003
aS'a[4602]'
p5004
aS'a[1456]'
p5005
aS'a[298]'
p5006
aS'a[0]'
p5007
aS'a[1477]'
p5008
aS'a[2300]'
p5009
aS'a[3615]'
p5010
aS'a[6168]'
p5011
aS'a[4107]'
p5012
aS'a[2683]'
p5013
aS'a[3070]'
p5014
aS'a[6945]'
p5015
aS'a[18]'
p5016
aS'a[3070]'
p5017
aS'a[756]'
p5018
aS'a[7125]'
p5019
aS'a[8290]'
p5020
aS'a[7810]'
p5021
aS'a[2021]'
p5022
aS'a[2939]'
p5023
aS'a[46]'
p5024
aS'a[605]'
p5025
aS'a[135]'
p5026
aS'a[3072]'
p5027
aS'a[92]'
p5028
aS'a[2033]'
p5029
aS'a[532]'
p5030
aS'a[1585]'
p5031
aS'a[801]'
p5032
aS'a[3072]'
p5033
aS'a[458]'
p5034
aS'a[458]'
p5035
aS'a[267]'
p5036
aS'a[8335]'
p5037
aS'a[2130]'
p5038
aS'a[6198]'
p5039
aS'a[5249]'
p5040
aS'a[4127]'
p5041
aS'a[682]'
p5042
aS'a[1263]'
p5043
aS'a[4812]'
p5044
aS'a[1130]'
p5045
aS'a[62]'
p5046
aS'a[3776]'
p5047
aS'a[350]'
p5048
aS'a[7492]'
p5049
aS'a[2939]'
p5050
aS'a[605]'
p5051
aS'a[24]'
p5052
aS'a[1008]'
p5053
aS'a[189]'
p5054
aS'a[3254]'
p5055
aS'a[8106]'
p5056
aS'a[371]'
p5057
aS'a[6242]'
p5058
aS'a[2690]'
p5059
aS'a[5106]'
p5060
aS'a[254]'
p5061
aS'a[2521]'
p5062
aS'a[3063]'
p5063
aS'a[1172]'
p5064
aS'a[191]'
p5065
aS'a[56]'
p5066
aS'a[34]'
p5067
aS'a[2683]'
p5068
aS'a[4018]'
p5069
aS'a[9026]'
p5070
aS'a[366]'
p5071
aS'a[22]'
p5072
aS'a[5450]'
p5073
aS'a[3928]'
p5074
aS'a[438]'
p5075
aS'a[5106]'
p5076
aS'a[699]'
p5077
aS'a[168]'
p5078
aS'a[62]'
p5079
aS'a[191]'
p5080
aS'a[1]'
p5081
aS'a[8233]'
p5082
aS'a[2498]'
p5083
aS'a[4639]'
p5084
aS'a[3]'
p5085
aS'a[1696]'
p5086
aS'a[71]'
p5087
aS'a[0]'
p5088
aS'a[5810]'
p5089
aS'a[62]'
p5090
aS'a[8685]'
p5091
aS'a[3]'
p5092
aS'a[3859]'
p5093
aS'a[243]'
p5094
aS'a[1585]'
p5095
aS'a[711]'
p5096
aS'a[45]'
p5097
aS'a[6986]'
p5098
aS'a[3072]'
p5099
aS'a[749]'
p5100
aS'a[4018]'
p5101
aS'a[1825]'
p5102
aS'a[739]'
p5103
aS'a[159]'
p5104
aS'a[18]'
p5105
aS'a[5662]'
p5106
aS'a[198]'
p5107
aS'a[3908]'
p5108
aS'a[2349]'
p5109
aS'a[267]'
p5110
aS'a[4054]'
p5111
aS'a[1]'
p5112
aS'a[5064]'
p5113
aS'a[34]'
p5114
aS'a[1928]'
p5115
aS'a[3070]'
p5116
aS'a[715]'
p5117
aS'a[2130]'
p5118
aS'a[1881]'
p5119
aS'a[438]'
p5120
aS'a[5354]'
p5121
aS'a[100]'
p5122
aS'a[191]'
p5123
aS'a[1454]'
p5124
aS'a[1696]'
p5125
aS'a[2498]'
p5126
aS'a[711]'
p5127
aS'a[2683]'
p5128
aS'a[2801]'
p5129
aS'a[1263]'
p5130
aS'a[532]'
p5131
aS'a[24]'
p5132
aS'a[24]'
p5133
aS'a[3502]'
p5134
aS'a[2319]'
p5135
aS'a[8476]'
p5136
aS'a[5472]'
p5137
aS'a[291]'
p5138
aS'a[4336]'
p5139
aS'a[34]'
p5140
aS'a[699]'
p5141
aS'a[3232]'
p5142
aS'a[134]'
p5143
aS'a[8940]'
p5144
aS'a[3155]'
p5145
aS'a[804]'
p5146
aS'a[2683]'
p5147
aS'a[7530]'
p5148
aS'a[618]'
p5149
aS'a[124]'
p5150
aS'a[7963]'
p5151
aS'a[4421]'
p5152
aS'a[22]'
p5153
aS'a[3]'
p5154
aS'a[6322]'
p5155
aS'a[7251]'
p5156
aS'a[1825]'
p5157
aS'a[3735]'
p5158
aS'a[4452]'
p5159
aS'a[8038]'
p5160
aS'a[2300]'
p5161
aS'a[23]'
p5162
aS'a[3070]'
p5163
aS'a[34]'
p5164
aS'a[1251]'
p5165
aS'a[46]'
p5166
aS'a[6069]'
p5167
aS'a[1574]'
p5168
aS'a[44]'
p5169
aS'a[189]'
p5170
aS'a[6951]'
p5171
aS'a[1696]'
p5172
aS'a[1257]'
p5173
aS'a[2130]'
p5174
aS'a[34]'
p5175
aS'a[243]'
p5176
aS'a[3063]'
p5177
aS'a[5325]'
p5178
aS'a[6243]'
p5179
aS'a[3161]'
p5180
aS'a[2683]'
p5181
aS'a[1130]'
p5182
aS'a[63]'
p5183
aS'a[3063]'
p5184
aS'a[1477]'
p5185
aS'a[7757]'
p5186
aS'a[260]'
p5187
aS'a[3372]'
p5188
aS'a[8801]'
p5189
aS'a[2498]'
p5190
aS'a[1]'
p5191
aS'a[2939]'
p5192
aS'a[956]'
p5193
aS'a[24]'
p5194
aS'a[616]'
p5195
aS'a[9226]'
p5196
aS'a[6331]'
p5197
aS'a[3161]'
p5198
aS'a[4682]'
p5199
aS'a[7237]'
p5200
aS'a[3]'
p5201
aS'a[35]'
p5202
aS'a[3502]'
p5203
aS'a[4244]'
p5204
aS'a[135]'
p5205
aS'a[0]'
p5206
aS'a[3161]'
p5207
aS'a[740]'
p5208
aS'a[1096]'
p5209
aS'a[71]'
p5210
aS'a[7132]'
p5211
aS'a[223]'
p5212
aS'a[605]'
p5213
aS'a[3]'
p5214
aS'a[23]'
p5215
aS'a[1263]'
p5216
aS'a[1578]'
p5217
aS'a[258]'
p5218
aS'a[155]'
p5219
aS'a[135]'
p5220
aS'a[4214]'
p5221
aS'a[2031]'
p5222
aS'a[7029]'
p5223
aS'a[139]'
p5224
aS'a[1935]'
p5225
aS'a[6472]'
p5226
aS'a[6441]'
p5227
aS'a[61]'
p5228
aS'a[3]'
p5229
aS'a[34]'
p5230
aS'a[24]'
p5231
aS'a[7643]'
p5232
aS'a[780]'
p5233
aS'a[1585]'
p5234
aS'a[826]'
p5235
aS'a[1]'
p5236
aS'a[62]'
p5237
aS'a[71]'
p5238
aS'a[5634]'
p5239
aS'a[8982]'
p5240
aS'a[5745]'
p5241
aS'a[35]'
p5242
aS'a[124]'
p5243
aS'a[9165]'
p5244
aS'a[2783]'
p5245
aS'a[3402]'
p5246
aS'a[7399]'
p5247
aS'a[8027]'
p5248
aS'a[291]'
p5249
aS'a[7516]'
p5250
aS'a[1858]'
p5251
aS'a[1541]'
p5252
aS'a[8103]'
p5253
aS'a[647]'
p5254
aS'a[71]'
p5255
aS'a[310]'
p5256
aS'a[3983]'
p5257
aS'a[6375]'
p5258
aS'a[3161]'
p5259
aS'a[3825]'
p5260
aS'a[4024]'
p5261
aS'a[3908]'
p5262
aS'a[8778]'
p5263
aS'a[2521]'
p5264
aS'a[312]'
p5265
aS'a[3438]'
p5266
aS'a[1594]'
p5267
aS'a[5845]'
p5268
aS'a[4529]'
p5269
aS'a[1477]'
p5270
aS'a[22]'
p5271
aS'a[23]'
p5272
aS'a[1755]'
p5273
aS'a[8306]'
p5274
aS'a[1585]'
p5275
aS'a[371]'
p5276
aS'a[45]'
p5277
aS'a[18]'
p5278
aS'a[3615]'
p5279
aS'a[762]'
p5280
aS'a[135]'
p5281
aS'a[414]'
p5282
aS'a[323]'
p5283
aS'a[1807]'
p5284
aS'a[8385]'
p5285
aS'a[438]'
p5286
aS'a[168]'
p5287
aS'a[1064]'
p5288
aS'a[5242]'
p5289
aS'a[1130]'
p5290
aS'a[62]'
p5291
aS'a[33]'
p5292
aS'a[243]'
p5293
aS'a[699]'
p5294
aS'a[618]'
p5295
aS'a[1935]'
p5296
aS'a[699]'
p5297
aS'a[7461]'
p5298
aS'a[749]'
p5299
aS'a[8009]'
p5300
aS'a[1541]'
p5301
aS'a[62]'
p5302
aS'a[3788]'
p5303
aS'a[5249]'
p5304
aS'a[400]'
p5305
aS'a[4]'
p5306
aS'a[6483]'
p5307
aS'a[5428]'
p5308
aS'a[458]'
p5309
aS'a[6349]'
p5310
aS'a[18]'
p5311
aS'a[56]'
p5312
aS'a[1092]'
p5313
aS'a[24]'
p5314
aS'a[8748]'
p5315
aS'a[7804]'
p5316
aS'a[34]'
p5317
aS'a[4861]'
p5318
aS'a[5249]'
p5319
aS'a[1867]'
p5320
aS'a[5307]'
p5321
aS'a[3072]'
p5322
aS'a[682]'
p5323
aS'a[909]'
p5324
aS'a[1]'
p5325
aS'a[3]'
p5326
aS'a[3162]'
p5327
aS'a[2300]'
p5328
aS'a[8225]'
p5329
aS'a[3072]'
p5330
aS'a[24]'
p5331
aS'a[1738]'
p5332
aS'a[682]'
p5333
aS'a[1082]'
p5334
aS'a[6018]'
p5335
aS'a[5587]'
p5336
aS'a[2387]'
p5337
aS'a[7015]'
p5338
aS'a[4018]'
p5339
aS'a[1130]'
p5340
aS'a[1696]'
p5341
aS'a[62]'
p5342
aS'a[618]'
p5343
aS'a[1897]'
p5344
aS'a[956]'
p5345
aS'a[34]'
p5346
aS'a[4748]'
p5347
aS'a[5325]'
p5348
aS'a[371]'
p5349
aS'a[291]'
p5350
aS'a[459]'
p5351
aS'a[2675]'
p5352
aS'a[6714]'
p5353
aS'a[0]'
p5354
aS'a[6003]'
p5355
aS'a[6946]'
p5356
aS'a[24]'
p5357
aS'a[24]'
p5358
aS'a[24]'
p5359
aS'a[3]'
p5360
aS'a[35]'
p5361
aS'a[9079]'
p5362
aS'a[24]'
p5363
aS'a[371]'
p5364
aS'a[3615]'
p5365
aS'a[124]'
p5366
aS'a[303]'
p5367
aS'a[2908]'
p5368
aS'a[3503]'
p5369
aS'a[139]'
p5370
aS'a[2683]'
p5371
aS'a[243]'
p5372
aS'a[1602]'
p5373
aS'a[872]'
p5374
aS'a[7965]'
p5375
aS'a[371]'
p5376
aS'a[1]'
p5377
aS'a[605]'
p5378
aS'a[6221]'
p5379
aS'a[2810]'
p5380
aS'a[1092]'
p5381
aS'a[479]'
p5382
aS'a[3]'
p5383
aS'a[2865]'
p5384
aS'a[298]'
p5385
aS'a[3]'
p5386
aS'a[5629]'
p5387
aS'a[8446]'
p5388
aS'a[8554]'
p5389
aS'a[351]'
p5390
aS'a[35]'
p5391
aS'a[33]'
p5392
aS'a[2639]'
p5393
aS'a[301]'
p5394
aS'a[155]'
p5395
aS'a[33]'
p5396
aS'a[191]'
p5397
aS'a[2724]'
p5398
aS'a[2939]'
p5399
aS'a[749]'
p5400
aS'a[61]'
p5401
aS'a[1807]'
p5402
aS'a[201]'
p5403
aS'a[6205]'
p5404
aS'a[1082]'
p5405
aS'a[92]'
p5406
aS'a[1562]'
p5407
aS'a[1696]'
p5408
aS'a[450]'
p5409
aS'a[3928]'
p5410
aS'a[1897]'
p5411
aS'a[8685]'
p5412
aS'a[741]'
p5413
aS'a[34]'
p5414
aS'a[14]'
p5415
aS'a[3615]'
p5416
aS'a[35]'
p5417
aS'a[7570]'
p5418
aS'a[1104]'
p5419
aS'a[6104]'
p5420
aS'a[1092]'
p5421
aS'a[62]'
p5422
aS'a[1585]'
p5423
aS'a[3187]'
p5424
aS'a[1585]'
p5425
aS'a[2855]'
p5426
aS'a[4]'
p5427
aS'a[1]'
p5428
aS'a[2300]'
p5429
aS'a[6983]'
p5430
aS'a[1585]'
p5431
aS'a[2683]'
p5432
aS'a[2675]'
p5433
aS'a[5734]'
p5434
aS'a[1081]'
p5435
aS'a[1447]'
p5436
aS'a[24]'
p5437
aS'a[8589]'
p5438
aS'a[3928]'
p5439
aS'a[438]'
p5440
aS'a[35]'
p5441
aS'a[988]'
p5442
aS'a[3398]'
p5443
aS'a[4404]'
p5444
aS'a[191]'
p5445
aS'a[5607]'
p5446
aS'a[8469]'
p5447
aS'a[3070]'
p5448
aS'a[4935]'
p5449
aS'a[7563]'
p5450
aS'a[3721]'
p5451
aS'a[46]'
p5452
aS'a[956]'
p5453
aS'a[438]'
p5454
aS'a[3183]'
p5455
aS'a[3658]'
p5456
aS'a[8103]'
p5457
aS'a[117]'
p5458
aS'a[8721]'
p5459
aS'a[618]'
p5460
aS'a[647]'
p5461
aS'a[2747]'
p5462
aS'a[6865]'
p5463
aS'a[5608]'
p5464
aS'a[414]'
p5465
aS'a[4549]'
p5466
aS'a[2442]'
p5467
aS'a[22]'
p5468
aS'a[198]'
p5469
aS'a[2484]'
p5470
aS'a[24]'
p5471
aS'a[159]'
p5472
aS'a[258]'
p5473
aS'a[6660]'
p5474
aS'a[8212]'
p5475
aS'a[1935]'
p5476
aS'a[2874]'
p5477
aS'a[243]'
p5478
aS'a[2655]'
p5479
aS'a[24]'
p5480
aS'a[647]'
p5481
aS'a[5362]'
p5482
aS'a[682]'
p5483
aS'a[1696]'
p5484
aS'a[7243]'
p5485
aS'a[298]'
p5486
aS'a[18]'
p5487
aS'a[92]'
p5488
aS'a[682]'
p5489
aS'a[9193]'
p5490
aS'a[159]'
p5491
aS'a[1096]'
p5492
aS'a[2683]'
p5493
aS'a[1096]'
p5494
aS'a[2839]'
p5495
aS'a[740]'
p5496
aS'a[3543]'
p5497
aS'a[223]'
p5498
aS'a[2557]'
p5499
aS'a[3981]'
p5500
aS'a[458]'
p5501
aS'a[6981]'
p5502
aS'a[5946]'
p5503
aS'a[8038]'
p5504
aS'a[139]'
p5505
aS'a[9011]'
p5506
aS'a[3502]'
p5507
aS'a[46]'
p5508
aS'a[605]'
p5509
aS'a[5106]'
p5510
aS'a[18]'
p5511
aS'a[3063]'
p5512
aS'a[71]'
p5513
aS'a[243]'
p5514
aS'a[3306]'
p5515
aS'a[189]'
p5516
aS'a[5263]'
p5517
aS'a[699]'
p5518
aS'a[939]'
p5519
aS'a[24]'
p5520
aS'a[4]'
p5521
aS'a[605]'
p5522
aS'a[2655]'
p5523
aS'a[3776]'
p5524
aS'a[24]'
p5525
aS'a[5030]'
p5526
aS'a[46]'
p5527
aS'a[3161]'
p5528
aS'a[3]'
p5529
aS'a[2410]'
p5530
aS'a[4828]'
p5531
aS'a[3776]'
p5532
aS'a[8522]'
p5533
aS'a[2521]'
p5534
aS'a[2939]'
p5535
aS'a[4869]'
p5536
aS'a[2410]'
p5537
aS'a[267]'
p5538
aS'a[6628]'
p5539
aS'a[198]'
p5540
aS'a[92]'
p5541
aS'a[6547]'
p5542
aS'a[92]'
p5543
aS'a[5198]'
p5544
aS'a[3176]'
p5545
aS'a[46]'
p5546
aS'a[1477]'
p5547
aS'a[458]'
p5548
aS'a[71]'
p5549
aS'a[740]'
p5550
aS'a[6600]'
p5551
aS'a[458]'
p5552
aS'a[1935]'
p5553
aS'a[1160]'
p5554
aS'a[5363]'
p5555
aS'a[24]'
p5556
aS'a[414]'
p5557
aS'a[1858]'
p5558
aS'a[3908]'
p5559
aS'a[310]'
p5560
aS'a[34]'
p5561
aS'a[6538]'
p5562
aS'a[1858]'
p5563
aS'a[1477]'
p5564
aS'a[189]'
p5565
aS'a[7546]'
p5566
aS'a[2939]'
p5567
aS'a[6596]'
p5568
aS'a[3072]'
p5569
aS'a[3776]'
p5570
aS'a[4753]'
p5571
aS'a[7786]'
p5572
aS'a[45]'
p5573
aS'a[46]'
p5574
aS'a[310]'
p5575
aS'a[1301]'
p5576
aS'a[5249]'
p5577
aS'a[7112]'
p5578
aS'a[6827]'
p5579
aS'a[5980]'
p5580
aS'a[2300]'
p5581
aS'a[124]'
p5582
aS'a[8517]'
p5583
aS'a[5634]'
p5584
aS'a[3072]'
p5585
aS'a[7236]'
p5586
aS'a[1442]'
p5587
aS'a[3415]'
p5588
aS'a[3748]'
p5589
aS'a[618]'
p5590
aS'a[6746]'
p5591
aS'a[8882]'
p5592
aS'a[46]'
p5593
aS'a[61]'
p5594
aS'a[2234]'
p5595
aS'a[1575]'
p5596
aS'a[5549]'
p5597
aS'a[35]'
p5598
aS'a[3511]'
p5599
aS'a[6664]'
p5600
aS'a[1130]'
p5601
aS'a[46]'
p5602
aS'a[1750]'
p5603
aS'a[24]'
p5604
aS'a[3]'
p5605
aS'a[4438]'
p5606
aS'a[35]'
p5607
aS'a[4243]'
p5608
aS'a[8103]'
p5609
aS'a[303]'
p5610
aS'a[24]'
p5611
aS'a[22]'
p5612
aS'a[223]'
p5613
aS'a[310]'
p5614
aS'a[371]'
p5615
aS'a[8103]'
p5616
aS'a[1263]'
p5617
aS'a[9087]'
p5618
aS'a[6594]'
p5619
aS'a[1679]'
p5620
aS'a[24]'
p5621
aS'a[1585]'
p5622
aS'a[8050]'
p5623
aS'a[7663]'
p5624
aS'a[2826]'
p5625
aS'a[8707]'
p5626
aS'a[9230]'
p5627
aS'a[3162]'
p5628
aS'a[1935]'
p5629
aS'a[1935]'
p5630
aS'a[458]'
p5631
aS'a[92]'
p5632
aS'a[189]'
p5633
aS'a[71]'
p5634
aS'a[4327]'
p5635
aS'a[8012]'
p5636
aS'a[191]'
p5637
aS'a[1]'
p5638
aS'a[8169]'
p5639
aS'a[5934]'
p5640
aS'a[168]'
p5641
aS'a[1911]'
p5642
aS'a[5160]'
p5643
aS'a[6343]'
p5644
aS'a[4]'
p5645
aS'a[1959]'
p5646
aS'a[4]'
p5647
aS'a[35]'
p5648
aS'a[8473]'
p5649
aS'a[8062]'
p5650
aS'a[4394]'
p5651
aS'a[2093]'
p5652
aS'a[155]'
p5653
aS'a[1257]'
p5654
aS'a[3161]'
p5655
aS'a[8103]'
p5656
aS'a[6889]'
p5657
aS'a[5740]'
p5658
aS'a[1560]'
p5659
aS'a[4933]'
p5660
aS'a[159]'
p5661
aS'a[301]'
p5662
aS'a[159]'
p5663
aS'a[699]'
p5664
aS'a[198]'
p5665
aS'a[92]'
p5666
aS'a[2410]'
p5667
aS'a[1082]'
p5668
aS'a[45]'
p5669
aS'a[291]'
p5670
aS'a[5202]'
p5671
aS'a[6181]'
p5672
aS'a[298]'
p5673
aS'a[3063]'
p5674
aS'a[351]'
p5675
aS'a[1807]'
p5676
aS'a[3160]'
p5677
aS'a[458]'
p5678
aS'a[8424]'
p5679
aS'a[24]'
p5680
aS'a[135]'
p5681
aS'a[8847]'
p5682
aS'a[62]'
p5683
aS'a[594]'
p5684
aS'a[682]'
p5685
aS'a[4247]'
p5686
aS'a[124]'
p5687
aS'a[2927]'
p5688
aS'a[45]'
p5689
aS'a[1541]'
p5690
aS'a[988]'
p5691
aS'a[18]'
p5692
aS'a[155]'
p5693
aS'a[61]'
p5694
aS'a[740]'
p5695
aS'a[5958]'
p5696
aS'a[1696]'
p5697
aS'a[8064]'
p5698
aS'a[9214]'
p5699
aS'a[5634]'
p5700
aS'a[3776]'
p5701
aS'a[92]'
p5702
aS'a[699]'
p5703
aS'a[1815]'
p5704
aS'a[3030]'
p5705
aS'a[1294]'
p5706
aS'a[6283]'
p5707
aS'a[1477]'
p5708
aS'a[9190]'
p5709
aS'a[24]'
p5710
aS'a[3638]'
p5711
aS'a[18]'
p5712
aS'a[6305]'
p5713
aS'a[267]'
p5714
aS'a[3029]'
p5715
aS'a[24]'
p5716
aS'a[2387]'
p5717
aS'a[3387]'
p5718
aS'a[1096]'
p5719
aS'a[618]'
p5720
aS'a[0]'
p5721
aS'a[6186]'
p5722
aS'a[6007]'
p5723
aS'a[956]'
p5724
aS'a[2410]'
p5725
aS'a[3776]'
p5726
aS'a[7271]'
p5727
aS'a[618]'
p5728
aS'a[298]'
p5729
aS'a[2939]'
p5730
aS'a[8171]'
p5731
aS'a[3928]'
p5732
aS'a[3839]'
p5733
aS'a[605]'
p5734
aS'a[4018]'
p5735
aS'a[1671]'
p5736
aS'a[8874]'
p5737
aS'a[4258]'
p5738
aS'a[988]'
p5739
aS'a[1090]'
p5740
aS'a[6675]'
p5741
aS'a[3070]'
p5742
aS'a[35]'
p5743
aS'a[61]'
p5744
aS'a[8038]'
p5745
aS'a[124]'
p5746
aS'a[751]'
p5747
aS'a[2217]'
p5748
aS'a[2278]'
p5749
aS'a[2683]'
p5750
aS'a[5106]'
p5751
aS'a[56]'
p5752
aS'a[159]'
p5753
aS'a[8926]'
p5754
aS'a[4720]'
p5755
aS'a[2683]'
p5756
aS'a[1935]'
p5757
aS'a[553]'
p5758
aS'a[100]'
p5759
aS'a[34]'
p5760
aS'a[52]'
p5761
aS'a[8590]'
p5762
aS'a[988]'
p5763
aS'a[7425]'
p5764
aS'a[3895]'
p5765
aS'a[988]'
p5766
aS'a[3339]'
p5767
aS'a[3908]'
p5768
aS'a[291]'
p5769
aS'a[24]'
p5770
aS'a[1257]'
p5771
aS'a[8200]'
p5772
aS'a[3162]'
p5773
aS'a[46]'
p5774
aS'a[3161]'
p5775
aS'a[3437]'
p5776
aS'a[4639]'
p5777
aS'a[120]'
p5778
aS'a[168]'
p5779
aS'a[1]'
p5780
aS'a[5106]'
p5781
aS'a[4304]'
p5782
aS'a[2521]'
p5783
aS'a[438]'
p5784
aS'a[3509]'
p5785
aS'a[46]'
p5786
aS'a[371]'
p5787
aS'a[1935]'
p5788
aS'a[699]'
p5789
aS'a[3]'
p5790
aS'a[988]'
p5791
aS'a[2410]'
p5792
aS'a[3731]'
p5793
aS'a[303]'
p5794
aS'a[5634]'
p5795
aS'a[24]'
p5796
aS'a[1541]'
p5797
aS'a[7780]'
p5798
aS'a[24]'
p5799
aS'a[4]'
p5800
aS'a[1580]'
p5801
aS'a[1585]'
p5802
aS'a[8784]'
p5803
aS'a[7095]'
p5804
aS'a[1694]'
p5805
aS'a[2610]'
p5806
aS'a[100]'
p5807
aS'a[2711]'
p5808
aS'a[1096]'
p5809
aS'a[101]'
p5810
aS'a[0]'
p5811
aS'a[46]'
p5812
aS'a[4529]'
p5813
aS'a[4]'
p5814
aS'a[5106]'
p5815
aS'a[7417]'
p5816
aS'a[5898]'
p5817
aS'a[191]'
p5818
aS'a[1725]'
p5819
aS'a[878]'
p5820
aS'a[749]'
p5821
aS'a[2300]'
p5822
aS'a[2939]'
p5823
aS'a[458]'
p5824
aS'a[3502]'
p5825
aS'a[8927]'
p5826
aS'a[6568]'
p5827
aS'a[2509]'
p5828
aS'a[682]'
p5829
aS'a[7262]'
p5830
aS'a[2310]'
p5831
aS'a[8338]'
p5832
aS'a[34]'
p5833
aS'a[35]'
p5834
aS'a[2328]'
p5835
aS'a[1580]'
p5836
aS'a[458]'
p5837
aS'a[5634]'
p5838
aS'a[92]'
p5839
aS'a[4208]'
p5840
aS'a[24]'
p5841
aS'a[8459]'
p5842
aS'a[414]'
p5843
aS'a[3072]'
p5844
aS'a[168]'
p5845
aS'a[1956]'
p5846
aS'a[3526]'
p5847
aS'a[1765]'
p5848
aS'a[3731]'
p5849
aS'a[62]'
p5850
aS'a[7618]'
p5851
aS'a[8078]'
p5852
aS'a[18]'
p5853
aS'a[2675]'
p5854
aS'a[301]'
p5855
aS'a[223]'
p5856
aS'a[4639]'
p5857
aS'a[5161]'
p5858
aS'a[4186]'
p5859
aS'a[1263]'
p5860
aS'a[1353]'
p5861
aS'a[5741]'
p5862
aS'a[3542]'
p5863
aS'a[46]'
p5864
aS'a[3219]'
p5865
aS'a[3152]'
p5866
aS'a[1257]'
p5867
aS'a[7564]'
p5868
aS'a[6873]'
p5869
aS'a[699]'
p5870
aS'a[3760]'
p5871
aS'a[301]'
p5872
aS'a[1094]'
p5873
aS'a[3696]'
p5874
aS'a[3]'
p5875
aS'a[92]'
p5876
aS'a[267]'
p5877
aS'a[6546]'
p5878
aS'a[3306]'
p5879
aS'a[7324]'
p5880
aS'a[794]'
p5881
aS'a[0]'
p5882
aS'a[5798]'
p5883
aS'a[35]'
p5884
aS'a[155]'
p5885
aS'a[3615]'
p5886
aS'a[1904]'
p5887
aS'a[3621]'
p5888
aS'a[1]'
p5889
aS'a[1092]'
p5890
aS'a[7859]'
p5891
aS'a[4757]'
p5892
aS'a[2787]'
p5893
aS'a[4529]'
p5894
aS'a[4497]'
p5895
aS'a[92]'
p5896
aS'a[618]'
p5897
aS'a[62]'
p5898
aS'a[6288]'
p5899
aS'a[2939]'
p5900
aS'a[4145]'
p5901
aS'a[532]'
p5902
aS'a[988]'
p5903
aS'a[3]'
p5904
aS'a[8103]'
p5905
aS'a[3416]'
p5906
aS'a[8203]'
p5907
aS'a[1727]'
p5908
aS'a[2683]'
p5909
aS'a[1541]'
p5910
aS'a[35]'
p5911
aS'a[310]'
p5912
aS'a[5685]'
p5913
aS'a[3502]'
p5914
aS'a[555]'
p5915
aS'a[5106]'
p5916
aS'a[3978]'
p5917
aS'a[189]'
p5918
aS'a[35]'
p5919
aS'a[1897]'
p5920
aS'a[5617]'
p5921
aS'a[618]'
p5922
aS'a[4529]'
p5923
aS'a[23]'
p5924
aS'a[2130]'
p5925
aS'a[191]'
p5926
aS'a[3731]'
p5927
aS'a[310]'
p5928
aS'a[124]'
p5929
aS'a[988]'
p5930
aS'a[46]'
p5931
aS'a[7807]'
p5932
aS'a[3161]'
p5933
aS'a[988]'
p5934
aS'a[8528]'
p5935
aS'a[223]'
p5936
aS'a[6960]'
p5937
aS'a[5249]'
p5938
aS'a[414]'
p5939
aS'a[2498]'
p5940
aS'a[7822]'
p5941
aS'a[1130]'
p5942
aS'a[24]'
p5943
aS'a[749]'
p5944
aS'a[1580]'
p5945
aS'a[605]'
p5946
aS'a[46]'
p5947
aS'a[2683]'
p5948
aS'a[7473]'
p5949
aS'a[4639]'
p5950
aS'a[988]'
p5951
aS'a[18]'
p5952
aS'a[6069]'
p5953
aS'a[956]'
p5954
aS'a[56]'
p5955
aS'a[301]'
p5956
aS'a[7263]'
p5957
aS'a[45]'
p5958
aS'a[7622]'
p5959
aS'a[135]'
p5960
aS'a[243]'
p5961
aS'a[956]'
p5962
aS'a[1807]'
p5963
aS'a[159]'
p5964
aS'a[1580]'
p5965
aS'a[1081]'
p5966
aS'a[168]'
p5967
aS'a[7945]'
p5968
aS'a[24]'
p5969
aS'a[2939]'
p5970
aS'a[988]'
p5971
aS'a[1960]'
p5972
aS'a[3155]'
p5973
aS'a[301]'
p5974
aS'a[2683]'
p5975
aS'a[135]'
p5976
aS'a[2482]'
p5977
aS'a[2130]'
p5978
aS'a[33]'
p5979
aS'a[1696]'
p5980
aS'a[92]'
p5981
aS'a[201]'
p5982
aS'a[223]'
p5983
aS'a[647]'
p5984
aS'a[1897]'
p5985
aS'a[223]'
p5986
aS'a[3700]'
p5987
aS'a[22]'
p5988
aS'a[18]'
p5989
aS'a[7251]'
p5990
aS'a[298]'
p5991
aS'a[3928]'
p5992
aS'a[5404]'
p5993
aS'a[291]'
p5994
aS'a[303]'
p5995
aS'a[385]'
p5996
aS'a[682]'
p5997
aS'a[1081]'
p5998
aS'a[52]'
p5999
aS'a[1092]'
p6000
aS'a[9057]'
p6001
aS'a[7424]'
p6002
aS'a[267]'
p6003
aS'a[1807]'
p6004
aS'a[3888]'
p6005
aS'a[1789]'
p6006
aS'a[4571]'
p6007
aS'a[1092]'
p6008
aS'a[1897]'
p6009
aS'a[2019]'
p6010
aS'a[2452]'
p6011
aS'a[8617]'
p6012
aS'a[647]'
p6013
aS'a[3021]'
p6014
aS'a[555]'
p6015
aS'a[699]'
p6016
aS'a[8512]'
p6017
aS'a[9106]'
p6018
aS'a[4639]'
p6019
aS'a[8038]'
p6020
aS'a[8953]'
p6021
aS'a[8301]'
p6022
aS'a[1696]'
p6023
aS'a[7132]'
p6024
aS'a[1657]'
p6025
aS'a[3063]'
p6026
aS'a[7114]'
p6027
aS'a[1082]'
p6028
aS'a[1854]'
p6029
aS'a[5318]'
p6030
aS'a[66]'
p6031
aS'a[938]'
p6032
aS'a[735]'
p6033
aS'a[4639]'
p6034
aS'a[618]'
p6035
aS'a[414]'
p6036
aS'a[24]'
p6037
aS'a[159]'
p6038
aS'a[5182]'
p6039
aS'a[5461]'
p6040
aS'a[2119]'
p6041
aS'a[1449]'
p6042
aS'a[7178]'
p6043
aS'a[1897]'
p6044
aS'a[8654]'
p6045
aS'a[4572]'
p6046
aS'a[8103]'
p6047
aS'a[0]'
p6048
aS'a[24]'
p6049
aS'a[325]'
p6050
aS'a[772]'
p6051
aS'a[1807]'
p6052
aS'a[7242]'
p6053
aS'a[8141]'
p6054
aS'a[8835]'
p6055
aS'a[2683]'
p6056
aS'a[1815]'
p6057
aS'a[24]'
p6058
aS'a[5180]'
p6059
aS'a[2498]'
p6060
aS'a[303]'
p6061
aS'a[3729]'
p6062
aS'a[155]'
p6063
aS'a[3776]'
p6064
aS'a[155]'
p6065
aS'a[298]'
p6066
aS'a[6733]'
p6067
aS'a[1096]'
p6068
aS'a[5812]'
p6069
aS'a[191]'
p6070
aS'a[5417]'
p6071
aS'a[2675]'
p6072
aS'a[1696]'
p6073
aS'a[8321]'
p6074
aS'a[35]'
p6075
aS'a[267]'
p6076
aS'a[198]'
p6077
aS'a[24]'
p6078
aS'a[5012]'
p6079
aS'a[8372]'
p6080
aS'a[2149]'
p6081
aS'a[3072]'
p6082
aS'a[2302]'
p6083
aS'a[168]'
p6084
aS'a[92]'
p6085
aS'a[4410]'
p6086
aS'a[1096]'
p6087
aS'a[135]'
p6088
aS'a[351]'
p6089
aS'a[3448]'
p6090
aS'a[9070]'
p6091
aS'a[24]'
p6092
aS'a[56]'
p6093
aS'a[34]'
p6094
aS'a[0]'
p6095
aS'a[8003]'
p6096
aS'a[3]'
p6097
aS'a[198]'
p6098
aS'a[2939]'
p6099
aS'a[24]'
p6100
aS'a[298]'
p6101
aS'a[350]'
p6102
aS'a[699]'
p6103
aS'a[3]'
p6104
aS'a[6214]'
p6105
aS'a[414]'
p6106
aS'a[5433]'
p6107
aS'a[8068]'
p6108
aS'a[14]'
p6109
aS'a[3063]'
p6110
aS'a[62]'
p6111
aS'a[8443]'
p6112
aS'a[8131]'
p6113
aS'a[8009]'
p6114
aS'a[3969]'
p6115
aS'a[555]'
p6116
aS'a[1474]'
p6117
aS'a[1541]'
p6118
aS'a[4]'
p6119
aS'a[957]'
p6120
aS'a[532]'
p6121
aS'a[6706]'
p6122
aS'a[201]'
p6123
aS'a[3]'
p6124
aS'a[61]'
p6125
aS'a[383]'
p6126
aS'a[310]'
p6127
aS'a[3731]'
p6128
aS'a[1897]'
p6129
aS'a[5435]'
p6130
aS'a[2683]'
p6131
aS'a[1897]'
p6132
aS'a[3161]'
p6133
aS'a[7610]'
p6134
aS'a[8439]'
p6135
aS'a[267]'
p6136
aS'a[3]'
p6137
aS'a[52]'
p6138
aS'a[3]'
p6139
aS'a[900]'
p6140
aS'a[6293]'
p6141
aS'a[682]'
p6142
aS'a[135]'
p6143
aS'a[35]'
p6144
aS'a[354]'
p6145
aS'a[201]'
p6146
aS'a[3132]'
p6147
aS'a[3992]'
p6148
aS'a[1541]'
p6149
aS'a[740]'
p6150
aS'a[310]'
p6151
aS'a[3495]'
p6152
aS'a[8103]'
p6153
aS'a[7859]'
p6154
aS'a[5665]'
p6155
aS'a[7707]'
p6156
aS'a[3908]'
p6157
aS'a[2410]'
p6158
aS'a[711]'
p6159
aS'a[6240]'
p6160
aS'a[1434]'
p6161
aS'a[6970]'
p6162
aS'a[3903]'
p6163
aS'a[2096]'
p6164
aS'a[4918]'
p6165
aS'a[8803]'
p6166
aS'a[5767]'
p6167
aS'a[45]'
p6168
aS'a[1439]'
p6169
aS'a[1477]'
p6170
aS'a[3215]'
p6171
aS'a[0]'
p6172
aS'a[46]'
p6173
aS'a[7427]'
p6174
aS'a[7150]'
p6175
aS'a[1807]'
p6176
aS'a[71]'
p6177
aS'a[139]'
p6178
aS'a[3776]'
p6179
aS'a[298]'
p6180
aS'a[1477]'
p6181
aS'a[3776]'
p6182
aS'a[6265]'
p6183
aS'a[3908]'
p6184
aS'a[2521]'
p6185
aS'a[4018]'
p6186
aS'a[61]'
p6187
aS'a[8720]'
p6188
aS'a[2195]'
p6189
aS'a[5519]'
p6190
aS'a[5102]'
p6191
aS'a[168]'
p6192
aS'a[7831]'
p6193
aS'a[1728]'
p6194
aS'a[45]'
p6195
aS'a[24]'
p6196
aS'a[840]'
p6197
aS'a[647]'
p6198
aS'a[7696]'
p6199
aS'a[7882]'
p6200
aS'a[3193]'
p6201
aS'a[8983]'
p6202
aS'a[267]'
p6203
aS'a[4935]'
p6204
aS'a[438]'
p6205
aS'a[5634]'
p6206
aS'a[4639]'
p6207
aS'a[163]'
p6208
aS'a[168]'
p6209
aS'a[4529]'
p6210
aS'a[1858]'
p6211
aS'a[6415]'
p6212
aS'a[2226]'
p6213
aS'a[4861]'
p6214
aS'a[18]'
p6215
aS'a[4466]'
p6216
aS'a[1]'
p6217
aS'a[7358]'
p6218
aS'a[3731]'
p6219
aS'a[1773]'
p6220
aS'a[6163]'
p6221
aS'a[1807]'
p6222
aS'a[3072]'
p6223
aS'a[3070]'
p6224
aS'a[155]'
p6225
aS'a[7030]'
p6226
aS'a[8180]'
p6227
aS'a[1632]'
p6228
aS'a[14]'
p6229
aS'a[8038]'
p6230
aS'a[3]'
p6231
aS'a[7905]'
p6232
aS'a[71]'
p6233
aS'a[3070]'
p6234
aS'a[243]'
p6235
aS'a[7078]'
p6236
aS'a[3359]'
p6237
aS'a[618]'
p6238
aS'a[3928]'
p6239
aS'a[322]'
p6240
aS'a[682]'
p6241
aS'a[4018]'
p6242
aS'a[2130]'
p6243
aS'a[4639]'
p6244
aS'a[3675]'
p6245
aS'a[6909]'
p6246
aS'a[7038]'
p6247
aS'a[3041]'
p6248
aS'a[8009]'
p6249
aS'a[2417]'
p6250
aS'a[2130]'
p6251
aS'a[22]'
p6252
aS'a[3502]'
p6253
aS'a[62]'
p6254
aS'a[1585]'
p6255
aS'a[3559]'
p6256
aS'a[196]'
p6257
aS'a[22]'
p6258
aS'a[24]'
p6259
aS'a[8514]'
p6260
aS'a[5051]'
p6261
aS'a[5180]'
p6262
aS'a[770]'
p6263
aS'a[1585]'
p6264
aS'a[0]'
p6265
aS'a[3543]'
p6266
aS'a[62]'
p6267
aS'a[6127]'
p6268
aS'a[8008]'
p6269
aS'a[2155]'
p6270
aS'a[1080]'
p6271
aS'a[3615]'
p6272
aS'a[4810]'
p6273
aS'a[198]'
p6274
aS'a[3162]'
p6275
aS'a[3]'
p6276
aS'a[2675]'
p6277
aS'a[189]'
p6278
aS'a[5897]'
p6279
aS'a[1240]'
p6280
aS'a[159]'
p6281
aS'a[3024]'
p6282
aS'a[3051]'
p6283
aS'a[1580]'
p6284
aS'a[92]'
p6285
aS'a[1807]'
p6286
aS'a[647]'
p6287
aS'a[1897]'
p6288
aS'a[7704]'
p6289
aS'a[3731]'
p6290
aS'a[3958]'
p6291
aS'a[34]'
p6292
aS'a[5158]'
p6293
aS'a[1064]'
p6294
aS'a[3070]'
p6295
aS'a[1184]'
p6296
aS'a[555]'
p6297
aS'a[7279]'
p6298
aS'a[8439]'
p6299
aS'a[6948]'
p6300
aS'a[2391]'
p6301
aS'a[4]'
p6302
aS'a[307]'
p6303
aS'a[0]'
p6304
aS'a[7354]'
p6305
aS'a[3344]'
p6306
aS'a[3776]'
p6307
aS'a[133]'
p6308
aS'a[5300]'
p6309
aS'a[8268]'
p6310
aS'a[1783]'
p6311
aS'a[301]'
p6312
aS'a[8499]'
p6313
aS'a[8038]'
p6314
aS'a[801]'
p6315
aS'a[6825]'
p6316
aS'a[2719]'
p6317
aS'a[24]'
p6318
aS'a[3]'
p6319
aS'a[2672]'
p6320
aS'a[8103]'
p6321
aS'a[3]'
p6322
aS'a[699]'
p6323
aS'a[35]'
p6324
aS'a[4048]'
p6325
aS'a[9178]'
p6326
aS'a[229]'
p6327
aS'a[168]'
p6328
aS'a[298]'
p6329
aS'a[1541]'
p6330
aS'a[542]'
p6331
aS'a[988]'
p6332
aS'a[301]'
p6333
aS'a[956]'
p6334
aS'a[6365]'
p6335
aS'a[2498]'
p6336
aS'a[33]'
p6337
aS'a[24]'
p6338
aS'a[34]'
p6339
aS'a[24]'
p6340
aS'a[45]'
p6341
aS'a[2485]'
p6342
aS'a[3971]'
p6343
aS'a[8103]'
p6344
aS'a[6229]'
p6345
aS'a[4973]'
p6346
aS'a[168]'
p6347
aS'a[279]'
p6348
aS'a[301]'
p6349
aS'a[3776]'
p6350
aS'a[0]'
p6351
aS'a[3]'
p6352
aS'a[71]'
p6353
aS'a[310]'
p6354
aS'a[2675]'
p6355
aS'a[5037]'
p6356
aS'a[35]'
p6357
aS'a[8162]'
p6358
aS'a[168]'
p6359
aS'a[2932]'
p6360
aS'a[555]'
p6361
aS'a[3528]'
p6362
aS'a[5249]'
p6363
aS'a[18]'
p6364
aS'a[3614]'
p6365
aS'a[1139]'
p6366
aS'a[24]'
p6367
aS'a[35]'
p6368
aS'a[198]'
p6369
aS'a[3030]'
p6370
aS'a[682]'
p6371
aS'a[310]'
p6372
aS'a[1580]'
p6373
aS'a[2148]'
p6374
aS'a[8008]'
p6375
aS'a[2582]'
p6376
aS'a[22]'
p6377
aS'a[5309]'
p6378
aS'a[267]'
p6379
aS'a[135]'
p6380
aS'a[6207]'
p6381
aS'a[24]'
p6382
aS'a[135]'
p6383
aS'a[3615]'
p6384
aS'a[749]'
p6385
aS'a[3263]'
p6386
aS'a[8391]'
p6387
aS'a[1348]'
p6388
aS'a[35]'
p6389
aS'a[699]'
p6390
aS'a[8878]'
p6391
aS'a[191]'
p6392
aS'a[4655]'
p6393
aS'a[1096]'
p6394
aS'a[568]'
p6395
aS'a[3602]'
p6396
aS'a[7260]'
p6397
aS'a[457]'
p6398
aS'a[5106]'
p6399
aS'a[5219]'
p6400
aS'a[3]'
p6401
aS'a[618]'
p6402
aS'a[258]'
p6403
aS'a[135]'
p6404
aS'a[35]'
p6405
aS'a[35]'
p6406
aS'a[62]'
p6407
aS'a[988]'
p6408
aS'a[8009]'
p6409
aS'a[1]'
p6410
aS'a[3105]'
p6411
aS'a[1455]'
p6412
aS'a[267]'
p6413
aS'a[5583]'
p6414
aS'a[3070]'
p6415
aS'a[223]'
p6416
aS'a[4038]'
p6417
aS'a[8103]'
p6418
aS'a[7089]'
p6419
aS'a[4935]'
p6420
aS'a[1082]'
p6421
aS'a[6657]'
p6422
aS'a[749]'
p6423
aS'a[8112]'
p6424
aS'a[1897]'
p6425
aS'a[8945]'
p6426
aS'a[298]'
p6427
aS'a[0]'
p6428
aS'a[258]'
p6429
aS'a[2988]'
p6430
aS'a[17]'
p6431
aS'a[8137]'
p6432
aS'a[740]'
p6433
aS'a[189]'
p6434
aS'a[1696]'
p6435
aS'a[301]'
p6436
aS'a[371]'
p6437
aS'a[2683]'
p6438
aS'a[6034]'
p6439
aS'a[8009]'
p6440
aS'a[124]'
p6441
aS'a[956]'
p6442
aS'a[61]'
p6443
aS'a[3790]'
p6444
aS'a[8009]'
p6445
aS'a[2704]'
p6446
aS'a[1580]'
p6447
aS'a[155]'
p6448
aS'a[6090]'
p6449
aS'a[3908]'
p6450
aS'a[24]'
p6451
aS'a[267]'
p6452
aS'a[201]'
p6453
aS'a[7349]'
p6454
aS'a[24]'
p6455
aS'a[2675]'
p6456
aS'a[3]'
p6457
aS'a[2683]'
p6458
aS'a[7479]'
p6459
aS'a[1585]'
p6460
aS'a[62]'
p6461
aS'a[478]'
p6462
aS'a[1897]'
p6463
aS'a[303]'
p6464
aS'a[3731]'
p6465
aS'a[8589]'
p6466
aS'a[258]'
p6467
aS'a[7871]'
p6468
aS'a[1032]'
p6469
aS'a[2945]'
p6470
aS'a[35]'
p6471
aS'a[258]'
p6472
aS'a[189]'
p6473
aS'a[33]'
p6474
aS'a[5045]'
p6475
aS'a[260]'
p6476
aS'a[3616]'
p6477
aS'a[56]'
p6478
aS'a[1585]'
p6479
aS'a[291]'
p6480
aS'a[1947]'
p6481
aS'a[191]'
p6482
aS'a[3615]'
p6483
aS'a[1858]'
p6484
aS'a[7208]'
p6485
aS'a[1081]'
p6486
aS'a[8529]'
p6487
aS'a[7211]'
p6488
aS'a[3155]'
p6489
aS'a[1428]'
p6490
aS'a[5678]'
p6491
aS'a[4514]'
p6492
aS'a[6925]'
p6493
aS'a[168]'
p6494
aS'a[291]'
p6495
aS'a[4861]'
p6496
aS'a[162]'
p6497
aS'a[8103]'
p6498
aS'a[4281]'
p6499
aS'a[189]'
p6500
aS'a[2086]'
p6501
aS'a[3072]'
p6502
aS'a[5249]'
p6503
aS'a[6948]'
p6504
aS'a[2300]'
p6505
aS'a[1263]'
p6506
aS'a[2683]'
p6507
aS'a[62]'
p6508
aS'a[35]'
p6509
aS'a[8038]'
p6510
aS'a[1807]'
p6511
aS'a[45]'
p6512
aS'a[8009]'
p6513
aS'a[4517]'
p6514
aS'a[1539]'
p6515
aS'a[223]'
p6516
aS'a[291]'
p6517
aS'a[647]'
p6518
aS'a[3956]'
p6519
aS'a[6447]'
p6520
aS'a[8685]'
p6521
aS'a[1809]'
p6522
aS'a[699]'
p6523
aS'a[2705]'
p6524
aS'a[6900]'
p6525
aS'a[6410]'
p6526
aS'a[1477]'
p6527
aS'a[3328]'
p6528
aS'a[6608]'
p6529
aS'a[1585]'
p6530
aS'a[749]'
p6531
aS'a[5249]'
p6532
aS'a[18]'
p6533
aS'a[198]'
p6534
aS'a[7071]'
p6535
aS'a[4482]'
p6536
aS'a[2675]'
p6537
aS'a[6649]'
p6538
aS'a[46]'
p6539
aS'a[46]'
p6540
aS'a[6222]'
p6541
aS'a[7302]'
p6542
aS'a[807]'
p6543
aS'a[1081]'
p6544
aS'a[40]'
p6545
aS'a[1729]'
p6546
aS'a[2662]'
p6547
aS'a[8613]'
p6548
aS'a[260]'
p6549
aS'a[22]'
p6550
aS'a[6504]'
p6551
aS'a[711]'
p6552
aS'a[394]'
p6553
aS'a[6978]'
p6554
aS'a[0]'
p6555
aS'a[3]'
p6556
aS'a[17]'
p6557
aS'a[310]'
p6558
aS'a[24]'
p6559
aS'a[2498]'
p6560
aS'a[33]'
p6561
aS'a[8031]'
p6562
aS'a[2123]'
p6563
aS'a[8659]'
p6564
aS'a[5786]'
p6565
aS'a[2130]'
p6566
aS'a[3896]'
p6567
aS'a[5249]'
p6568
aS'a[243]'
p6569
aS'a[1835]'
p6570
aS'a[7790]'
p6571
aS'a[2599]'
p6572
aS'a[2683]'
p6573
aS'a[7166]'
p6574
aS'a[301]'
p6575
aS'a[2300]'
p6576
aS'a[155]'
p6577
aS'a[5237]'
p6578
aS'a[14]'
p6579
aS'a[3063]'
p6580
aS'a[7228]'
p6581
aS'a[1897]'
p6582
aS'a[3205]'
p6583
aS'a[1257]'
p6584
aS'a[291]'
p6585
aS'a[155]'
p6586
aS'a[1266]'
p6587
aS'a[3118]'
p6588
aS'a[3731]'
p6589
aS'a[8372]'
p6590
aS'a[298]'
p6591
aS'a[324]'
p6592
aS'a[8038]'
p6593
aS'a[212]'
p6594
aS'a[537]'
p6595
aS'a[5106]'
p6596
aS'a[3943]'
p6597
aS'a[5476]'
p6598
aS'a[3162]'
p6599
aS'a[56]'
p6600
aS'a[1585]'
p6601
aS'a[267]'
p6602
aS'a[1637]'
p6603
aS'a[14]'
p6604
aS'a[1858]'
p6605
aS'a[389]'
p6606
aS'a[135]'
p6607
aS'a[1477]'
p6608
aS'a[3908]'
p6609
aS'a[8685]'
p6610
aS'a[682]'
p6611
aS'a[4877]'
p6612
aS'a[61]'
p6613
aS'a[9165]'
p6614
aS'a[4817]'
p6615
aS'a[189]'
p6616
aS'a[92]'
p6617
aS'a[189]'
p6618
aS'a[3610]'
p6619
aS'a[7562]'
p6620
aS'a[24]'
p6621
aS'a[1858]'
p6622
aS'a[35]'
p6623
aS'a[1935]'
p6624
aS'a[258]'
p6625
aS'a[1096]'
p6626
aS'a[1202]'
p6627
aS'a[8038]'
p6628
aS'a[647]'
p6629
aS'a[6756]'
p6630
aS'a[3286]'
p6631
aS'a[1541]'
p6632
aS'a[3615]'
p6633
aS'a[1897]'
p6634
aS'a[45]'
p6635
aS'a[3072]'
p6636
aS'a[24]'
p6637
aS'a[6482]'
p6638
aS'a[3070]'
p6639
aS'a[111]'
p6640
aS'a[8009]'
p6641
aS'a[3]'
p6642
aS'a[635]'
p6643
aS'a[5531]'
p6644
aS'a[3615]'
p6645
aS'a[3063]'
p6646
aS'a[92]'
p6647
aS'a[4529]'
p6648
aS'a[62]'
p6649
aS'a[92]'
p6650
aS'a[1141]'
p6651
aS'a[7163]'
p6652
aS'a[843]'
p6653
aS'a[414]'
p6654
aS'a[2939]'
p6655
aS'a[3950]'
p6656
aS'a[8270]'
p6657
aS'a[371]'
p6658
aS'a[3502]'
p6659
aS'a[1935]'
p6660
aS'a[4529]'
p6661
aS'a[3072]'
p6662
aS'a[6311]'
p6663
aS'a[92]'
p6664
aS'a[134]'
p6665
aS'a[4316]'
p6666
aS'a[56]'
p6667
aS'a[267]'
p6668
aS'a[1]'
p6669
aS'a[2130]'
p6670
aS'a[1585]'
p6671
aS'a[5745]'
p6672
aS'a[8796]'
p6673
aS'a[797]'
p6674
aS'a[2816]'
p6675
aS'a[5038]'
p6676
aS'a[1935]'
p6677
aS'a[1081]'
p6678
aS'a[6619]'
p6679
aS'a[3928]'
p6680
aS'a[2300]'
p6681
aS'a[2483]'
p6682
aS'a[773]'
p6683
aS'a[4552]'
p6684
aS'a[4561]'
p6685
aS'a[24]'
p6686
aS'a[8520]'
p6687
aS'a[1585]'
p6688
aS'a[24]'
p6689
aS'a[2300]'
p6690
aS'a[2744]'
p6691
aS'a[260]'
p6692
aS'a[8891]'
p6693
aS'a[24]'
p6694
aS'a[5158]'
p6695
aS'a[267]'
p6696
aS'a[4105]'
p6697
aS'a[674]'
p6698
aS'a[1807]'
p6699
aS'a[475]'
p6700
aS'a[24]'
p6701
aS'a[4133]'
p6702
aS'a[8941]'
p6703
aS'a[642]'
p6704
aS'a[34]'
p6705
aS'a[92]'
p6706
aS'a[35]'
p6707
aS'a[4116]'
p6708
aS'a[267]'
p6709
aS'a[1775]'
p6710
aS'a[92]'
p6711
aS'a[14]'
p6712
aS'a[371]'
p6713
aS'a[2675]'
p6714
aS'a[2440]'
p6715
aS'a[34]'
p6716
aS'a[223]'
p6717
aS'a[2683]'
p6718
aS'a[301]'
p6719
aS'a[4079]'
p6720
aS'a[155]'
p6721
aS'a[6516]'
p6722
aS'a[3928]'
p6723
aS'a[2521]'
p6724
aS'a[9186]'
p6725
aS'a[201]'
p6726
aS'a[4511]'
p6727
aS'a[35]'
p6728
aS'a[2494]'
p6729
aS'a[189]'
p6730
aS'a[4832]'
p6731
aS'a[8976]'
p6732
aS'a[7703]'
p6733
aS'a[1082]'
p6734
aS'a[7779]'
p6735
aS'a[155]'
p6736
aS'a[1130]'
p6737
aS'a[2939]'
p6738
aS'a[3]'
p6739
aS'a[24]'
p6740
aS'a[33]'
p6741
aS'a[18]'
p6742
aS'a[2130]'
p6743
aS'a[267]'
p6744
aS'a[258]'
p6745
aS'a[159]'
p6746
aS'a[34]'
p6747
aS'a[6227]'
p6748
aS'a[5106]'
p6749
aS'a[1]'
p6750
aS'a[45]'
p6751
aS'a[258]'
p6752
aS'a[837]'
p6753
aS'a[595]'
p6754
aS'a[34]'
p6755
aS'a[34]'
p6756
aS'a[2300]'
p6757
aS'a[956]'
p6758
aS'a[906]'
p6759
aS'a[2920]'
p6760
aS'a[3217]'
p6761
aS'a[1185]'
p6762
aS'a[2386]'
p6763
aS'a[258]'
p6764
aS'a[1858]'
p6765
aS'a[1096]'
p6766
aS'a[35]'
p6767
aS'a[1]'
p6768
aS'a[1858]'
p6769
aS'a[139]'
p6770
aS'a[555]'
p6771
aS'a[4935]'
p6772
aS'a[8009]'
p6773
aS'a[23]'
p6774
aS'a[24]'
p6775
aS'a[699]'
p6776
aS'a[5634]'
p6777
aS'a[2655]'
p6778
aS'a[1696]'
p6779
aS'a[100]'
p6780
aS'a[291]'
p6781
aS'a[2283]'
p6782
aS'a[5634]'
p6783
aS'a[8038]'
p6784
aS'a[4766]'
p6785
aS'a[34]'
p6786
aS'a[2052]'
p6787
aS'a[3]'
p6788
aS'a[1092]'
p6789
aS'a[7057]'
p6790
aS'a[6108]'
p6791
aS'a[1600]'
p6792
aS'a[18]'
p6793
aS'a[35]'
p6794
aS'a[168]'
p6795
aS'a[155]'
p6796
aS'a[130]'
p6797
aS'a[291]'
p6798
aS'a[1696]'
p6799
aS'a[2683]'
p6800
aS'a[1541]'
p6801
aS'a[24]'
p6802
aS'a[303]'
p6803
aS'a[8984]'
p6804
aS'a[301]'
p6805
aS'a[24]'
p6806
aS'a[2675]'
p6807
aS'a[5231]'
p6808
aS'a[8097]'
p6809
aS'a[7821]'
p6810
aS'a[2256]'
p6811
aS'a[267]'
p6812
aS'a[643]'
p6813
aS'a[1244]'
p6814
aS'a[3615]'
p6815
aS'a[3776]'
p6816
aS'a[458]'
p6817
aS'a[69]'
p6818
aS'a[7196]'
p6819
aS'a[8634]'
p6820
aS'a[3372]'
p6821
aS'a[1585]'
p6822
aS'a[1477]'
p6823
aS'a[1263]'
p6824
aS'a[7870]'
p6825
aS'a[8012]'
p6826
aS'a[8174]'
p6827
aS'a[3]'
p6828
aS'a[100]'
p6829
aS'a[24]'
p6830
aS'a[8658]'
p6831
aS'a[1526]'
p6832
aS'a[1897]'
p6833
aS'a[8340]'
p6834
aS'a[5888]'
p6835
aS'a[1]'
p6836
aS'a[8684]'
p6837
aS'a[351]'
p6838
aS'a[3469]'
p6839
aS'a[223]'
p6840
aS'a[956]'
p6841
aS'a[258]'
p6842
aS'a[2498]'
p6843
aS'a[18]'
p6844
aS'a[124]'
p6845
aS'a[14]'
p6846
aS'a[381]'
p6847
aS'a[5014]'
p6848
aS'a[5583]'
p6849
aS'a[5634]'
p6850
aS'a[56]'
p6851
aS'a[408]'
p6852
aS'a[2300]'
p6853
aS'a[618]'
p6854
aS'a[6880]'
p6855
aS'a[956]'
p6856
aS'a[2598]'
p6857
aS'a[2521]'
p6858
aS'a[159]'
p6859
aS'a[8774]'
p6860
aS'a[3063]'
p6861
aS'a[34]'
p6862
aS'a[301]'
p6863
aS'a[3890]'
p6864
aS'a[18]'
p6865
aS'a[24]'
p6866
aS'a[3908]'
p6867
aS'a[139]'
p6868
aS'a[5832]'
p6869
aS'a[5324]'
p6870
aS'a[3502]'
p6871
aS'a[3162]'
p6872
aS'a[1585]'
p6873
aS'a[6143]'
p6874
aS'a[2655]'
p6875
aS'a[434]'
p6876
aS'a[2430]'
p6877
aS'a[243]'
p6878
aS'a[438]'
p6879
aS'a[189]'
p6880
aS'a[988]'
p6881
aS'a[5604]'
p6882
aS'a[8799]'
p6883
aS'a[301]'
p6884
aS'a[508]'
p6885
aS'a[7334]'
p6886
aS'a[7105]'
p6887
aS'a[8037]'
p6888
aS'a[7322]'
p6889
aS'a[3633]'
p6890
aS'a[6241]'
p6891
aS'a[3663]'
p6892
aS'a[2130]'
p6893
aS'a[1580]'
p6894
aS'a[46]'
p6895
aS'a[310]'
p6896
aS'a[605]'
p6897
aS'a[7862]'
p6898
aS'a[1257]'
p6899
aS'a[5796]'
p6900
aS'a[699]'
p6901
aS'a[1696]'
p6902
aS'a[8038]'
p6903
aS'a[685]'
p6904
aS'a[6028]'
p6905
aS'a[740]'
p6906
aS'a[8878]'
p6907
aS'a[3161]'
p6908
aS'a[3070]'
p6909
aS'a[350]'
p6910
aS'a[301]'
p6911
aS'a[618]'
p6912
aS'a[8265]'
p6913
aS'a[834]'
p6914
aS'a[3615]'
p6915
aS'a[618]'
p6916
aS'a[988]'
p6917
aS'a[1081]'
p6918
aS'a[260]'
p6919
aS'a[4187]'
p6920
aS'a[682]'
p6921
aS'a[3]'
p6922
aS'a[45]'
p6923
aS'a[8038]'
p6924
aS'a[647]'
p6925
aS'a[3651]'
p6926
aS'a[3405]'
p6927
aS'a[682]'
p6928
aS'a[7986]'
p6929
aS'a[24]'
p6930
aS'a[135]'
p6931
aS'a[33]'
p6932
aS'a[6769]'
p6933
aS'a[840]'
p6934
aS'a[8009]'
p6935
aS'a[33]'
p6936
aS'a[4668]'
p6937
aS'a[618]'
p6938
aS'a[3]'
p6939
aS'a[1113]'
p6940
aS'a[1873]'
p6941
aS'a[5553]'
p6942
aS'a[2655]'
p6943
aS'a[1401]'
p6944
aS'a[4504]'
p6945
aS'a[458]'
p6946
aS'a[310]'
p6947
aS'a[3]'
p6948
aS'a[298]'
p6949
aS'a[46]'
p6950
aS'a[4935]'
p6951
aS'a[1580]'
p6952
aS'a[35]'
p6953
aS'a[3162]'
p6954
aS'a[8009]'
p6955
aS'a[35]'
p6956
aS'a[1585]'
p6957
aS'a[124]'
p6958
aS'a[34]'
p6959
aS'a[1911]'
p6960
aS'a[1]'
p6961
aS'a[5648]'
p6962
aS'a[1046]'
p6963
aS'a[1263]'
p6964
aS'a[33]'
p6965
aS'a[1092]'
p6966
aS'a[6520]'
p6967
aS'a[1580]'
p6968
aS'a[3]'
p6969
aS'a[33]'
p6970
aS'a[8852]'
p6971
aS'a[223]'
p6972
aS'a[4665]'
p6973
aS'a[168]'
p6974
aS'a[24]'
p6975
aS'a[298]'
p6976
aS'a[35]'
p6977
aS'a[2683]'
p6978
aS'a[5584]'
p6979
aS'a[4579]'
p6980
aS'a[2683]'
p6981
aS'a[5382]'
p6982
aS'a[301]'
p6983
aS'a[8009]'
p6984
aS'a[155]'
p6985
aS'a[3908]'
p6986
aS'a[2300]'
p6987
aS'a[24]'
p6988
aS'a[7241]'
p6989
aS'a[6894]'
p6990
aS'a[159]'
p6991
aS'a[1263]'
p6992
aS'a[2294]'
p6993
aS'a[8213]'
p6994
aS'a[291]'
p6995
aS'a[5032]'
p6996
aS'a[7174]'
p6997
aS'a[3121]'
p6998
aS'a[699]'
p6999
aS'a[5106]'
p7000
aS'a[4924]'
p7001
aS'a[1611]'
p7002
aS'a[3928]'
p7003
aS'a[5744]'
p7004
aS'a[6201]'
p7005
aS'a[1060]'
p7006
aS'a[6914]'
p7007
aS'a[4440]'
p7008
aS'a[2655]'
p7009
aS'a[5106]'
p7010
aS'a[0]'
p7011
aS'a[3070]'
p7012
aS'a[1477]'
p7013
aS'a[34]'
p7014
aS'a[301]'
p7015
aS'a[24]'
p7016
aS'a[1257]'
p7017
aS'a[4547]'
p7018
aS'a[1477]'
p7019
aS'a[8038]'
p7020
aS'a[46]'
p7021
aS'a[1226]'
p7022
aS'a[749]'
p7023
aS'a[1858]'
p7024
aS'a[3908]'
p7025
aS'a[4780]'
p7026
aS'a[258]'
p7027
aS'a[71]'
p7028
aS'a[8587]'
p7029
aS'a[62]'
p7030
aS'a[532]'
p7031
aS'a[46]'
p7032
aS'a[14]'
p7033
aS'a[1477]'
p7034
aS'a[2939]'
p7035
aS'a[2300]'
p7036
aS'a[35]'
p7037
aS'a[3072]'
p7038
aS'a[4172]'
p7039
aS'a[24]'
p7040
aS'a[4809]'
p7041
aS'a[18]'
p7042
aS'a[555]'
p7043
aS'a[4808]'
p7044
aS'a[605]'
p7045
aS'a[8059]'
p7046
aS'a[189]'
p7047
aS'a[301]'
p7048
aS'a[71]'
p7049
aS'a[4632]'
p7050
aS'a[61]'
p7051
aS'a[1130]'
p7052
aS'a[371]'
p7053
aS'a[6768]'
p7054
aS'a[8603]'
p7055
aS'a[33]'
p7056
aS'a[5373]'
p7057
aS'a[4]'
p7058
aS'a[34]'
p7059
aS'a[1541]'
p7060
aS'a[3744]'
p7061
aS'a[2683]'
p7062
aS'a[351]'
p7063
aS'a[135]'
p7064
aS'a[6967]'
p7065
aS'a[9126]'
p7066
aS'a[532]'
p7067
aS'a[4309]'
p7068
aS'a[1858]'
p7069
aS'a[6093]'
p7070
aS'a[4873]'
p7071
aS'a[1]'
p7072
aS'a[817]'
p7073
aS'a[3358]'
p7074
aS'a[6419]'
p7075
aS'a[8577]'
p7076
aS'a[414]'
p7077
aS'a[682]'
p7078
aS'a[3161]'
p7079
aS'a[7183]'
p7080
aS'a[35]'
p7081
aS'a[22]'
p7082
aS'a[5360]'
p7083
aS'a[228]'
p7084
aS'a[1897]'
p7085
aS'a[4018]'
p7086
aS'a[189]'
p7087
aS'a[740]'
p7088
aS'a[3065]'
p7089
aS'a[682]'
p7090
aS'a[139]'
p7091
aS'a[1263]'
p7092
aS'a[1136]'
p7093
aS'a[139]'
p7094
aS'a[1]'
p7095
aS'a[34]'
p7096
aS'a[5717]'
p7097
aS'a[3425]'
p7098
aS'a[740]'
p7099
aS'a[956]'
p7100
aS'a[258]'
p7101
aS'a[6907]'
p7102
aS'a[3257]'
p7103
aS'a[371]'
p7104
aS'a[24]'
p7105
aS'a[1130]'
p7106
aS'a[119]'
p7107
aS'a[24]'
p7108
aS'a[653]'
p7109
aS'a[5139]'
p7110
aS'a[7030]'
p7111
aS'a[1218]'
p7112
aS'a[3070]'
p7113
aS'a[7340]'
p7114
aS'a[139]'
p7115
aS'a[5530]'
p7116
aS'a[46]'
p7117
aS'a[8064]'
p7118
aS'a[0]'
p7119
aS'a[699]'
p7120
aS'a[3176]'
p7121
aS'a[2410]'
p7122
aS'a[52]'
p7123
aS'a[3161]'
p7124
aS'a[1]'
p7125
aS'a[191]'
p7126
aS'a[2521]'
p7127
aS'a[934]'
p7128
aS'a[5300]'
p7129
aS'a[35]'
p7130
aS'a[4073]'
p7131
aS'a[2060]'
p7132
aS'a[3994]'
p7133
aS'a[1807]'
p7134
aS'a[3]'
p7135
aS'a[3928]'
p7136
aS'a[258]'
p7137
aS'a[1935]'
p7138
aS'a[1530]'
p7139
aS'a[6552]'
p7140
aS'a[3312]'
p7141
aS'a[5662]'
p7142
aS'a[3072]'
p7143
aS'a[100]'
p7144
aS'a[458]'
p7145
aS'a[438]'
p7146
aS'a[1092]'
p7147
aS'a[35]'
p7148
aS'a[2709]'
p7149
aS'a[135]'
p7150
aS'a[618]'
p7151
aS'a[9212]'
p7152
aS'a[52]'
p7153
aS'a[4359]'
p7154
aS'a[8999]'
p7155
aS'a[301]'
p7156
aS'a[258]'
p7157
aS'a[935]'
p7158
aS'a[9135]'
p7159
aS'a[34]'
p7160
aS'a[4391]'
p7161
aS'a[7429]'
p7162
aS'a[2300]'
p7163
aS'a[124]'
p7164
aS'a[2369]'
p7165
aS'a[618]'
p7166
aS'a[1]'
p7167
aS'a[2410]'
p7168
aS'a[24]'
p7169
aS'a[1257]'
p7170
aS'a[5882]'
p7171
aS'a[3656]'
p7172
aS'a[189]'
p7173
aS'a[35]'
p7174
aS'a[3928]'
p7175
aS'a[3719]'
p7176
aS'a[8934]'
p7177
aS'a[2683]'
p7178
aS'a[34]'
p7179
aS'a[5833]'
p7180
aS'a[2255]'
p7181
aS'a[6483]'
p7182
aS'a[2675]'
p7183
aS'a[62]'
p7184
aS'a[8100]'
p7185
aS'a[7008]'
p7186
aS'a[6993]'
p7187
aS'a[1807]'
p7188
aS'a[956]'
p7189
aS'a[647]'
p7190
aS'a[2498]'
p7191
aS'a[168]'
p7192
aS'a[2365]'
p7193
aS'a[310]'
p7194
aS'a[2105]'
p7195
aS'a[3159]'
p7196
aS'a[5318]'
p7197
aS'a[100]'
p7198
aS'a[0]'
p7199
aS'a[2752]'
p7200
aS'a[8823]'
p7201
aS'a[3072]'
p7202
aS'a[4639]'
p7203
aS'a[5249]'
p7204
aS'a[139]'
p7205
aS'a[3701]'
p7206
aS'a[8372]'
p7207
aS'a[52]'
p7208
aS'a[4246]'
p7209
aS'a[3]'
p7210
aS'a[4018]'
p7211
aS'a[1081]'
p7212
aS'a[3483]'
p7213
aS'a[3020]'
p7214
aS'a[6502]'
p7215
aS'a[3831]'
p7216
aS'a[3272]'
p7217
aS'a[3072]'
p7218
aS'a[5421]'
p7219
aS'a[5016]'
p7220
aS'a[3]'
p7221
aS'a[3776]'
p7222
aS'a[8103]'
p7223
aS'a[24]'
p7224
aS'a[135]'
p7225
aS'a[4529]'
p7226
aS'a[3285]'
p7227
aS'a[4203]'
p7228
aS'a[3]'
p7229
aS'a[4182]'
p7230
aS'a[22]'
p7231
aS'a[1130]'
p7232
aS'a[2929]'
p7233
aS'a[35]'
p7234
aS'a[5601]'
p7235
aS'a[8628]'
p7236
aS'a[7373]'
p7237
aS'a[23]'
p7238
aS'a[1077]'
p7239
aS'a[2521]'
p7240
aS'a[711]'
p7241
aS'a[3161]'
p7242
aS'a[8038]'
p7243
aS'a[618]'
p7244
aS'a[2851]'
p7245
aS'a[2655]'
p7246
aS'a[458]'
p7247
aS'a[713]'
p7248
aS'a[24]'
p7249
aS'a[1696]'
p7250
aS'a[8009]'
p7251
aS'a[6943]'
p7252
aS'a[6961]'
p7253
aS'a[310]'
p7254
aS'a[24]'
p7255
aS'a[3591]'
p7256
aS'a[5855]'
p7257
aS'a[699]'
p7258
aS'a[1]'
p7259
aS'a[243]'
p7260
aS'a[1902]'
p7261
aS'a[781]'
p7262
aS'a[2947]'
p7263
aS'a[1580]'
p7264
aS'a[3]'
p7265
aS'a[6150]'
p7266
aS'a[135]'
p7267
aS'a[33]'
p7268
aS'a[7997]'
p7269
aS'a[8802]'
p7270
aS'a[3776]'
p7271
aS'a[2411]'
p7272
aS'a[8239]'
p7273
aS'a[5434]'
p7274
aS'a[1082]'
p7275
aS'a[198]'
p7276
aS'a[71]'
p7277
aS'a[46]'
p7278
aS'a[8009]'
p7279
aS'a[5667]'
p7280
aS'a[5634]'
p7281
aS'a[198]'
p7282
aS'a[168]'
p7283
aS'a[24]'
p7284
aS'a[749]'
p7285
aS'a[7482]'
p7286
aS'a[649]'
p7287
aS'a[56]'
p7288
aS'a[1096]'
p7289
aS'a[24]'
p7290
aS'a[7589]'
p7291
aS'a[4529]'
p7292
aS'a[0]'
p7293
aS'a[1130]'
p7294
aS'a[301]'
p7295
aS'a[5299]'
p7296
aS'a[700]'
p7297
aS'a[6464]'
p7298
aS'a[1130]'
p7299
aS'a[1554]'
p7300
aS'a[155]'
p7301
aS'a[0]'
p7302
aS'a[2196]'
p7303
aS'a[155]'
p7304
aS'a[24]'
p7305
aS'a[0]'
p7306
aS'a[988]'
p7307
aS'a[3840]'
p7308
aS'a[92]'
p7309
aS'a[605]'
p7310
aS'a[8501]'
p7311
aS'a[458]'
p7312
aS'a[8978]'
p7313
aS'a[1477]'
p7314
aS'a[905]'
p7315
aS'a[371]'
p7316
aS'a[61]'
p7317
aS'a[338]'
p7318
aS'a[350]'
p7319
aS'a[1477]'
p7320
aS'a[159]'
p7321
aS'a[1]'
p7322
aS'a[2683]'
p7323
aS'a[2658]'
p7324
aS'a[5644]'
p7325
aS'a[4616]'
p7326
aS'a[8221]'
p7327
aS'a[33]'
p7328
aS'a[189]'
p7329
aS'a[310]'
p7330
aS'a[1071]'
p7331
aS'a[3353]'
p7332
aS'a[267]'
p7333
aS'a[1081]'
p7334
aS'a[191]'
p7335
aS'a[1081]'
p7336
aS'a[618]'
p7337
aS'a[6045]'
p7338
aS'a[4899]'
p7339
aS'a[301]'
p7340
aS'a[6486]'
p7341
aS'a[2939]'
p7342
aS'a[3584]'
p7343
aS'a[578]'
p7344
aS'a[8038]'
p7345
aS'a[6111]'
p7346
aS'a[647]'
p7347
aS'a[4769]'
p7348
aS'a[3731]'
p7349
aS'a[135]'
p7350
aS'a[168]'
p7351
aS'a[243]'
p7352
aS'a[4714]'
p7353
aS'a[124]'
p7354
aS'a[7091]'
p7355
aS'a[258]'
p7356
aS'a[4770]'
p7357
aS'a[699]'
p7358
aS'a[45]'
p7359
aS'a[2959]'
p7360
aS'a[1897]'
p7361
aS'a[92]'
p7362
aS'a[988]'
p7363
aS'a[7980]'
p7364
aS'a[24]'
p7365
aS'a[8758]'
p7366
aS'a[291]'
p7367
aS'a[267]'
p7368
aS'a[3366]'
p7369
aS'a[5093]'
p7370
aS'a[6770]'
p7371
aS'a[168]'
p7372
aS'a[0]'
p7373
aS'a[62]'
p7374
aS'a[2818]'
p7375
aS'a[1580]'
p7376
aS'a[260]'
p7377
aS'a[647]'
p7378
aS'a[3072]'
p7379
aS'a[243]'
p7380
aS'a[7545]'
p7381
aS'a[8575]'
p7382
aS'a[5282]'
p7383
aS'a[4]'
p7384
aS'a[6839]'
p7385
aS'a[3161]'
p7386
aS'a[6262]'
p7387
aS'a[1]'
p7388
aS'a[4124]'
p7389
aS'a[298]'
p7390
aS'a[2300]'
p7391
aS'a[7479]'
p7392
aS'a[301]'
p7393
aS'a[1807]'
p7394
aS'a[24]'
p7395
aS'a[1915]'
p7396
aS'a[8423]'
p7397
aS'a[7792]'
p7398
aS'a[7301]'
p7399
aS'a[414]'
p7400
aS'a[605]'
p7401
aS'a[605]'
p7402
aS'a[2300]'
p7403
aS'a[5141]'
p7404
aS'a[3615]'
p7405
aS'a[8685]'
p7406
aS'a[3072]'
p7407
aS'a[258]'
p7408
aS'a[159]'
p7409
aS'a[745]'
p7410
aS'a[4935]'
p7411
aS'a[8009]'
p7412
aS'a[2683]'
p7413
aS'a[2603]'
p7414
aS'a[7616]'
p7415
aS'a[2939]'
p7416
aS'a[204]'
p7417
aS'a[2289]'
p7418
aS'a[682]'
p7419
aS'a[2683]'
p7420
aS'a[24]'
p7421
aS'a[298]'
p7422
aS'a[618]'
p7423
aS'a[1858]'
p7424
aS'a[3067]'
p7425
aS'a[8424]'
p7426
aS'a[730]'
p7427
aS'a[24]'
p7428
aS'a[2963]'
p7429
aS'a[8009]'
p7430
aS'a[5723]'
p7431
aS'a[371]'
p7432
aS'a[5410]'
p7433
aS'a[2683]'
p7434
aS'a[3070]'
p7435
aS'a[135]'
p7436
aS'a[3724]'
p7437
aS'a[2410]'
p7438
aS'a[711]'
p7439
aS'a[3186]'
p7440
aS'a[3414]'
p7441
aS'a[1914]'
p7442
aS'a[9030]'
p7443
aS'a[35]'
p7444
aS'a[414]'
p7445
aS'a[310]'
p7446
aS'a[168]'
p7447
aS'a[5229]'
p7448
aS'a[3496]'
p7449
aS'a[8055]'
p7450
aS'a[3898]'
p7451
aS'a[258]'
p7452
aS'a[371]'
p7453
aS'a[3072]'
p7454
aS'a[4724]'
p7455
aS'a[124]'
p7456
aS'a[1585]'
p7457
aS'a[438]'
p7458
aS'a[740]'
p7459
aS'a[62]'
p7460
aS'a[2300]'
p7461
aS'a[1378]'
p7462
aS'a[402]'
p7463
aS'a[2655]'
p7464
aS'a[5249]'
p7465
aS'a[168]'
p7466
aS'a[647]'
p7467
aS'a[168]'
p7468
aS'a[303]'
p7469
aS'a[3063]'
p7470
aS'a[8685]'
p7471
aS'a[1]'
p7472
aS'a[2358]'
p7473
aS'a[3]'
p7474
aS'a[1807]'
p7475
aS'a[1143]'
p7476
aS'a[3502]'
p7477
aS'a[46]'
p7478
aS'a[1696]'
p7479
aS'a[301]'
p7480
aS'a[5369]'
p7481
aS'a[4218]'
p7482
aS'a[1541]'
p7483
aS'a[682]'
p7484
aS'a[857]'
p7485
aS'a[24]'
p7486
aS'a[0]'
p7487
aS'a[5634]'
p7488
aS'a[2683]'
p7489
aS'a[555]'
p7490
aS'a[1]'
p7491
aS'a[4639]'
p7492
aS'a[440]'
p7493
aS'a[988]'
p7494
aS'a[350]'
p7495
aS'a[6745]'
p7496
aS'a[22]'
p7497
aS'a[1807]'
p7498
aS'a[1935]'
p7499
aS'a[100]'
p7500
aS'a[2655]'
p7501
aS'a[267]'
p7502
aS'a[4504]'
p7503
aS'a[1045]'
p7504
aS'a[740]'
p7505
aS'a[7433]'
p7506
aS'a[56]'
p7507
aS'a[711]'
p7508
aS'a[1858]'
p7509
aS'a[1935]'
p7510
aS'a[1892]'
p7511
aS'a[191]'
p7512
aS'a[1634]'
p7513
aS'a[2718]'
p7514
aS'a[3161]'
p7515
aS'a[8255]'
p7516
aS'a[2683]'
p7517
aS'a[7534]'
p7518
aS'a[3]'
p7519
aS'a[8038]'
p7520
aS'a[1454]'
p7521
aS'a[1041]'
p7522
aS'a[5418]'
p7523
aS'a[458]'
p7524
aS'a[1]'
p7525
aS'a[1696]'
p7526
aS'a[1897]'
p7527
aS'a[3]'
p7528
aS'a[3]'
p7529
aS'a[24]'
p7530
aS'a[699]'
p7531
aS'a[3130]'
p7532
aS'a[532]'
p7533
aS'a[4033]'
p7534
aS'a[1955]'
p7535
aS'a[8011]'
p7536
aS'a[3]'
p7537
aS'a[139]'
p7538
aS'a[458]'
p7539
aS'a[4]'
p7540
aS'a[2074]'
p7541
aS'a[458]'
p7542
aS'a[5249]'
p7543
aS'a[310]'
p7544
aS'a[2958]'
p7545
aS'a[243]'
p7546
aS'a[1935]'
p7547
aS'a[1082]'
p7548
aS'a[191]'
p7549
aS'a[8962]'
p7550
aS'a[2410]'
p7551
aS'a[4832]'
p7552
aS'a[24]'
p7553
aS'a[310]'
p7554
aS'a[2359]'
p7555
aS'a[9243]'
p7556
aS'a[6565]'
p7557
aS'a[310]'
p7558
aS'a[62]'
p7559
aS'a[155]'
p7560
aS'a[1043]'
p7561
aS'a[351]'
p7562
aS'a[3776]'
p7563
aS'a[622]'
p7564
aS'a[2683]'
p7565
aS'a[1807]'
p7566
aS'a[2498]'
p7567
aS'a[56]'
p7568
aS'a[1897]'
p7569
aS'a[97]'
p7570
aS'a[301]'
p7571
aS'a[2675]'
p7572
aS'a[5106]'
p7573
aS'a[2300]'
p7574
aS'a[301]'
p7575
aS'a[24]'
p7576
aS'a[8380]'
p7577
aS'a[62]'
p7578
aS'a[2675]'
p7579
aS'a[997]'
p7580
aS'a[24]'
p7581
aS'a[2643]'
p7582
aS'a[4639]'
p7583
aS'a[139]'
p7584
aS'a[1263]'
p7585
aS'a[139]'
p7586
aS'a[8564]'
p7587
aS'a[605]'
p7588
aS'a[3]'
p7589
aS'a[3]'
p7590
aS'a[5634]'
p7591
aS'a[1082]'
p7592
aS'a[5146]'
p7593
aS'a[301]'
p7594
aS'a[5106]'
p7595
aS'a[5106]'
p7596
aS'a[6439]'
p7597
aS'a[1391]'
p7598
aS'a[8269]'
p7599
aS'a[8549]'
p7600
aS'a[2181]'
p7601
aS'a[1257]'
p7602
aS'a[3394]'
p7603
aS'a[4404]'
p7604
aS'a[39]'
p7605
aS'a[5249]'
p7606
aS'a[2556]'
p7607
aS'a[2655]'
p7608
aS'a[3713]'
p7609
aS'a[6729]'
p7610
aS'a[4892]'
p7611
aS'a[350]'
p7612
aS'a[2498]'
p7613
aS'a[4671]'
p7614
aS'a[3055]'
p7615
aS'a[5360]'
p7616
aS'a[5540]'
p7617
aS'a[1082]'
p7618
aS'a[3063]'
p7619
aS'a[2939]'
p7620
aS'a[5261]'
p7621
aS'a[3908]'
p7622
aS'a[18]'
p7623
aS'a[3572]'
p7624
aS'a[1585]'
p7625
aS'a[988]'
p7626
aS'a[8009]'
p7627
aS'a[2684]'
p7628
aS'a[71]'
p7629
aS'a[135]'
p7630
aS'a[2675]'
p7631
aS'a[4701]'
p7632
aS'a[2679]'
p7633
aS'a[8079]'
p7634
aS'a[24]'
p7635
aS'a[62]'
p7636
aS'a[6670]'
p7637
aS'a[4748]'
p7638
aS'a[3943]'
p7639
aS'a[6935]'
p7640
aS'a[310]'
p7641
aS'a[3534]'
p7642
aS'a[46]'
p7643
aS'a[35]'
p7644
aS'a[6537]'
p7645
aS'a[189]'
p7646
aS'a[24]'
p7647
aS'a[2655]'
p7648
aS'a[1935]'
p7649
aS'a[2939]'
p7650
aS'a[3161]'
p7651
aS'a[23]'
p7652
aS'a[2300]'
p7653
aS'a[2112]'
p7654
aS'a[6276]'
p7655
aS'a[237]'
p7656
aS'a[5805]'
p7657
aS'a[71]'
p7658
aS'a[740]'
p7659
aS'a[458]'
p7660
aS'a[1585]'
p7661
aS'a[3615]'
p7662
aS'a[3928]'
p7663
aS'a[1257]'
p7664
aS'a[577]'
p7665
aS'a[8931]'
p7666
aS'a[2521]'
p7667
aS'a[555]'
p7668
aS'a[2939]'
p7669
aS'a[532]'
p7670
aS'a[8009]'
p7671
aS'a[647]'
p7672
aS'a[8530]'
p7673
aS'a[618]'
p7674
aS'a[8438]'
p7675
aS'a[2410]'
p7676
aS'a[2914]'
p7677
aS'a[301]'
p7678
aS'a[8897]'
p7679
aS'a[267]'
p7680
aS'a[2410]'
p7681
aS'a[24]'
p7682
aS'a[1082]'
p7683
aS'a[5778]'
p7684
aS'a[618]'
p7685
aS'a[2675]'
p7686
aS'a[18]'
p7687
aS'a[2521]'
p7688
aS'a[1263]'
p7689
aS'a[4377]'
p7690
aS'a[6158]'
p7691
aS'a[24]'
p7692
aS'a[2939]'
p7693
aS'a[1935]'
p7694
aS'a[24]'
p7695
aS'a[1096]'
p7696
aS'a[267]'
p7697
aS'a[80]'
p7698
aS'a[22]'
p7699
aS'a[3774]'
p7700
aS'a[24]'
p7701
aS'a[1081]'
p7702
aS'a[1923]'
p7703
aS'a[3]'
p7704
aS'a[2274]'
p7705
aS'a[2300]'
p7706
aS'a[35]'
p7707
aS'a[1897]'
p7708
aS'a[2737]'
p7709
aS'a[18]'
p7710
aS'a[528]'
p7711
aS'a[3070]'
p7712
aS'a[438]'
p7713
aS'a[45]'
p7714
aS'a[1477]'
p7715
aS'a[6666]'
p7716
aS'a[301]'
p7717
aS'a[24]'
p7718
aS'a[23]'
p7719
aS'a[1263]'
p7720
aS'a[7920]'
p7721
aS'a[1585]'
p7722
aS'a[8103]'
p7723
aS'a[35]'
p7724
aS'a[1092]'
p7725
aS'a[3072]'
p7726
aS'a[33]'
p7727
aS'a[223]'
p7728
aS'a[1477]'
p7729
aS'a[1257]'
p7730
aS'a[35]'
p7731
aS'a[4712]'
p7732
aS'a[5502]'
p7733
aS'a[497]'
p7734
aS'a[350]'
p7735
aS'a[124]'
p7736
aS'a[8685]'
p7737
aS'a[168]'
p7738
aS'a[22]'
p7739
aS'a[2403]'
p7740
aS'a[3]'
p7741
aS'a[92]'
p7742
aS'a[5351]'
p7743
aS'a[545]'
p7744
aS'a[34]'
p7745
aS'a[8505]'
p7746
aS'a[3]'
p7747
aS'a[3095]'
p7748
aS'a[4639]'
p7749
aS'a[7431]'
p7750
aS'a[7958]'
p7751
aS'a[2939]'
p7752
aS'a[3928]'
p7753
aS'a[8996]'
p7754
aS'a[24]'
p7755
aS'a[24]'
p7756
aS'a[773]'
p7757
aS'a[2121]'
p7758
aS'a[124]'
p7759
aS'a[1082]'
p7760
aS'a[1230]'
p7761
aS'a[155]'
p7762
aS'a[2446]'
p7763
aS'a[1327]'
p7764
aS'a[3133]'
p7765
aS'a[3389]'
p7766
aS'a[46]'
p7767
aS'a[2410]'
p7768
aS'a[1263]'
p7769
aS'a[3161]'
p7770
aS'a[24]'
p7771
aS'a[24]'
p7772
aS'a[623]'
p7773
aS'a[8758]'
p7774
aS'a[5465]'
p7775
aS'a[4018]'
p7776
aS'a[2876]'
p7777
aS'a[6098]'
p7778
aS'a[2300]'
p7779
aS'a[2576]'
p7780
aS'a[159]'
p7781
aS'a[7682]'
p7782
aS'a[1080]'
p7783
aS'a[139]'
p7784
aS'a[301]'
p7785
aS'a[223]'
p7786
aS'a[3]'
p7787
aS'a[100]'
p7788
aS'a[260]'
p7789
aS'a[1641]'
p7790
aS'a[22]'
p7791
aS'a[24]'
p7792
aS'a[4310]'
p7793
aS'a[2150]'
p7794
aS'a[2655]'
p7795
aS'a[303]'
p7796
aS'a[6078]'
p7797
aS'a[8103]'
p7798
aS'a[7442]'
p7799
aS'a[1]'
p7800
aS'a[1096]'
p7801
aS'a[1187]'
p7802
aS'a[2300]'
p7803
aS'a[290]'
p7804
aS'a[24]'
p7805
aS'a[4487]'
p7806
aS'a[8527]'
p7807
aS'a[1541]'
p7808
aS'a[351]'
p7809
aS'a[1]'
p7810
aS'a[124]'
p7811
aS'a[100]'
p7812
aS'a[371]'
p7813
aS'a[1139]'
p7814
aS'a[62]'
p7815
aS'a[3498]'
p7816
aS'a[3987]'
p7817
aS'a[4600]'
p7818
aS'a[351]'
p7819
aS'a[2000]'
p7820
aS'a[1792]'
p7821
aS'a[5634]'
p7822
aS'a[398]'
p7823
aS'a[5408]'
p7824
aS'a[5106]'
p7825
aS'a[351]'
p7826
aS'a[1585]'
p7827
aS'a[22]'
p7828
aS'a[8038]'
p7829
aS'a[1585]'
p7830
aS'a[35]'
p7831
aS'a[5807]'
p7832
aS'a[6302]'
p7833
aS'a[9171]'
p7834
aS'a[267]'
p7835
aS'a[245]'
p7836
aS'a[8038]'
p7837
aS'a[1580]'
p7838
aS'a[8157]'
p7839
aS'a[5106]'
p7840
aS'a[6103]'
p7841
aS'a[904]'
p7842
aS'a[24]'
p7843
aS'a[663]'
p7844
aS'a[168]'
p7845
aS'a[2026]'
p7846
aS'a[71]'
p7847
aS'a[4935]'
p7848
aS'a[4832]'
p7849
aS'a[1935]'
p7850
aS'a[8849]'
p7851
aS'a[2399]'
p7852
aS'a[243]'
p7853
aS'a[6438]'
p7854
aS'a[1541]'
p7855
aS'a[6375]'
p7856
aS'a[267]'
p7857
aS'a[2655]'
p7858
aS'a[647]'
p7859
aS'a[1696]'
p7860
aS'a[555]'
p7861
aS'a[699]'
p7862
aS'a[3368]'
p7863
aS'a[4935]'
p7864
aS'a[4567]'
p7865
aS'a[5042]'
p7866
aS'a[124]'
p7867
aS'a[1897]'
p7868
aS'a[35]'
p7869
aS'a[618]'
p7870
aS'a[3]'
p7871
aS'a[1]'
p7872
aS'a[618]'
p7873
aS'a[301]'
p7874
aS'a[71]'
p7875
aS'a[61]'
p7876
aS'a[3594]'
p7877
aS'a[3513]'
p7878
aS'a[1256]'
p7879
aS'a[3]'
p7880
aS'a[52]'
p7881
aS'a[1585]'
p7882
aS'a[1111]'
p7883
aS'a[3450]'
p7884
aS'a[291]'
p7885
aS'a[9221]'
p7886
aS'a[4529]'
p7887
aS'a[2888]'
p7888
aS'a[438]'
p7889
aS'a[35]'
p7890
aS'a[124]'
p7891
aS'a[8753]'
p7892
aS'a[7303]'
p7893
aS'a[737]'
p7894
aS'a[350]'
p7895
aS'a[162]'
p7896
aS'a[3701]'
p7897
aS'a[18]'
p7898
aS'a[5200]'
p7899
aS'a[61]'
p7900
aS'a[1585]'
p7901
aS'a[1155]'
p7902
aS'a[24]'
p7903
aS'a[3517]'
p7904
aS'a[1696]'
p7905
aS'a[301]'
p7906
aS'a[267]'
p7907
aS'a[61]'
p7908
aS'a[1935]'
p7909
aS'a[189]'
p7910
aS'a[92]'
p7911
aS'a[4565]'
p7912
aS'a[3928]'
p7913
aS'a[239]'
p7914
aS'a[139]'
p7915
aS'a[4]'
p7916
aS'a[2356]'
p7917
aS'a[8520]'
p7918
aS'a[4114]'
p7919
aS'a[3814]'
p7920
aS'a[2919]'
p7921
aS'a[1541]'
p7922
aS'a[4]'
p7923
aS'a[1935]'
p7924
aS'a[2410]'
p7925
aS'a[62]'
p7926
aS'a[1439]'
p7927
aS'a[1004]'
p7928
aS'a[198]'
p7929
aS'a[351]'
p7930
aS'a[7238]'
p7931
aS'a[458]'
p7932
aS'a[310]'
p7933
aS'a[1541]'
p7934
aS'a[135]'
p7935
aS'a[8861]'
p7936
aS'a[198]'
p7937
aS'a[2300]'
p7938
aS'a[5044]'
p7939
aS'a[562]'
p7940
aS'a[956]'
p7941
aS'a[7339]'
p7942
aS'a[1092]'
p7943
aS'a[4139]'
p7944
aS'a[1160]'
p7945
aS'a[35]'
p7946
aS'a[2683]'
p7947
aS'a[298]'
p7948
aS'a[2300]'
p7949
aS'a[458]'
p7950
aS'a[3355]'
p7951
aS'a[159]'
p7952
aS'a[2251]'
p7953
aS'a[1342]'
p7954
aS'a[4970]'
p7955
aS'a[159]'
p7956
aS'a[3]'
p7957
aS'a[2130]'
p7958
aS'a[1858]'
p7959
aS'a[56]'
p7960
aS'a[4372]'
p7961
aS'a[8435]'
p7962
aS'a[223]'
p7963
aS'a[2080]'
p7964
aS'a[35]'
p7965
aS'a[1580]'
p7966
aS'a[3502]'
p7967
aS'a[4435]'
p7968
aS'a[350]'
p7969
aS'a[414]'
p7970
aS'a[2675]'
p7971
aS'a[8807]'
p7972
aS'a[2932]'
p7973
aS'a[6083]'
p7974
aS'a[24]'
p7975
aS'a[1]'
p7976
aS'a[1789]'
p7977
aS'a[4705]'
p7978
aS'a[438]'
p7979
aS'a[5205]'
p7980
aS'a[4245]'
p7981
aS'a[310]'
p7982
aS'a[6336]'
p7983
aS'a[618]'
p7984
aS'a[371]'
p7985
aS'a[2939]'
p7986
aS'a[7720]'
p7987
aS'a[1162]'
p7988
aS'a[1504]'
p7989
aS'a[4559]'
p7990
aS'a[1081]'
p7991
aS'a[988]'
p7992
aS'a[1257]'
p7993
aS'a[6393]'
p7994
aS'a[3615]'
p7995
aS'a[682]'
p7996
aS'a[660]'
p7997
aS'a[8698]'
p7998
aS'a[555]'
p7999
aS'a[124]'
p8000
aS'a[291]'
p8001
aS'a[56]'
p8002
aS'a[135]'
p8003
aS'a[100]'
p8004
aS'a[3072]'
p8005
aS'a[740]'
p8006
aS'a[4639]'
p8007
aS'a[988]'
p8008
aS'a[35]'
p8009
aS'a[2970]'
p8010
aS'a[258]'
p8011
aS'a[159]'
p8012
aS'a[46]'
p8013
aS'a[92]'
p8014
aS'a[35]'
p8015
aS'a[223]'
p8016
aS'a[6317]'
p8017
aS'a[24]'
p8018
aS'a[157]'
p8019
aS'a[1580]'
p8020
aS'a[303]'
p8021
aS'a[5249]'
p8022
aS'a[8882]'
p8023
aS'a[2850]'
p8024
aS'a[8685]'
p8025
aS'a[8697]'
p8026
aS'a[135]'
p8027
aS'a[139]'
p8028
aS'a[4639]'
p8029
aS'a[8103]'
p8030
aS'a[2448]'
p8031
aS'a[7088]'
p8032
aS'a[3786]'
p8033
aS'a[682]'
p8034
aS'a[5857]'
p8035
aS'a[2882]'
p8036
aS'a[749]'
p8037
aS'a[168]'
p8038
aS'a[310]'
p8039
aS'a[291]'
p8040
aS'a[2300]'
p8041
aS'a[371]'
p8042
aS'a[5885]'
p8043
aS'a[168]'
p8044
aS'a[8617]'
p8045
aS'a[223]'
p8046
aS'a[33]'
p8047
aS'a[1897]'
p8048
aS'a[135]'
p8049
aS'a[223]'
p8050
aS'a[22]'
p8051
aS'a[1580]'
p8052
aS'a[2675]'
p8053
aS'a[2683]'
p8054
aS'a[155]'
p8055
aS'a[4768]'
p8056
aS'a[1576]'
p8057
aS'a[7812]'
p8058
aS'a[711]'
p8059
aS'a[1897]'
p8060
aS'a[1893]'
p8061
aS'a[3161]'
p8062
aS'a[201]'
p8063
aS'a[618]'
p8064
aS'a[3731]'
p8065
aS'a[18]'
p8066
aS'a[4935]'
p8067
aS'a[441]'
p8068
aS'a[4935]'
p8069
aS'a[1613]'
p8070
aS'a[2600]'
p8071
aS'a[1]'
p8072
aS'a[5372]'
p8073
aS'a[14]'
p8074
aS'a[2231]'
p8075
aS'a[438]'
p8076
aS'a[458]'
p8077
aS'a[2939]'
p8078
aS'a[2410]'
p8079
aS'a[92]'
p8080
aS'a[135]'
p8081
aS'a[6443]'
p8082
aS'a[2980]'
p8083
aS'a[1835]'
p8084
aS'a[301]'
p8085
aS'a[740]'
p8086
aS'a[23]'
p8087
aS'a[4044]'
p8088
aS'a[135]'
p8089
aS'a[4222]'
p8090
aS'a[5106]'
p8091
aS'a[3451]'
p8092
aS'a[3538]'
p8093
aS'a[1081]'
p8094
aS'a[5591]'
p8095
aS'a[4639]'
p8096
aS'a[1807]'
p8097
aS'a[2263]'
p8098
aS'a[4496]'
p8099
aS'a[3880]'
p8100
aS'a[5934]'
p8101
aS'a[4771]'
p8102
aS'a[438]'
p8103
aS'a[2675]'
p8104
aS'a[210]'
p8105
aS'a[3]'
p8106
aS'a[5441]'
p8107
aS'a[3063]'
p8108
aS'a[1147]'
p8109
aS'a[168]'
p8110
aS'a[8568]'
p8111
aS'a[24]'
p8112
aS'a[2656]'
p8113
aS'a[371]'
p8114
aS'a[14]'
p8115
aS'a[8860]'
p8116
aS'a[6689]'
p8117
aS'a[243]'
p8118
aS'a[8038]'
p8119
aS'a[7392]'
p8120
aS'a[34]'
p8121
aS'a[3116]'
p8122
aS'a[35]'
p8123
aS'a[6239]'
p8124
aS'a[527]'
p8125
aS'a[8559]'
p8126
aS'a[201]'
p8127
aS'a[550]'
p8128
aS'a[301]'
p8129
aS'a[61]'
p8130
aS'a[6804]'
p8131
aS'a[291]'
p8132
aS'a[7679]'
p8133
aS'a[4812]'
p8134
aS'a[532]'
p8135
aS'a[3890]'
p8136
aS'a[8750]'
p8137
aS'a[24]'
p8138
aS'a[2351]'
p8139
aS'a[1659]'
p8140
aS'a[988]'
p8141
aS'a[6646]'
p8142
aS'a[605]'
p8143
aS'a[92]'
p8144
aS'a[8633]'
p8145
aS'a[1477]'
p8146
aS'a[2521]'
p8147
aS'a[1474]'
p8148
aS'a[7543]'
p8149
aS'a[2498]'
p8150
aS'a[1580]'
p8151
aS'a[4874]'
p8152
aS'a[155]'
p8153
aS'a[1082]'
p8154
aS'a[155]'
p8155
aS'a[5937]'
p8156
aS'a[35]'
p8157
aS'a[3776]'
p8158
aS'a[1858]'
p8159
aS'a[740]'
p8160
aS'a[3488]'
p8161
aS'a[4278]'
p8162
aS'a[155]'
p8163
aS'a[654]'
p8164
aS'a[3612]'
p8165
aS'a[267]'
p8166
aS'a[2521]'
p8167
aS'a[7998]'
p8168
aS'a[8499]'
p8169
aS'a[298]'
p8170
aS'a[4639]'
p8171
aS'a[4517]'
p8172
aS'a[33]'
p8173
aS'a[267]'
p8174
aS'a[8811]'
p8175
aS'a[3908]'
p8176
aS'a[1096]'
p8177
aS'a[4529]'
p8178
aS'a[310]'
p8179
aS'a[1081]'
p8180
aS'a[343]'
p8181
aS'a[2442]'
p8182
aS'a[267]'
p8183
aS'a[7751]'
p8184
aS'a[1336]'
p8185
aS'a[2521]'
p8186
aS'a[3070]'
p8187
aS'a[8221]'
p8188
aS'a[3841]'
p8189
aS'a[2130]'
p8190
aS'a[5589]'
p8191
aS'a[100]'
p8192
aS'a[988]'
p8193
aS'a[1257]'
p8194
aS'a[100]'
p8195
aS'a[5865]'
p8196
aS'a[4529]'
p8197
aS'a[1585]'
p8198
aS'a[159]'
p8199
aS'a[1251]'
p8200
aS'a[7751]'
p8201
aS'a[62]'
p8202
aS'a[6220]'
p8203
aS'a[4935]'
p8204
aS'a[2410]'
p8205
aS'a[6994]'
p8206
aS'a[3731]'
p8207
aS'a[243]'
p8208
aS'a[35]'
p8209
aS'a[866]'
p8210
aS'a[8832]'
p8211
aS'a[6484]'
p8212
aS'a[22]'
p8213
aS'a[5796]'
p8214
aS'a[7755]'
p8215
aS'a[5634]'
p8216
aS'a[223]'
p8217
aS'a[6209]'
p8218
aS'a[8707]'
p8219
aS'a[3063]'
p8220
aS'a[3186]'
p8221
aS'a[1897]'
p8222
aS'a[267]'
p8223
aS'a[3502]'
p8224
aS'a[124]'
p8225
aS'a[7977]'
p8226
aS'a[4952]'
p8227
aS'a[4987]'
p8228
aS'a[647]'
p8229
aS'a[62]'
p8230
aS'a[6983]'
p8231
aS'a[351]'
p8232
aS'a[1935]'
p8233
aS'a[351]'
p8234
aS'a[682]'
p8235
aS'a[260]'
p8236
aS'a[3820]'
p8237
aS'a[1858]'
p8238
aS'a[5249]'
p8239
aS'a[3731]'
p8240
aS'a[8840]'
p8241
aS'a[3]'
p8242
aS'a[191]'
p8243
aS'a[24]'
p8244
aS'a[8009]'
p8245
aS'a[6294]'
p8246
aS'a[5215]'
p8247
aS'a[816]'
p8248
aS'a[258]'
p8249
aS'a[8807]'
p8250
aS'a[2314]'
p8251
aS'a[24]'
p8252
aS'a[7180]'
p8253
aS'a[7491]'
p8254
aS'a[9193]'
p8255
aS'a[301]'
p8256
aS'a[414]'
p8257
aS'a[4192]'
p8258
aS'a[8009]'
p8259
aS'a[2792]'
p8260
aS'a[1585]'
p8261
aS'a[9007]'
p8262
aS'a[7910]'
p8263
aS'a[298]'
p8264
aS'a[1807]'
p8265
aS'a[3161]'
p8266
aS'a[267]'
p8267
aS'a[4527]'
p8268
aS'a[2857]'
p8269
aS'a[2130]'
p8270
aS'a[14]'
p8271
aS'a[1477]'
p8272
aS'a[7545]'
p8273
aS'a[189]'
p8274
aS'a[5446]'
p8275
aS'a[310]'
p8276
aS'a[56]'
p8277
aS'a[3288]'
p8278
aS'a[4639]'
p8279
aS'a[2130]'
p8280
aS'a[8038]'
p8281
aS'a[0]'
p8282
aS'a[24]'
p8283
aS'a[7823]'
p8284
aS'a[35]'
p8285
aS'a[62]'
p8286
aS'a[1897]'
p8287
aS'a[3689]'
p8288
aS'a[2683]'
p8289
aS'a[4941]'
p8290
aS'a[3142]'
p8291
aS'a[8141]'
p8292
aS'a[7955]'
p8293
aS'a[109]'
p8294
aS'a[7859]'
p8295
aS'a[2683]'
p8296
aS'a[8507]'
p8297
aS'a[2498]'
p8298
aS'a[14]'
p8299
aS'a[2790]'
p8300
aS'a[1]'
p8301
aS'a[260]'
p8302
aS'a[24]'
p8303
aS'a[3223]'
p8304
aS'a[5344]'
p8305
aS'a[24]'
p8306
aS'a[52]'
p8307
aS'a[951]'
p8308
aS'a[4303]'
p8309
aS'a[371]'
p8310
aS'a[2939]'
p8311
aS'a[24]'
p8312
aS'a[191]'
p8313
aS'a[71]'
p8314
aS'a[458]'
p8315
aS'a[223]'
p8316
aS'a[191]'
p8317
aS'a[6642]'
p8318
aS'a[2348]'
p8319
aS'a[371]'
p8320
aS'a[3357]'
p8321
aS'a[4295]'
p8322
aS'a[1585]'
p8323
aS'a[6837]'
p8324
aS'a[0]'
p8325
aS'a[260]'
p8326
aS'a[749]'
p8327
aS'a[3]'
p8328
aS'a[1541]'
p8329
aS'a[2939]'
p8330
aS'a[3]'
p8331
aS'a[1807]'
p8332
aS'a[1082]'
p8333
aS'a[1935]'
p8334
aS'a[1082]'
p8335
aS'a[647]'
p8336
aS'a[1585]'
p8337
aS'a[2683]'
p8338
aS'a[1477]'
p8339
aS'a[710]'
p8340
aS'a[6240]'
p8341
aS'a[2675]'
p8342
aS'a[0]'
p8343
aS'a[1585]'
p8344
aS'a[155]'
p8345
aS'a[8457]'
p8346
aS'a[4826]'
p8347
aS'a[4285]'
p8348
aS'a[2298]'
p8349
aS'a[4484]'
p8350
aS'a[22]'
p8351
aS'a[618]'
p8352
aS'a[7212]'
p8353
aS'a[1984]'
p8354
aS'a[438]'
p8355
aS'a[3]'
p8356
aS'a[1724]'
p8357
aS'a[1092]'
p8358
aS'a[4657]'
p8359
aS'a[459]'
p8360
aS'a[2939]'
p8361
aS'a[643]'
p8362
aS'a[9241]'
p8363
aS'a[135]'
p8364
aS'a[71]'
p8365
aS'a[4935]'
p8366
aS'a[52]'
p8367
aS'a[4786]'
p8368
aS'a[4639]'
p8369
aS'a[301]'
p8370
aS'a[5205]'
p8371
aS'a[2394]'
p8372
aS'a[92]'
p8373
aS'a[24]'
p8374
aS'a[24]'
p8375
aS'a[3195]'
p8376
aS'a[858]'
p8377
aS'a[371]'
p8378
aS'a[678]'
p8379
aS'a[3162]'
p8380
aS'a[298]'
p8381
aS'a[1696]'
p8382
aS'a[3051]'
p8383
aS'a[1580]'
p8384
aS'a[139]'
p8385
aS'a[223]'
p8386
aS'a[900]'
p8387
aS'a[1130]'
p8388
aS'a[139]'
p8389
aS'a[24]'
p8390
aS'a[1309]'
p8391
aS'a[5998]'
p8392
aS'a[71]'
p8393
aS'a[0]'
p8394
aS'a[4829]'
p8395
aS'a[3615]'
p8396
aS'a[3615]'
p8397
aS'a[1130]'
p8398
aS'a[1]'
p8399
aS'a[124]'
p8400
aS'a[1734]'
p8401
aS'a[2683]'
p8402
aS'a[135]'
p8403
aS'a[9217]'
p8404
aS'a[2521]'
p8405
aS'a[7148]'
p8406
aS'a[8304]'
p8407
aS'a[1484]'
p8408
aS'a[1585]'
p8409
aS'a[3162]'
p8410
aS'a[458]'
p8411
aS'a[8751]'
p8412
aS'a[5249]'
p8413
aS'a[3063]'
p8414
aS'a[451]'
p8415
aS'a[310]'
p8416
aS'a[956]'
p8417
aS'a[2318]'
p8418
aS'a[1858]'
p8419
aS'a[350]'
p8420
aS'a[3615]'
p8421
aS'a[18]'
p8422
aS'a[2300]'
p8423
aS'a[2106]'
p8424
aS'a[3908]'
p8425
aS'a[4178]'
p8426
aS'a[1087]'
p8427
aS'a[62]'
p8428
aS'a[371]'
p8429
aS'a[4639]'
p8430
aS'a[749]'
p8431
aS'a[298]'
p8432
aS'a[350]'
p8433
aS'a[24]'
p8434
aS'a[1935]'
p8435
aS'a[4]'
p8436
aS'a[458]'
p8437
aS'a[586]'
p8438
aS'a[5403]'
p8439
aS'a[52]'
p8440
aS'a[1858]'
p8441
aS'a[5086]'
p8442
aS'a[168]'
p8443
aS'a[1897]'
p8444
aS'a[1573]'
p8445
aS'a[956]'
p8446
aS'a[7210]'
p8447
aS'a[3]'
p8448
aS'a[2683]'
p8449
aS'a[2857]'
p8450
aS'a[46]'
p8451
aS'a[155]'
p8452
aS'a[4014]'
p8453
aS'a[8973]'
p8454
aS'a[5831]'
p8455
aS'a[8343]'
p8456
aS'a[458]'
p8457
aS'a[258]'
p8458
aS'a[1268]'
p8459
aS'a[5775]'
p8460
aS'a[3615]'
p8461
aS'a[1423]'
p8462
aS'a[1082]'
p8463
aS'a[819]'
p8464
aS'a[303]'
p8465
aS'a[3633]'
p8466
aS'a[18]'
p8467
aS'a[593]'
p8468
aS'a[2100]'
p8469
aS'a[711]'
p8470
aS'a[493]'
p8471
aS'a[6937]'
p8472
aS'a[8162]'
p8473
aS'a[3350]'
p8474
aS'a[2811]'
p8475
aS'a[3063]'
p8476
aS'a[35]'
p8477
aS'a[135]'
p8478
aS'a[1]'
p8479
aS'a[92]'
p8480
aS'a[2052]'
p8481
aS'a[24]'
p8482
aS'a[5227]'
p8483
aS'a[6464]'
p8484
aS'a[2018]'
p8485
aS'a[3421]'
p8486
aS'a[1]'
p8487
aS'a[621]'
p8488
aS'a[7797]'
p8489
aS'a[555]'
p8490
aS'a[5367]'
p8491
aS'a[634]'
p8492
aS'a[7006]'
p8493
aS'a[2193]'
p8494
aS'a[2652]'
p8495
aS'a[475]'
p8496
aS'a[618]'
p8497
aS'a[267]'
p8498
aS'a[4018]'
p8499
aS'a[2521]'
p8500
aS'a[267]'
p8501
aS'a[62]'
p8502
aS'a[1428]'
p8503
aS'a[4830]'
p8504
aS'a[3776]'
p8505
aS'a[5074]'
p8506
aS'a[184]'
p8507
aS'a[301]'
p8508
aS'a[201]'
p8509
aS'a[8186]'
p8510
aS'a[34]'
p8511
aS'a[3604]'
p8512
aS'a[1096]'
p8513
aS'a[5106]'
p8514
aS'a[303]'
p8515
aS'a[24]'
p8516
aS'a[740]'
p8517
aS'a[56]'
p8518
aS'a[4710]'
p8519
aS'a[2220]'
p8520
aS'a[6603]'
p8521
aS'a[2675]'
p8522
aS'a[8486]'
p8523
aS'a[3380]'
p8524
aS'a[301]'
p8525
aS'a[7595]'
p8526
aS'a[699]'
p8527
aS'a[35]'
p8528
aS'a[7085]'
p8529
aS'a[4126]'
p8530
aS'a[34]'
p8531
aS'a[177]'
p8532
aS'a[124]'
p8533
aS'a[1807]'
p8534
aS'a[2939]'
p8535
aS'a[7780]'
p8536
aS'a[3070]'
p8537
aS'a[1180]'
p8538
aS'a[3070]'
p8539
aS'a[1284]'
p8540
aS'a[6185]'
p8541
aS'a[6774]'
p8542
aS'a[135]'
p8543
aS'a[647]'
p8544
aS'a[191]'
p8545
aS'a[8570]'
p8546
aS'a[5293]'
p8547
aS'a[3461]'
p8548
aS'a[7789]'
p8549
aS'a[18]'
p8550
aS'a[3070]'
p8551
aS'a[24]'
p8552
aS'a[62]'
p8553
aS'a[1781]'
p8554
aS'a[2300]'
p8555
aS'a[34]'
p8556
aS'a[24]'
p8557
aS'a[168]'
p8558
aS'a[62]'
p8559
aS'a[647]'
p8560
aS'a[9184]'
p8561
aS'a[1801]'
p8562
aS'a[5231]'
p8563
aS'a[135]'
p8564
aS'a[223]'
p8565
aS'a[711]'
p8566
aS'a[301]'
p8567
aS'a[18]'
p8568
aS'a[1585]'
p8569
aS'a[1263]'
p8570
aS'a[267]'
p8571
aS'a[3130]'
p8572
aS'a[1081]'
p8573
aS'a[4]'
p8574
aS'a[3731]'
p8575
aS'a[0]'
p8576
aS'a[6437]'
p8577
aS'a[5249]'
p8578
aS'a[24]'
p8579
aS'a[2675]'
p8580
aS'a[52]'
p8581
aS'a[201]'
p8582
aS'a[3318]'
p8583
aS'a[2410]'
p8584
aS'a[291]'
p8585
aS'a[7011]'
p8586
aS'a[8798]'
p8587
aS'a[23]'
p8588
aS'a[7392]'
p8589
aS'a[155]'
p8590
aS'a[24]'
p8591
aS'a[4774]'
p8592
aS'a[6722]'
p8593
aS'a[1035]'
p8594
aS'a[46]'
p8595
aS'a[4639]'
p8596
aS'a[4666]'
p8597
aS'a[8103]'
p8598
aS'a[5249]'
p8599
aS'a[699]'
p8600
aS'a[1]'
p8601
aS'a[7257]'
p8602
aS'a[62]'
p8603
aS'a[371]'
p8604
aS'a[1858]'
p8605
aS'a[1670]'
p8606
aS'a[3992]'
p8607
aS'a[1696]'
p8608
aS'a[5802]'
p8609
aS'a[2683]'
p8610
aS'a[3502]'
p8611
aS'a[7752]'
p8612
aS'a[3063]'
p8613
aS'a[1130]'
p8614
aS'a[1068]'
p8615
aS'a[6448]'
p8616
aS'a[3776]'
p8617
aS'a[2410]'
p8618
aS'a[3910]'
p8619
aS'a[692]'
p8620
aS'a[6747]'
p8621
aS'a[2675]'
p8622
aS'a[9000]'
p8623
aS'a[4800]'
p8624
aS'a[62]'
p8625
aS'a[6437]'
p8626
aS'a[24]'
p8627
aS'a[1257]'
p8628
aS'a[1935]'
p8629
aS'a[8016]'
p8630
aS'a[8103]'
p8631
aS'a[4309]'
p8632
aS'a[100]'
p8633
aS'a[47]'
p8634
aS'a[0]'
p8635
aS'a[3299]'
p8636
aS'a[267]'
p8637
aS'a[1082]'
p8638
aS'a[45]'
p8639
aS'a[4853]'
p8640
aS'a[92]'
p8641
aS'a[532]'
p8642
aS'a[7684]'
p8643
aS'a[4484]'
p8644
aS'a[1156]'
p8645
aS'a[1130]'
p8646
aS'a[5577]'
p8647
aS'a[884]'
p8648
aS'a[5240]'
p8649
aS'a[748]'
p8650
aS'a[1168]'
p8651
aS'a[3070]'
p8652
aS'a[135]'
p8653
aS'a[1807]'
p8654
aS'a[618]'
p8655
aS'a[8018]'
p8656
aS'a[1257]'
p8657
aS'a[22]'
p8658
aS'a[711]'
p8659
aS'a[24]'
p8660
aS'a[1]'
p8661
aS'a[3661]'
p8662
aS'a[34]'
p8663
aS'a[3518]'
p8664
aS'a[5279]'
p8665
aS'a[5601]'
p8666
aS'a[6166]'
p8667
aS'a[4690]'
p8668
aS'a[18]'
p8669
aS'a[682]'
p8670
aS'a[3653]'
p8671
aS'a[6029]'
p8672
aS'a[3502]'
p8673
aS'a[7321]'
p8674
aS'a[24]'
p8675
aS'a[8441]'
p8676
aS'a[223]'
p8677
aS'a[618]'
p8678
aS'a[3908]'
p8679
aS'a[458]'
p8680
aS'a[3072]'
p8681
aS'a[1585]'
p8682
aS'a[6330]'
p8683
aS'a[6345]'
p8684
aS'a[700]'
p8685
aS'a[682]'
p8686
aS'a[5535]'
p8687
aS'a[1078]'
p8688
aS'a[62]'
p8689
aS'a[8646]'
p8690
aS'a[749]'
p8691
aS'a[301]'
p8692
aS'a[1263]'
p8693
aS'a[1982]'
p8694
aS'a[3162]'
p8695
aS'a[124]'
p8696
aS'a[3204]'
p8697
aS'a[773]'
p8698
aS'a[2324]'
p8699
aS'a[301]'
p8700
aS'a[1858]'
p8701
aS'a[6236]'
p8702
aS'a[3161]'
p8703
aS'a[155]'
p8704
aS'a[2498]'
p8705
aS'a[35]'
p8706
aS'a[8025]'
p8707
aS'a[371]'
p8708
aS'a[1130]'
p8709
aS'a[1096]'
p8710
aS'a[1585]'
p8711
aS'a[2489]'
p8712
aS'a[7555]'
p8713
aS'a[5523]'
p8714
aS'a[191]'
p8715
aS'a[61]'
p8716
aS'a[46]'
p8717
aS'a[4204]'
p8718
aS'a[4670]'
p8719
aS'a[2498]'
p8720
aS'a[7535]'
p8721
aS'a[1333]'
p8722
aS'a[699]'
p8723
aS'a[33]'
p8724
aS'a[1807]'
p8725
aS'a[6896]'
p8726
aS'a[71]'
p8727
aS'a[301]'
p8728
aS'a[9181]'
p8729
aS'a[301]'
p8730
aS'a[1935]'
p8731
aS'a[3072]'
p8732
aS'a[5769]'
p8733
aS'a[4044]'
p8734
aS'a[8458]'
p8735
aS'a[7905]'
p8736
aS'a[682]'
p8737
aS'a[8948]'
p8738
aS'a[201]'
p8739
aS'a[6188]'
p8740
aS'a[1477]'
p8741
aS'a[8756]'
p8742
aS'a[62]'
p8743
aS'a[3161]'
p8744
aS'a[3441]'
p8745
aS'a[22]'
p8746
aS'a[9006]'
p8747
aS'a[4935]'
p8748
aS'a[2498]'
p8749
aS'a[3070]'
p8750
aS'a[3539]'
p8751
aS'a[3673]'
p8752
aS'a[3072]'
p8753
aS'a[2879]'
p8754
aS'a[3928]'
p8755
aS'a[56]'
p8756
aS'a[260]'
p8757
aS'a[3]'
p8758
aS'a[414]'
p8759
aS'a[5497]'
p8760
aS'a[34]'
p8761
aS'a[1807]'
p8762
aS'a[1010]'
p8763
aS'a[594]'
p8764
aS'a[8946]'
p8765
aS'a[5038]'
p8766
aS'a[4346]'
p8767
aS'a[5106]'
p8768
aS'a[155]'
p8769
aS'a[14]'
p8770
aS'a[1580]'
p8771
aS'a[5968]'
p8772
aS'a[5108]'
p8773
aS'a[5720]'
p8774
aS'a[351]'
p8775
aS'a[1]'
p8776
aS'a[8009]'
p8777
aS'a[682]'
p8778
aS'a[1016]'
p8779
aS'a[1949]'
p8780
aS'a[311]'
p8781
aS'a[5672]'
p8782
aS'a[6559]'
p8783
aS'a[1580]'
p8784
aS'a[260]'
p8785
aS'a[6089]'
p8786
aS'a[1477]'
p8787
aS'a[24]'
p8788
aS'a[3063]'
p8789
aS'a[267]'
p8790
aS'a[605]'
p8791
aS'a[5925]'
p8792
aS'a[3162]'
p8793
aS'a[4834]'
p8794
aS'a[9219]'
p8795
aS'a[71]'
p8796
aS'a[3615]'
p8797
aS'a[1935]'
p8798
aS'a[647]'
p8799
aS'a[1893]'
p8800
aS'a[2480]'
p8801
aS'a[4639]'
p8802
aS'a[6888]'
p8803
aS'a[71]'
p8804
aS'a[1632]'
p8805
aS'a[2921]'
p8806
aS'a[344]'
p8807
aS'a[3908]'
p8808
aS'a[310]'
p8809
aS'a[33]'
p8810
aS'a[3]'
p8811
aS'a[139]'
p8812
aS'a[1867]'
p8813
aS'a[8380]'
p8814
aS'a[168]'
p8815
aS'a[682]'
p8816
aS'a[8277]'
p8817
aS'a[8249]'
p8818
aS'a[1]'
p8819
aS'a[24]'
p8820
aS'a[605]'
p8821
aS'a[6747]'
p8822
aS'a[3072]'
p8823
aS'a[995]'
p8824
aS'a[9155]'
p8825
aS'a[3783]'
p8826
aS'a[223]'
p8827
aS'a[1388]'
p8828
aS'a[168]'
p8829
aS'a[3462]'
p8830
aS'a[6810]'
p8831
aS'a[24]'
p8832
aS'a[33]'
p8833
aS'a[6040]'
p8834
aS'a[4]'
p8835
aS'a[2174]'
p8836
aS'a[3902]'
p8837
aS'a[1499]'
p8838
aS'a[62]'
p8839
aS'a[6230]'
p8840
aS'a[2939]'
p8841
aS'a[7880]'
p8842
aS'a[4276]'
p8843
aS'a[4682]'
p8844
aS'a[3604]'
p8845
aS'a[351]'
p8846
aS'a[2683]'
p8847
aS'a[3776]'
p8848
aS'a[2130]'
p8849
aS'a[4601]'
p8850
aS'a[1081]'
p8851
aS'a[711]'
p8852
aS'a[4113]'
p8853
aS'a[62]'
p8854
aS'a[159]'
p8855
aS'a[460]'
p8856
aS'a[3502]'
p8857
aS'a[18]'
p8858
aS'a[1257]'
p8859
aS'a[974]'
p8860
aS'a[189]'
p8861
aS'a[8188]'
p8862
aS'a[34]'
p8863
aS'a[4529]'
p8864
aS'a[351]'
p8865
aS'a[100]'
p8866
aS'a[2244]'
p8867
aS'a[682]'
p8868
aS'a[8954]'
p8869
aS'a[8287]'
p8870
aS'a[6820]'
p8871
aS'a[6761]'
p8872
aS'a[4325]'
p8873
aS'a[7925]'
p8874
aS'a[532]'
p8875
aS'a[301]'
p8876
aS'a[8077]'
p8877
aS'a[3908]'
p8878
aS'a[3063]'
p8879
aS'a[3072]'
p8880
aS'a[3072]'
p8881
aS'a[3731]'
p8882
aS'a[3072]'
p8883
aS'a[4728]'
p8884
aS'a[1]'
p8885
aS'a[201]'
p8886
aS'a[135]'
p8887
aS'a[3]'
p8888
aS'a[458]'
p8889
aS'a[5801]'
p8890
aS'a[3063]'
p8891
aS'a[1082]'
p8892
aS'a[6037]'
p8893
aS'a[1585]'
p8894
aS'a[4529]'
p8895
aS'a[2524]'
p8896
aS'a[71]'
p8897
aS'a[3072]'
p8898
aS'a[1]'
p8899
aS'a[3336]'
p8900
aS'a[7671]'
p8901
aS'a[4816]'
p8902
aS'a[3615]'
p8903
aS'a[1696]'
p8904
aS'a[9176]'
p8905
aS'a[8362]'
p8906
aS'a[618]'
p8907
aS'a[0]'
p8908
aS'a[647]'
p8909
aS'a[8038]'
p8910
aS'a[1092]'
p8911
aS'a[1303]'
p8912
aS'a[1261]'
p8913
aS'a[59]'
p8914
aS'a[23]'
p8915
aS'a[1]'
p8916
aS'a[5560]'
p8917
aS'a[6279]'
p8918
aS'a[155]'
p8919
aS'a[4828]'
p8920
aS'a[124]'
p8921
aS'a[9187]'
p8922
aS'a[267]'
p8923
aS'a[5592]'
p8924
aS'a[4529]'
p8925
aS'a[5249]'
p8926
aS'a[2939]'
p8927
aS'a[458]'
p8928
aS'a[34]'
p8929
aS'a[8038]'
p8930
aS'a[458]'
p8931
aS'a[5900]'
p8932
aS'a[24]'
p8933
aS'a[1935]'
p8934
aS'a[24]'
p8935
aS'a[267]'
p8936
aS'a[3966]'
p8937
aS'a[699]'
p8938
aS'a[191]'
p8939
aS'a[1580]'
p8940
aS'a[191]'
p8941
aS'a[4011]'
p8942
aS'a[71]'
p8943
aS'a[1253]'
p8944
aS'a[618]'
p8945
aS'a[8439]'
p8946
aS'a[34]'
p8947
aS'a[2498]'
p8948
aS'a[929]'
p8949
aS'a[1]'
p8950
aS'a[35]'
p8951
aS'a[291]'
p8952
aS'a[4214]'
p8953
aS'a[0]'
p8954
aS'a[291]'
p8955
aS'a[1743]'
p8956
aS'a[139]'
p8957
aS'a[682]'
p8958
aS'a[3063]'
p8959
aS'a[24]'
p8960
aS'a[2130]'
p8961
aS'a[951]'
p8962
aS'a[2130]'
p8963
aS'a[2300]'
p8964
aS'a[4033]'
p8965
aS'a[8103]'
p8966
aS'a[2675]'
p8967
aS'a[203]'
p8968
aS'a[618]'
p8969
aS'a[1700]'
p8970
aS'a[7290]'
p8971
aS'a[201]'
p8972
aS'a[1071]'
p8973
aS'a[1490]'
p8974
aS'a[8811]'
p8975
aS'a[956]'
p8976
aS'a[35]'
p8977
aS'a[555]'
p8978
aS'a[4018]'
p8979
aS'a[4279]'
p8980
aS'a[168]'
p8981
aS'a[198]'
p8982
aS'a[1351]'
p8983
aS'a[56]'
p8984
aS'a[2498]'
p8985
aS'a[3637]'
p8986
aS'a[155]'
p8987
aS'a[315]'
p8988
aS'a[1263]'
p8989
aS'a[832]'
p8990
aS'a[954]'
p8991
aS'a[3776]'
p8992
aS'a[159]'
p8993
aS'a[100]'
p8994
aS'a[8716]'
p8995
aS'a[8411]'
p8996
aS'a[7061]'
p8997
aS'a[4935]'
p8998
aS'a[6344]'
p8999
aS'a[8789]'
p9000
aS'a[7434]'
p9001
aS'a[267]'
p9002
aS'a[1]'
p9003
aS'a[1]'
p9004
aS'a[562]'
p9005
aS'a[8641]'
p9006
aS'a[5671]'
p9007
aS'a[1168]'
p9008
aS'a[3611]'
p9009
aS'a[4727]'
p9010
aS'a[7437]'
p9011
aS'a[2498]'
p9012
aS'a[956]'
p9013
aS'a[1263]'
p9014
aS'a[310]'
p9015
aS'a[2351]'
p9016
aS'a[168]'
p9017
aS'a[1807]'
p9018
aS'a[6513]'
p9019
aS'a[56]'
p9020
aS'a[8421]'
p9021
aS'a[3412]'
p9022
aS'a[24]'
p9023
aS'a[298]'
p9024
aS'a[3414]'
p9025
aS'a[61]'
p9026
aS'a[3615]'
p9027
aS'a[52]'
p9028
aS'a[1257]'
p9029
aS'a[1092]'
p9030
aS'a[749]'
p9031
aS'a[34]'
p9032
aS'a[6638]'
p9033
aS'a[24]'
p9034
aS'a[5241]'
p9035
aS'a[3063]'
p9036
aS'a[1477]'
p9037
aS'a[62]'
p9038
aS'a[61]'
p9039
aS'a[8009]'
p9040
aS'a[3949]'
p9041
aS'a[1897]'
p9042
aS'a[198]'
p9043
aS'a[1818]'
p9044
aS'a[159]'
p9045
aS'a[61]'
p9046
aS'a[8099]'
p9047
aS'a[2675]'
p9048
aS'a[7397]'
p9049
aS'a[3776]'
p9050
aS'a[71]'
p9051
aS'a[14]'
p9052
aS'a[350]'
p9053
aS'a[7589]'
p9054
aS'a[303]'
p9055
aS'a[4484]'
p9056
aS'a[35]'
p9057
aS'a[18]'
p9058
aS'a[6133]'
p9059
aS'a[4008]'
p9060
aS'a[14]'
p9061
aS'a[8103]'
p9062
aS'a[438]'
p9063
aS'a[24]'
p9064
aS'a[3136]'
p9065
aS'a[8184]'
p9066
aS'a[135]'
p9067
aS'a[4598]'
p9068
aS'a[8575]'
p9069
aS'a[8603]'
p9070
aS'a[7041]'
p9071
aS'a[6241]'
p9072
aS'a[4926]'
p9073
aS'a[6198]'
p9074
aS'a[2438]'
p9075
aS'a[1119]'
p9076
aS'a[3908]'
p9077
aS'a[682]'
p9078
aS'a[46]'
p9079
aS'a[6247]'
p9080
aS'a[3]'
p9081
aS'a[2675]'
p9082
aS'a[3162]'
p9083
aS'a[3]'
p9084
aS'a[1]'
p9085
aS'a[1248]'
p9086
aS'a[298]'
p9087
aS'a[61]'
p9088
aS'a[5521]'
p9089
aS'a[2683]'
p9090
aS'a[155]'
p9091
aS'a[4946]'
p9092
aS'a[8910]'
p9093
aS'a[4889]'
p9094
aS'a[3]'
p9095
aS'a[1130]'
p9096
aS'a[2877]'
p9097
aS'a[24]'
p9098
aS'a[5139]'
p9099
aS'a[8587]'
p9100
aS'a[6676]'
p9101
aS'a[3527]'
p9102
aS'a[5012]'
p9103
aS'a[129]'
p9104
aS'a[605]'
p9105
aS'a[2675]'
p9106
aS'a[1096]'
p9107
aS'a[135]'
p9108
aS'a[155]'
p9109
aS'a[4644]'
p9110
aS'a[6894]'
p9111
aS'a[2153]'
p9112
aS'a[4011]'
p9113
aS'a[258]'
p9114
aS'a[168]'
p9115
aS'a[9051]'
p9116
aS'a[5220]'
p9117
aS'a[988]'
p9118
aS'a[740]'
p9119
aS'a[4826]'
p9120
aS'a[2524]'
p9121
aS'a[2300]'
p9122
aS'a[92]'
p9123
aS'a[5523]'
p9124
aS'a[5249]'
p9125
aS'a[3161]'
p9126
aS'a[9062]'
p9127
aS'a[2396]'
p9128
aS'a[928]'
p9129
aS'a[4648]'
p9130
aS'a[4112]'
p9131
aS'a[618]'
p9132
aS'a[740]'
p9133
aS'a[638]'
p9134
aS'a[2675]'
p9135
aS'a[5221]'
p9136
aS'a[201]'
p9137
aS'a[124]'
p9138
aS'a[2582]'
p9139
aS'a[3118]'
p9140
aS'a[8004]'
p9141
aS'a[1345]'
p9142
aS'a[740]'
p9143
aS'a[5664]'
p9144
aS'a[2655]'
p9145
aS'a[8685]'
p9146
aS'a[3928]'
p9147
aS'a[45]'
p9148
aS'a[8038]'
p9149
aS'a[2782]'
p9150
aS'a[4]'
p9151
aS'a[1210]'
p9152
aS'a[135]'
p9153
aS'a[8550]'
p9154
aS'a[301]'
p9155
aS'a[155]'
p9156
aS'a[33]'
p9157
aS'a[2750]'
p9158
aS'a[2655]'
p9159
aS'a[9160]'
p9160
aS'a[4606]'
p9161
aS'a[3928]'
p9162
aS'a[8426]'
p9163
aS'a[4529]'
p9164
aS'a[135]'
p9165
aS'a[371]'
p9166
aS'a[532]'
p9167
aS'a[35]'
p9168
aS'a[555]'
p9169
aS'a[555]'
p9170
aS'a[0]'
p9171
aS'a[5829]'
p9172
aS'a[682]'
p9173
aS'a[692]'
p9174
aS'a[6797]'
p9175
aS'a[9019]'
p9176
aS'a[835]'
p9177
aS'a[18]'
p9178
aS'a[1]'
p9179
aS'a[1541]'
p9180
aS'a[189]'
p9181
aS'a[3992]'
p9182
aS'a[6102]'
p9183
aS'a[303]'
p9184
aS'a[351]'
p9185
aS'a[7341]'
p9186
aS'a[6657]'
p9187
aS'a[7771]'
p9188
aS'a[9234]'
p9189
aS'a[18]'
p9190
aS'a[24]'
p9191
aS'a[18]'
p9192
aS'a[56]'
p9193
aS'a[3072]'
p9194
aS'a[605]'
p9195
aS'a[5249]'
p9196
aS'a[3731]'
p9197
aS'a[3615]'
p9198
aS'a[2300]'
p9199
aS'a[33]'
p9200
aS'a[35]'
p9201
aS'a[0]'
p9202
aS'a[555]'
p9203
aS'a[1259]'
p9204
aS'a[9097]'
p9205
aS'a[168]'
p9206
aS'a[2675]'
p9207
aS'a[168]'
p9208
aS'a[5067]'
p9209
aS'a[2564]'
p9210
aS'a[3276]'
p9211
aS'a[682]'
p9212
aS'a[24]'
p9213
aS'a[1696]'
p9214
aS'a[1082]'
p9215
aS'a[7975]'
p9216
aS'a[1541]'
p9217
aS'a[267]'
p9218
aS'a[7433]'
p9219
aS'a[45]'
p9220
aS'a[2939]'
p9221
aS'a[2939]'
p9222
aS'a[7277]'
p9223
aS'a[1309]'
p9224
aS'a[3162]'
p9225
aS'a[2939]'
p9226
aS'a[3822]'
p9227
aS'a[682]'
p9228
aS'a[1514]'
p9229
aS'a[8754]'
p9230
aS'a[2426]'
p9231
aS'a[8862]'
p9232
aS'a[18]'
p9233
aS'a[4639]'
p9234
aS'a[2212]'
p9235
aS'a[1541]'
p9236
aS'a[135]'
p9237
aS'a[18]'
p9238
aS'a[0]'
p9239
aS'a[2939]'
p9240
aS'a[1696]'
p9241
aS'a[5634]'
p9242
aS'a[682]'
p9243
aS'a[71]'
p9244
aS'a[1935]'
p9245
aS'a[3776]'
p9246
aS'a[7876]'
p9247
aS'a[4213]'
p9248
aS'a[371]'
p9249
aS'a[1585]'
p9250
aS'a[301]'
p9251
aS'a[243]'
p9252
aS'a[988]'
p9253
aS'a[124]'
p9254
aS'a[8532]'
p9255
aS'a[458]'
p9256
aS'a[4095]'
p9257
aS'a[8009]'
p9258
aS'a[4789]'
p9259
aS'a[100]'
p9260
aS'a[3070]'
p9261
aS'a[18]'
p9262
aS'a[2032]'
p9263
aS'a[3072]'
p9264
aS'a[3]'
p9265
aS'a[198]'
p9266
aS'a[4483]'
p9267
aS'a[198]'
p9268
aS'a[5350]'
p9269
aS'a[303]'
p9270
aS'a[3193]'
p9271
aS'a[52]'
p9272
aS'a[8583]'
p9273
aS'a[2675]'
p9274
aS'a[699]'
p9275
aS'a[4574]'
p9276
aS'a[647]'
p9277
aS'a[4481]'
p9278
aS'a[8103]'
p9279
aS'a[1195]'
p9280
aS'a[7903]'
p9281
aS'a[159]'
p9282
aS'a[988]'
p9283
aS'a[749]'
p9284
aS'a[618]'
p9285
aS'a[4333]'
p9286
aS'a[1580]'
p9287
aS'a[2130]'
p9288
aS'a[8038]'
p9289
aS'a[8622]'
p9290
aS'a[576]'
p9291
aS'a[3816]'
p9292
aS'a[3063]'
p9293
aS'a[46]'
p9294
aS'a[3220]'
p9295
aS'a[2683]'
p9296
aS'a[45]'
p9297
aS'a[46]'
p9298
aS'a[258]'
p9299
aS'a[4669]'
p9300
aS'a[348]'
p9301
aS'a[6784]'
p9302
aS'a[71]'
p9303
aS'a[2675]'
p9304
aS'a[1]'
p9305
aS'a[988]'
p9306
aS'a[5249]'
p9307
aS'a[351]'
p9308
aS'a[267]'
p9309
aS'a[1130]'
p9310
aS'a[1130]'
p9311
aS'a[2447]'
p9312
aS'a[5249]'
p9313
aS'a[139]'
p9314
aS'a[4381]'
p9315
aS'a[414]'
p9316
aS'a[5189]'
p9317
aS'a[3]'
p9318
aS'a[6611]'
p9319
aS'a[303]'
p9320
aS'a[1580]'
p9321
aS'a[6637]'
p9322
aS'a[438]'
p9323
aS'a[2441]'
p9324
aS'a[243]'
p9325
aS'a[198]'
p9326
aS'a[353]'
p9327
aS'a[62]'
p9328
aS'a[4163]'
p9329
aS'a[3731]'
p9330
aS'a[3318]'
p9331
aS'a[544]'
p9332
aS'a[35]'
p9333
aS'a[291]'
p9334
aS'a[414]'
p9335
aS'a[135]'
p9336
aS'a[4639]'
p9337
aS'a[8742]'
p9338
aS'a[2300]'
p9339
aS'a[2683]'
p9340
aS'a[71]'
p9341
aS'a[35]'
p9342
aS'a[267]'
p9343
aS'a[1]'
p9344
aS'a[2683]'
p9345
aS'a[988]'
p9346
aS'a[14]'
p9347
aS'a[155]'
p9348
aS'a[7681]'
p9349
aS'a[8009]'
p9350
aS'a[250]'
p9351
aS'a[1807]'
p9352
aS'a[5764]'
p9353
aS'a[135]'
p9354
aS'a[749]'
p9355
aS'a[33]'
p9356
aS'a[310]'
p9357
aS'a[9127]'
p9358
aS'a[4529]'
p9359
aS'a[1826]'
p9360
aS'a[8133]'
p9361
aS'a[1807]'
p9362
aS'a[1743]'
p9363
aS'a[5462]'
p9364
aS'a[2675]'
p9365
aS'a[34]'
p9366
aS'a[4639]'
p9367
aS'a[740]'
p9368
aS'a[8751]'
p9369
aS'a[35]'
p9370
aS'a[2390]'
p9371
aS'a[6815]'
p9372
aS'a[425]'
p9373
aS'a[1580]'
p9374
aS'a[135]'
p9375
aS'a[4935]'
p9376
aS'a[5634]'
p9377
aS'a[168]'
p9378
aS'a[3569]'
p9379
aS'a[2683]'
p9380
aS'a[4197]'
p9381
aS'a[71]'
p9382
aS'a[1]'
p9383
aS'a[0]'
p9384
aS'a[6987]'
p9385
aS'a[71]'
p9386
aS'a[740]'
p9387
aS'a[1585]'
p9388
aS'a[711]'
p9389
aS'a[1092]'
p9390
aS'a[1580]'
p9391
aS'a[189]'
p9392
aS'a[303]'
p9393
aS'a[3894]'
p9394
aS'a[8816]'
p9395
aS'a[3072]'
p9396
aS'a[8993]'
p9397
aS'a[2482]'
p9398
aS'a[4760]'
p9399
aS'a[34]'
p9400
aS'a[301]'
p9401
aS'a[6764]'
p9402
aS'a[6528]'
p9403
aS'a[3063]'
p9404
aS'a[2498]'
p9405
aS'a[8155]'
p9406
aS'a[6058]'
p9407
aS'a[1098]'
p9408
aS'a[371]'
p9409
aS'a[3731]'
p9410
aS'a[4]'
p9411
aS'a[2358]'
p9412
aS'a[71]'
p9413
aS'a[155]'
p9414
aS'a[3162]'
p9415
aS'a[1130]'
p9416
aS'a[1096]'
p9417
aS'a[618]'
p9418
aS'a[351]'
p9419
aS'a[100]'
p9420
aS'a[3769]'
p9421
aS'a[3482]'
p9422
aS'a[3]'
p9423
aS'a[2300]'
p9424
aS'a[124]'
p9425
aS'a[2300]'
p9426
aS'a[371]'
p9427
aS'a[682]'
p9428
aS'a[8082]'
p9429
aS'a[8038]'
p9430
aS'a[9132]'
p9431
aS'a[297]'
p9432
aS'a[2726]'
p9433
aS'a[3]'
p9434
aS'a[243]'
p9435
aS'a[711]'
p9436
aS'a[371]'
p9437
aS'a[1696]'
p9438
aS'a[4194]'
p9439
aS'a[24]'
p9440
aS'a[4433]'
p9441
aS'a[6573]'
p9442
aS'a[3325]'
p9443
aS'a[24]'
p9444
aS'a[5249]'
p9445
aS'a[155]'
p9446
aS'a[270]'
p9447
aS'a[1696]'
p9448
aS'a[1477]'
p9449
aS'a[3731]'
p9450
aS'a[1807]'
p9451
aS'a[1082]'
p9452
aS'a[303]'
p9453
aS'a[8103]'
p9454
aS'a[3731]'
p9455
aS'a[2939]'
p9456
aS'a[3063]'
p9457
aS'a[1585]'
p9458
aS'a[458]'
p9459
aS'a[3161]'
p9460
aS'a[1858]'
p9461
aS'a[5634]'
p9462
aS'a[61]'
p9463
aS'a[4603]'
p9464
aS'a[1477]'
p9465
aS'a[62]'
p9466
aS'a[8729]'
p9467
aS'a[2829]'
p9468
aS'a[8431]'
p9469
aS'a[2006]'
p9470
aS'a[7590]'
p9471
aS'a[8157]'
p9472
aS'a[4000]'
p9473
aS'a[647]'
p9474
aS'a[555]'
p9475
aS'a[654]'
p9476
aS'a[223]'
p9477
aS'a[301]'
p9478
aS'a[14]'
p9479
aS'a[3908]'
p9480
aS'a[3980]'
p9481
aS'a[2280]'
p9482
aS'a[647]'
p9483
aS'a[3632]'
p9484
aS'a[6000]'
p9485
aS'a[45]'
p9486
aS'a[0]'
p9487
aS'a[35]'
p9488
aS'a[2521]'
p9489
aS'a[52]'
p9490
aS'a[3734]'
p9491
aS'a[1580]'
p9492
aS'a[3162]'
p9493
aS'a[1]'
p9494
aS'a[258]'
p9495
aS'a[8247]'
p9496
aS'a[597]'
p9497
aS'a[61]'
p9498
aS'a[1858]'
p9499
aS'a[7609]'
p9500
aS'a[3063]'
p9501
aS'a[1911]'
p9502
aS'a[6600]'
p9503
aS'a[3072]'
p9504
aS'a[3162]'
p9505
aS'a[204]'
p9506
aS'a[7785]'
p9507
aS'a[4935]'
p9508
aS'a[24]'
p9509
aS'a[438]'
p9510
aS'a[3845]'
p9511
aS'a[45]'
p9512
aS'a[1257]'
p9513
aS'a[56]'
p9514
aS'a[956]'
p9515
aS'a[8564]'
p9516
aS'a[6834]'
p9517
aS'a[189]'
p9518
aS'a[414]'
p9519
aS'a[248]'
p9520
aS'a[3]'
p9521
aS'a[1541]'
p9522
aS'a[62]'
p9523
aS'a[2655]'
p9524
aS'a[62]'
p9525
aS'a[3161]'
p9526
aS'a[438]'
p9527
aS'a[861]'
p9528
aS'a[6125]'
p9529
aS'a[2683]'
p9530
aS'a[1348]'
p9531
aS'a[301]'
p9532
aS'a[2300]'
p9533
aS'a[2258]'
p9534
aS'a[365]'
p9535
aS'a[5370]'
p9536
aS'a[3]'
p9537
aS'a[45]'
p9538
aS'a[24]'
p9539
aS'a[56]'
p9540
aS'a[3953]'
p9541
aS'a[92]'
p9542
aS'a[7264]'
p9543
aS'a[1148]'
p9544
aS'a[8009]'
p9545
aS'a[260]'
p9546
aS'a[740]'
p9547
aS'a[6553]'
p9548
aS'a[416]'
p9549
aS'a[198]'
p9550
aS'a[139]'
p9551
aS'a[4935]'
p9552
aS'a[1876]'
p9553
aS'a[5783]'
p9554
aS'a[24]'
p9555
aS'a[35]'
p9556
aS'a[1096]'
p9557
aS'a[24]'
p9558
aS'a[2498]'
p9559
aS'a[310]'
p9560
aS'a[3524]'
p9561
aS'a[2675]'
p9562
aS'a[2876]'
p9563
aS'a[1139]'
p9564
aS'a[179]'
p9565
aS'a[7983]'
p9566
aS'a[4259]'
p9567
aS'a[1082]'
p9568
aS'a[618]'
p9569
aS'a[1585]'
p9570
aS'a[1263]'
p9571
aS'a[3]'
p9572
aS'a[6705]'
p9573
aS'a[189]'
p9574
aS'a[155]'
p9575
aS'a[618]'
p9576
aS'a[24]'
p9577
aS'a[463]'
p9578
aS'a[8103]'
p9579
aS'a[8084]'
p9580
aS'a[618]'
p9581
aS'a[3273]'
p9582
aS'a[2130]'
p9583
aS'a[2486]'
p9584
aS'a[92]'
p9585
aS'a[4054]'
p9586
aS'a[5106]'
p9587
aS'a[168]'
p9588
aS'a[24]'
p9589
aS'a[3161]'
p9590
aS'a[3329]'
p9591
aS'a[8769]'
p9592
aS'a[109]'
p9593
aS'a[1]'
p9594
aS'a[155]'
p9595
aS'a[3615]'
p9596
aS'a[291]'
p9597
aS'a[4639]'
p9598
aS'a[4980]'
p9599
aS'a[4822]'
p9600
aS'a[3]'
p9601
aS'a[371]'
p9602
aS'a[1541]'
p9603
aS'a[7529]'
p9604
aS'a[71]'
p9605
aS'a[350]'
p9606
aS'a[8685]'
p9607
aS'a[260]'
p9608
aS'a[3963]'
p9609
aS'a[3072]'
p9610
aS'a[1]'
p9611
aS'a[647]'
p9612
aS'a[3070]'
p9613
aS'a[3]'
p9614
aS'a[301]'
p9615
aS'a[3161]'
p9616
aS'a[8789]'
p9617
aS'a[5229]'
p9618
aS'a[699]'
p9619
aS'a[5244]'
p9620
aS'a[198]'
p9621
aS'a[1527]'
p9622
aS'a[52]'
p9623
aS'a[8038]'
p9624
aS'a[8103]'
p9625
aS'a[14]'
p9626
aS'a[46]'
p9627
aS'a[267]'
p9628
aS'a[267]'
p9629
aS'a[1130]'
p9630
aS'a[3502]'
p9631
aS'a[135]'
p9632
aS'a[2638]'
p9633
aS'a[33]'
p9634
aS'a[8827]'
p9635
aS'a[5170]'
p9636
aS'a[1935]'
p9637
aS'a[3]'
p9638
aS'a[8322]'
p9639
aS'a[6587]'
p9640
aS'a[3860]'
p9641
aS'a[71]'
p9642
aS'a[9047]'
p9643
aS'a[5015]'
p9644
aS'a[1263]'
p9645
aS'a[191]'
p9646
aS'a[5730]'
p9647
aS'a[3175]'
p9648
aS'a[3]'
p9649
aS'a[5231]'
p9650
aS'a[1]'
p9651
aS'a[310]'
p9652
aS'a[2300]'
p9653
aS'a[7594]'
p9654
aS'a[3615]'
p9655
aS'a[1]'
p9656
aS'a[1580]'
p9657
aS'a[759]'
p9658
aS'a[2881]'
p9659
aS'a[2365]'
p9660
aS'a[8294]'
p9661
aS'a[4240]'
p9662
aS'a[4043]'
p9663
aS'a[6133]'
p9664
aS'a[2817]'
p9665
aS'a[52]'
p9666
aS'a[6958]'
p9667
aS'a[291]'
p9668
aS'a[258]'
p9669
aS'a[4996]'
p9670
aS'a[903]'
p9671
aS'a[189]'
p9672
aS'a[1042]'
p9673
aS'a[24]'
p9674
aS'a[2683]'
p9675
aS'a[3927]'
p9676
aS'a[52]'
p9677
aS'a[5634]'
p9678
aS'a[1316]'
p9679
aS'a[8515]'
p9680
aS'a[458]'
p9681
aS'a[3795]'
p9682
aS'a[4113]'
p9683
aS'a[799]'
p9684
aS'a[956]'
p9685
aS'a[2613]'
p9686
aS'a[8009]'
p9687
aS'a[5337]'
p9688
aS'a[135]'
p9689
aS'a[711]'
p9690
aS'a[298]'
p9691
aS'a[1082]'
p9692
aS'a[4862]'
p9693
aS'a[3]'
p9694
aS'a[438]'
p9695
aS'a[1263]'
p9696
aS'a[18]'
p9697
aS'a[1]'
p9698
aS'a[605]'
p9699
aS'a[3063]'
p9700
aS'a[373]'
p9701
aS'a[8076]'
p9702
aS'a[2521]'
p9703
aS'a[189]'
p9704
aS'a[2877]'
p9705
aS'a[2152]'
p9706
aS'a[56]'
p9707
aS'a[61]'
p9708
aS'a[7907]'
p9709
aS'a[8607]'
p9710
aS'a[2683]'
p9711
aS'a[532]'
p9712
aS'a[2683]'
p9713
aS'a[2939]'
p9714
aS'a[1807]'
p9715
aS'a[3956]'
p9716
aS'a[8904]'
p9717
aS'a[4071]'
p9718
aS'a[3776]'
p9719
aS'a[3736]'
p9720
aS'a[23]'
p9721
aS'a[3499]'
p9722
aS'a[0]'
p9723
aS'a[61]'
p9724
aS'a[3908]'
p9725
aS'a[135]'
p9726
aS'a[2675]'
p9727
aS'a[8590]'
p9728
aS'a[45]'
p9729
aS'a[7310]'
p9730
aS'a[7666]'
p9731
aS'a[71]'
p9732
aS'a[3111]'
p9733
aS'a[5265]'
p9734
aS'a[7649]'
p9735
aS'a[3502]'
p9736
aS'a[56]'
p9737
aS'a[438]'
p9738
aS'a[1263]'
p9739
aS'a[790]'
p9740
aS'a[94]'
p9741
aS'a[3928]'
p9742
aS'a[605]'
p9743
aS'a[1257]'
p9744
aS'a[6011]'
p9745
aS'a[414]'
p9746
aS'a[3658]'
p9747
aS'a[1477]'
p9748
aS'a[7069]'
p9749
aS'a[258]'
p9750
aS'a[8506]'
p9751
aS'a[6258]'
p9752
aS'a[988]'
p9753
aS'a[1585]'
p9754
aS'a[45]'
p9755
aS'a[1585]'
p9756
aS'a[6252]'
p9757
aS'a[168]'
p9758
aS'a[5037]'
p9759
aS'a[2808]'
p9760
aS'a[458]'
p9761
aS'a[426]'
p9762
aS'a[2130]'
p9763
aS'a[5458]'
p9764
aS'a[3352]'
p9765
aS'a[887]'
p9766
aS'a[71]'
p9767
aS'a[8038]'
p9768
aS'a[2298]'
p9769
aS'a[258]'
p9770
aS'a[1696]'
p9771
aS'a[3072]'
p9772
aS'a[2385]'
p9773
aS'a[956]'
p9774
aS'a[8685]'
p9775
aS'a[301]'
p9776
aS'a[2448]'
p9777
aS'a[4018]'
p9778
aS'a[3811]'
p9779
aS'a[8103]'
p9780
aS'a[834]'
p9781
aS'a[124]'
p9782
aS'a[4067]'
p9783
aS'a[2873]'
p9784
aS'a[5800]'
p9785
aS'a[260]'
p9786
aS'a[7399]'
p9787
aS'a[532]'
p9788
aS'a[988]'
p9789
aS'a[2300]'
p9790
aS'a[155]'
p9791
aS'a[7145]'
p9792
aS'a[33]'
p9793
aS'a[5249]'
p9794
aS'a[5124]'
p9795
aS'a[4745]'
p9796
aS'a[301]'
p9797
aS'a[6945]'
p9798
aS'a[5634]'
p9799
aS'a[2939]'
p9800
aS'a[625]'
p9801
aS'a[24]'
p9802
aS'a[6286]'
p9803
aS'a[22]'
p9804
aS'a[3008]'
p9805
aS'a[189]'
p9806
aS'a[4485]'
p9807
aS'a[742]'
p9808
aS'a[1585]'
p9809
aS'a[8009]'
p9810
aS'a[8193]'
p9811
aS'a[2603]'
p9812
aS'a[5761]'
p9813
aS'a[4015]'
p9814
aS'a[2074]'
p9815
aS'a[3]'
p9816
aS'a[532]'
p9817
aS'a[1371]'
p9818
aS'a[291]'
p9819
aS'a[2487]'
p9820
aS'a[243]'
p9821
aS'a[4614]'
p9822
aS'a[5106]'
p9823
aS'a[1081]'
p9824
aS'a[6363]'
p9825
aS'a[661]'
p9826
aS'a[555]'
p9827
aS'a[62]'
p9828
aS'a[4747]'
p9829
aS'a[35]'
p9830
aS'a[3427]'
p9831
aS'a[4253]'
p9832
aS'a[3226]'
p9833
aS'a[2112]'
p9834
aS'a[135]'
p9835
aS'a[24]'
p9836
aS'a[0]'
p9837
aS'a[2046]'
p9838
aS'a[291]'
p9839
aS'a[1935]'
p9840
aS'a[168]'
p9841
aS'a[4]'
p9842
aS'a[1637]'
p9843
aS'a[191]'
p9844
aS'a[124]'
p9845
aS'a[1257]'
p9846
aS'a[8937]'
p9847
aS'a[4786]'
p9848
aS'a[7058]'
p9849
aS'a[2939]'
p9850
aS'a[8685]'
p9851
aS'a[458]'
p9852
aS'a[4763]'
p9853
aS'a[3615]'
p9854
aS'a[6291]'
p9855
aS'a[6439]'
p9856
aS'a[532]'
p9857
aS'a[5634]'
p9858
aS'a[5249]'
p9859
aS'a[5249]'
p9860
aS'a[4416]'
p9861
aS'a[3789]'
p9862
aS'a[7825]'
p9863
aS'a[22]'
p9864
aS'a[6579]'
p9865
aS'a[33]'
p9866
aS'a[1]'
p9867
aS'a[23]'
p9868
aS'a[0]'
p9869
aS'a[8695]'
p9870
aS'a[4328]'
p9871
aS'a[945]'
p9872
aS'a[2939]'
p9873
aS'a[371]'
p9874
aS'a[4328]'
p9875
aS'a[4708]'
p9876
aS'a[7338]'
p9877
aS'a[193]'
p9878
aS'a[5634]'
p9879
aS'a[0]'
p9880
aS'a[3]'
p9881
aS'a[5005]'
p9882
aS'a[5786]'
p9883
aS'a[124]'
p9884
aS'a[4663]'
p9885
aS'a[139]'
p9886
aS'a[3161]'
p9887
aS'a[4284]'
p9888
aS'a[440]'
p9889
aS'a[168]'
p9890
aS'a[0]'
p9891
aS'a[4]'
p9892
aS'a[6305]'
p9893
aS'a[3397]'
p9894
aS'a[24]'
p9895
aS'a[350]'
p9896
aS'a[2064]'
p9897
aS'a[35]'
p9898
aS'a[3072]'
p9899
aS'a[2300]'
p9900
aS'a[159]'
p9901
aS'a[3683]'
p9902
aS'a[3429]'
p9903
aS'a[301]'
p9904
aS'a[1092]'
p9905
aS'a[1696]'
p9906
aS'a[35]'
p9907
aS'a[1616]'
p9908
aS'a[124]'
p9909
aS'a[8719]'
p9910
aS'a[458]'
p9911
aS'a[2892]'
p9912
aS'a[6539]'
p9913
aS'a[14]'
p9914
aS'a[2751]'
p9915
aS'a[2204]'
p9916
aS'a[135]'
p9917
aS'a[3]'
p9918
aS'a[7313]'
p9919
aS'a[5959]'
p9920
aS'a[8685]'
p9921
aS'a[6478]'
p9922
aS'a[438]'
p9923
aS'a[1858]'
p9924
aS'a[2495]'
p9925
aS'a[1103]'
p9926
aS'a[4330]'
p9927
aS'a[4282]'
p9928
aS'a[62]'
p9929
aS'a[5104]'
p9930
aS'a[1]'
p9931
aS'a[4208]'
p9932
aS'a[956]'
p9933
aS'a[4598]'
p9934
aS'a[2939]'
p9935
aS'a[664]'
p9936
aS'a[4308]'
p9937
aS'a[1045]'
p9938
aS'a[2602]'
p9939
aS'a[23]'
p9940
aS'a[4]'
p9941
aS'a[1858]'
p9942
aS'a[6122]'
p9943
aS'a[2714]'
p9944
aS'a[155]'
p9945
aS'a[618]'
p9946
aS'a[777]'
p9947
aS'a[2369]'
p9948
aS'a[2939]'
p9949
aS'a[6672]'
p9950
aS'a[2498]'
p9951
aS'a[33]'
p9952
aS'a[2424]'
p9953
aS'a[8789]'
p9954
aS'a[2939]'
p9955
aS'a[1916]'
p9956
aS'a[7533]'
p9957
aS'a[2808]'
p9958
aS'a[4]'
p9959
aS'a[301]'
p9960
aS'a[3776]'
p9961
aS'a[8009]'
p9962
aS'a[438]'
p9963
aS'a[2265]'
p9964
aS'a[351]'
p9965
aS'a[9196]'
p9966
aS'a[52]'
p9967
aS'a[24]'
p9968
aS'a[1]'
p9969
aS'a[1804]'
p9970
aS'a[243]'
p9971
aS'a[1082]'
p9972
aS'a[605]'
p9973
aS'a[2185]'
p9974
aS'a[5634]'
p9975
aS'a[9139]'
p9976
aS'a[1]'
p9977
aS'a[0]'
p9978
aS'a[6006]'
p9979
aS'a[458]'
p9980
aS'a[310]'
p9981
aS'a[3814]'
p9982
aS'a[2229]'
p9983
aS'a[4282]'
p9984
aS'a[5887]'
p9985
aS'a[555]'
p9986
aS'a[5825]'
p9987
aS'a[150]'
p9988
aS'a[7870]'
p9989
aS'a[3161]'
p9990
aS'a[1580]'
p9991
aS'a[9007]'
p9992
aS'a[618]'
p9993
aS'a[8103]'
p9994
aS'a[1580]'
p9995
aS'a[4639]'
p9996
aS'a[2300]'
p9997
aS'a[2683]'
p9998
aS'a[46]'
p9999
aS'a[8009]'
p10000
a.